 binding

 Timestamp is 582385eb (Wed Nov  9 18:24:11 2016)

 Preferred load address is 0000000180000000

 Start         Length     Name                   Class
 0001:00000000 00000110H .text$di                CODE
 0001:00000110 0002f0e0H .text$mn                CODE
 0001:0002f1f0 00000020H .text$mn$00             CODE
 0001:0002f210 00004ac0H .text$x                 CODE
 0001:00033cd0 0000020aH .text$yd                CODE
 0002:00000000 00000740H .idata$5                DATA
 0002:00000740 00000010H .00cfg                  DATA
 0002:00000750 00000008H .CRT$XCA                DATA
 0002:00000758 00000008H .CRT$XCL                DATA
 0002:00000760 00000060H .CRT$XCU                DATA
 0002:000007c0 00000008H .CRT$XCZ                DATA
 0002:000007c8 00000008H .CRT$XIA                DATA
 0002:000007d0 00000008H .CRT$XIC                DATA
 0002:000007d8 00000008H .CRT$XIYB               DATA
 0002:000007e0 00000008H .CRT$XIZ                DATA
 0002:000007e8 00000008H .CRT$XLA                DATA
 0002:000007f0 00000008H .CRT$XLZ                DATA
 0002:000007f8 00000008H .CRT$XPA                DATA
 0002:00000800 00000008H .CRT$XPZ                DATA
 0002:00000808 00000008H .CRT$XTA                DATA
 0002:00000810 00000010H .CRT$XTZ                DATA
 0002:00000820 00006ea8H .rdata                  DATA
 0002:000076c8 00000028H .rdata$T                DATA
 0002:000076f0 0000045cH .rdata$r                DATA
 0002:00007b4c 00000444H .rdata$zzzdbg           DATA
 0002:00007f90 00000008H .rtc$IAA                DATA
 0002:00007f98 00000008H .rtc$IZZ                DATA
 0002:00007fa0 00000008H .rtc$TAA                DATA
 0002:00007fa8 00000008H .rtc$TZZ                DATA
 0002:00007fb0 0000e890H .xdata                  DATA
 0002:00016840 00000430H .xdata$x                DATA
 0002:00016c70 00000054H .edata                  DATA
 0002:00016cc4 000000c8H .idata$2                DATA
 0002:00016d8c 00000014H .idata$3                DATA
 0002:00016da0 00000740H .idata$4                DATA
 0002:000174e0 00002ae4H .idata$6                DATA
 0003:00000000 00002400H .data                   DATA
 0003:00002400 00001bd0H .data$r                 DATA
 0003:00003fd0 00000768H .bss                    DATA
 0004:00000000 000031d4H .pdata                  DATA
 0005:00000000 00000008H minATL$__a              DATA
 0005:00000008 00000008H minATL$__m              DATA
 0005:00000010 00000008H minATL$__z              DATA
 0006:00000000 000000acH .gfids$y                DATA
 0007:00000000 00000004H .tls                    DATA
 0007:00000004 00000004H .tls$                   DATA
 0007:00000008 00000001H .tls$ZZZ                DATA
 0008:00000000 00000060H .rsrc$01                DATA
 0008:00000060 00000180H .rsrc$02                DATA

  Address         Publics by Value              Rva+Base               Lib:Object

 0000:00000000       __guard_iat_count          0000000000000000     <absolute>
 0000:00000000       __dynamic_value_reloc_table 0000000000000000     <absolute>
 0000:00000000       __guard_iat_table          0000000000000000     <absolute>
 0000:00000000       __guard_longjmp_table      0000000000000000     <absolute>
 0000:00000000       __guard_longjmp_count      0000000000000000     <absolute>
 0000:00000000       __guard_fids_count         0000000000000000     <absolute>
 0000:00000000       ___safe_se_handler_table   0000000000000000     <absolute>
 0000:00000000       ___safe_se_handler_count   0000000000000000     <absolute>
 0000:00000000       __guard_fids_table         0000000000000000     <absolute>
 0000:00000100       __guard_flags              0000000000000100     <absolute>
 0000:00000000       __ImageBase                0000000180000000     <linker-defined>
 0001:00000110       ??$__abi_winrt_ptrto_delegate_dtor@V?$AsyncOperationCompletedHandler@PE$AAVString@Platform@@@Foundation@Windows@@@@YAXPE$ADV?$AsyncOperationCompletedHandler@PE$AAVString@Platform@@@Foundation@Windows@@@Z 0000000180001110 f i _nodert_generated.obj
 0001:00000110       ??$__abi_winrt_ptrto_delegate_dtor@V?$EventHandler@PE$AAVObject@Platform@@@Foundation@Windows@@@@YAXPE$ADV?$EventHandler@PE$AAVObject@Platform@@@Foundation@Windows@@@Z 0000000180001110 f i _nodert_generated.obj
 0001:00000110       ??$__abi_winrt_ptrto_delegate_dtor@V?$AsyncOperationCompletedHandler@_N@Foundation@Windows@@@@YAXPE$ADV?$AsyncOperationCompletedHandler@_N@Foundation@Windows@@@Z 0000000180001110 f i _nodert_generated.obj
 0001:00000110       ??$__abi_winrt_ptrto_delegate_dtor@V?$AsyncOperationCompletedHandler@W4SetAccountPictureResult@UserProfile@System@Windows@@@Foundation@Windows@@@@YAXPE$ADV?$AsyncOperationCompletedHandler@W4SetAccountPictureResult@UserProfile@System@Windows@@@Foundation@Windows@@@Z 0000000180001110 f i _nodert_generated.obj
 0001:00000110       ??$__abi_winrt_ptrto_delegate_dtor@V?$AsyncOperationCompletedHandler@W4SetImageFeedResult@UserProfile@System@Windows@@@Foundation@Windows@@@@YAXPE$ADV?$AsyncOperationCompletedHandler@W4SetImageFeedResult@UserProfile@System@Windows@@@Foundation@Windows@@@Z 0000000180001110 f i _nodert_generated.obj
 0001:00000110       ??$__abi_winrt_ptrto_delegate_dtor@V?$AsyncOperationCompletedHandler@PE$AAVUri@Foundation@Windows@@@Foundation@Windows@@@@YAXPE$ADV?$AsyncOperationCompletedHandler@PE$AAVUri@Foundation@Windows@@@Foundation@Windows@@@Z 0000000180001110 f i _nodert_generated.obj
 0001:00000110       ??$__abi_winrt_ptrto_delegate_dtor@V?$AsyncOperationCompletedHandler@E@Foundation@Windows@@@@YAXPE$ADV?$AsyncOperationCompletedHandler@E@Foundation@Windows@@@Z 0000000180001110 f i _nodert_generated.obj
 0001:00000110       ??$__abi_winrt_ptrto_delegate_dtor@VAsyncActionCompletedHandler@Foundation@Windows@@@@YAXPE$ADVAsyncActionCompletedHandler@Foundation@Windows@@@Z 0000000180001110 f i _nodert_generated.obj
 0001:00000110       ?__abi_winrt_ptr_dtor@@YAXQE$ADVObject@Platform@@@Z 0000000180001110 f i _nodert_generated.obj
 0001:00000120       ?__abi_winrt_ptrto_string_dtor@@YAXQE$ADVString@Platform@@@Z 0000000180001120 f i _nodert_generated.obj
 0001:00000130       ?__abi_dtor@__abi_FTMWeakRefData@@QEAAXXZ 0000000180001130 f i _nodert_generated.obj
 0001:000001d0       ?Increment@__abi_FTMWeakRefData@@QECAKXZ 00000001800011d0 f i _nodert_generated.obj
 0001:00000200       ?Decrement@__abi_FTMWeakRefData@@QECAKXZ 0000000180001200 f i _nodert_generated.obj
 0001:00000290       ??_E__abi_CaptureBase@Details@Platform@@MEAAPEAXI@Z 0000000180001290 f i * CIL library *:* CIL module *
 0001:00000290       ??_G__abi_CaptureBase@Details@Platform@@MEAAPEAXI@Z 0000000180001290 f i _nodert_generated.obj
 0001:000002c0       ??1__abi_CapturePtr@Details@Platform@@QEAA@XZ 00000001800012c0 f i _nodert_generated.obj
 0001:00000310       ?__abi_WinRTraiseException@@YAXJ@Z 0000000180001310 f i _nodert_generated.obj
 0001:00000400       ?__abi_winrt_ptrto_string_ctor@@YAPEAXPE$ADVString@Platform@@@Z 0000000180001400 f i _nodert_generated.obj
 0001:00000430       ??3@YAXPEAX0@Z             0000000180001430 f i _nodert_generated.obj
 0001:00000430       _guard_check_icall_nop     0000000180001430 f i MSVCRT:guard_support.obj
 0001:00000430       ?PlacementFree@Heap@Details@Platform@@SAXPEAX0@Z 0000000180001430 f i _nodert_generated.obj
 0001:00000430       ?_Doraise@exception@stdext@@MEBAXXZ 0000000180001430 f i _nodert_generated.obj
 0001:00000440       ?__abi_QueryInterface@__abi_FTMWeakRefData@@QEAAJAEAVGuid@Platform@@PEAPEAX@Z 0000000180001440 f i _nodert_generated.obj
 0001:00000510       ??0String@Platform@@QE$AAA@PEB_W@Z 0000000180001510 f i _nodert_generated.obj
 0001:00000570       ??0exception@stdext@@QEAA@AEBV01@@Z 0000000180001570 f i _nodert_generated.obj
 0001:00000590       ?what@exception@stdext@@UEBAPEBDXZ 0000000180001590 f i _nodert_generated.obj
 0001:000005b0       ?_Raise@exception@stdext@@QEBAXXZ 00000001800015b0 f i _nodert_generated.obj
 0001:000005f0       ??_Ginvalid_operation@Concurrency@@UEAAPEAXI@Z 00000001800015f0 f i _nodert_generated.obj
 0001:000005f0       ??_Eexception@stdext@@UEAAPEAXI@Z 00000001800015f0 f i * CIL library *:* CIL module *
 0001:000005f0       ??_Eruntime_error@std@@UEAAPEAXI@Z 00000001800015f0 f i * CIL library *:* CIL module *
 0001:000005f0       ??_Gruntime_error@std@@UEAAPEAXI@Z 00000001800015f0 f i _nodert_generated.obj
 0001:000005f0       ??_Einvalid_operation@Concurrency@@UEAAPEAXI@Z 00000001800015f0 f i * CIL library *:* CIL module *
 0001:000005f0       ??_Etask_canceled@Concurrency@@UEAAPEAXI@Z 00000001800015f0 f i * CIL library *:* CIL module *
 0001:000005f0       ??_Gexception@stdext@@UEAAPEAXI@Z 00000001800015f0 f i _nodert_generated.obj
 0001:000005f0       ??_Gtask_canceled@Concurrency@@UEAAPEAXI@Z 00000001800015f0 f i _nodert_generated.obj
 0001:00000620       ??1exception_ptr@std@@QEAA@XZ 0000000180001620 f i _nodert_generated.obj
 0001:00000630       ?_Current_exception@exception_ptr@std@@SA?AV12@XZ 0000000180001630 f i _nodert_generated.obj
 0001:00000660       ?_Copy_exception@exception_ptr@std@@SA?AV12@PEAXPEBX@Z 0000000180001660 f i _nodert_generated.obj
 0001:000006d0       ?current_exception@std@@YA?AVexception_ptr@1@XZ 00000001800016d0 f i _nodert_generated.obj
 0001:000006f0       ?_Doraise@runtime_error@std@@MEBAXXZ 00000001800016f0 f i _nodert_generated.obj
 0001:00000710       ??1task_canceled@Concurrency@@UEAA@XZ 0000000180001710 f i _nodert_generated.obj
 0001:00000710       ??1runtime_error@std@@UEAA@XZ 0000000180001710 f i _nodert_generated.obj
 0001:00000710       ??1invalid_operation@Concurrency@@UEAA@XZ 0000000180001710 f i _nodert_generated.obj
 0001:00000990       ?New@?$Factory@VFunctionTemplate@v8@@@imp@Nan@@SA?AV?$Local@VFunctionTemplate@v8@@@v8@@P6AXAEBV?$FunctionCallbackInfo@VValue@v8@@@3@@ZV?$Local@VValue@v8@@@5@V?$Local@VSignature@v8@@@5@@Z 0000000180001990 f i _nodert_generated.obj
 0001:00000b30       ??1EscapableHandleScope@Nan@@QEAA@XZ 0000000180001b30 f i _nodert_generated.obj
 0001:00000b30       ??1HandleScope@Nan@@QEAA@XZ 0000000180001b30 f i _nodert_generated.obj
 0001:00000b40       ?SetPrototypeMethod@Nan@@YAXV?$Local@VFunctionTemplate@v8@@@v8@@PEBDP6AXAEBV?$FunctionCallbackInfo@VValue@v8@@@1@@Z@Z 0000000180001b40 f i _nodert_generated.obj
 0001:00000c50       ?SetAccessor@Nan@@YAXV?$Local@VObjectTemplate@v8@@@v8@@V?$Local@VString@v8@@@3@P6AX1AEBV?$PropertyCallbackInfo@VValue@v8@@@1@@ZP6AX1V?$Local@VValue@v8@@@3@AEBV?$PropertyCallbackInfo@X@1@@Z4W4AccessControl@3@W4PropertyAttribute@3@V?$Local@VAccessorSignature@v8@@@3@@Z 0000000180001c50 f i _nodert_generated.obj
 0001:00000da0       ?SetAccessor@Nan@@YA_NV?$Local@VObject@v8@@@v8@@V?$Local@VString@v8@@@3@P6AX1AEBV?$PropertyCallbackInfo@VValue@v8@@@1@@ZP6AX1V?$Local@VValue@v8@@@3@AEBV?$PropertyCallbackInfo@X@1@@Z4W4AccessControl@3@W4PropertyAttribute@3@@Z 0000000180001da0 f i _nodert_generated.obj
 0001:00000f20       ?SetIndexedPropertyHandler@Nan@@YAXV?$Local@VObjectTemplate@v8@@@v8@@P6AXIAEBV?$PropertyCallbackInfo@VValue@v8@@@1@@ZP6AXIV?$Local@VValue@v8@@@3@1@ZP6AXIAEBV?$PropertyCallbackInfo@VInteger@v8@@@1@@ZP6AXIAEBV?$PropertyCallbackInfo@VBoolean@v8@@@1@@ZP6AXAEBV?$PropertyCallbackInfo@VArray@v8@@@1@@Z3@Z 0000000180001f20 f i _nodert_generated.obj
 0001:00001080       ??1ObjectWrap@Nan@@UEAA@XZ 0000000180002080 f i _nodert_generated.obj
 0001:00001100       ?Wrap@ObjectWrap@Nan@@IEAAXV?$Local@VObject@v8@@@v8@@@Z 0000000180002100 f i _nodert_generated.obj
 0001:000011e0       ?Ref@ObjectWrap@Nan@@MEAAXXZ 00000001800021e0 f i _nodert_generated.obj
 0001:00001220       ?Unref@ObjectWrap@Nan@@MEAAXXZ 0000000180002220 f i _nodert_generated.obj
 0001:000012d0       ?WeakCallback@ObjectWrap@Nan@@CAXAEBV?$WeakCallbackInfo@VObjectWrap@Nan@@@v8@@@Z 00000001800022d0 f i _nodert_generated.obj
 0001:00001360       ??_GObjectWrap@Nan@@UEAAPEAXI@Z 0000000180002360 f i _nodert_generated.obj
 0001:00001360       ??_EObjectWrap@Nan@@UEAAPEAXI@Z 0000000180002360 f i * CIL library *:* CIL module *
 0001:000013a0       ??1_Ref_count_base@std@@UEAA@XZ 00000001800023a0 f i _nodert_generated.obj
 0001:000013b0       ?_Get_deleter@_Ref_count_base@std@@UEBAPEAXAEBVtype_info@@@Z 00000001800023b0 f i _nodert_generated.obj
 0001:000013b0       __scrt_stub_for_is_c_termination_complete 00000001800023b0 f i MSVCRT:ucrt_stubs.obj
 0001:000013b0       _is_c_termination_complete 00000001800023b0 f i MSVCRT:ucrt_stubs.obj
 0001:000013c0       ??_E_Ref_count_base@std@@UEAAPEAXI@Z 00000001800023c0 f i * CIL library *:* CIL module *
 0001:000013c0       ??_G_Ref_count_base@std@@UEAAPEAXI@Z 00000001800023c0 f i _nodert_generated.obj
 0001:000013f0       ??0scheduler_ptr@Concurrency@@QEAA@V?$shared_ptr@Uscheduler_interface@Concurrency@@@std@@@Z 00000001800023f0 f i _nodert_generated.obj
 0001:00001480       ?_Callback@_PPLTaskChore@_DefaultPPLTaskScheduler@details@Concurrency@@CAXPEAX@Z 0000000180002480 f i _nodert_generated.obj
 0001:000014c0       ?schedule@_DefaultPPLTaskScheduler@details@Concurrency@@UEAAXP6AXPEAX@Z0@Z 00000001800024c0 f i _nodert_generated.obj
 0001:00001570       ?get_ambient_scheduler@Concurrency@@YAAEBV?$shared_ptr@Uscheduler_interface@Concurrency@@@std@@XZ 0000000180002570 f i _nodert_generated.obj
 0001:000015e0       ?_Destroy@_RefCounter@details@Concurrency@@MEAAXXZ 00000001800025e0 f i _nodert_generated.obj
 0001:00001600       ??_E_RefCounter@details@Concurrency@@UEAAPEAXI@Z 0000000180002600 f i * CIL library *:* CIL module *
 0001:00001600       ??_G_RefCounter@details@Concurrency@@UEAAPEAXI@Z 0000000180002600 f i _nodert_generated.obj
 0001:00001630       ?_Invoke@_CancellationTokenRegistration@details@Concurrency@@AEAAXXZ 0000000180002630 f i _nodert_generated.obj
 0001:00001720       ??_G_CancellationTokenRegistration@details@Concurrency@@MEAAPEAXI@Z 0000000180002720 f i _nodert_generated.obj
 0001:00001720       ??_E_CancellationTokenRegistration@details@Concurrency@@MEAAPEAXI@Z 0000000180002720 f i * CIL library *:* CIL module *
 0001:00001780       ?_RegisterCallback@_CancellationTokenState@details@Concurrency@@QEAAXPEAV_CancellationTokenRegistration@23@@Z 0000000180002780 f i _nodert_generated.obj
 0001:00001850       ?_DeregisterCallback@_CancellationTokenState@details@Concurrency@@QEAAXPEAV_CancellationTokenRegistration@23@@Z 0000000180002850 f i _nodert_generated.obj
 0001:000019f0       ?none@cancellation_token@Concurrency@@SA?AV12@XZ 00000001800029f0 f i _nodert_generated.obj
 0001:00001a00       ??1cancellation_token@Concurrency@@QEAA@XZ 0000000180002a00 f i _nodert_generated.obj
 0001:00001a60       ??1_TaskProcHandle@details@Concurrency@@UEAA@XZ 0000000180002a60 f i _nodert_generated.obj
 0001:00001a70       ?_RunChoreBridge@_TaskProcHandle@details@Concurrency@@SAXPEAX@Z 0000000180002a70 f i _nodert_generated.obj
 0001:00001ab0       ??_G_TaskProcHandle@details@Concurrency@@UEAAPEAXI@Z 0000000180002ab0 f i _nodert_generated.obj
 0001:00001ab0       ??_E_TaskProcHandle@details@Concurrency@@UEAAPEAXI@Z 0000000180002ab0 f i * CIL library *:* CIL module *
 0001:00001ae0       ?WaitUntilStateChangedTo@_TaskCollectionBaseImpl@details@Concurrency@@IEAAXW4_TaskCollectionState@123@@Z 0000000180002ae0 f i _nodert_generated.obj
 0001:00001b70       ??0_TaskCollectionBaseImpl@details@Concurrency@@QEAA@Uscheduler_ptr@2@@Z 0000000180002b70 f i _nodert_generated.obj
 0001:00001c30       ?_Complete@_TaskCollectionBaseImpl@details@Concurrency@@QEAAXXZ 0000000180002c30 f i _nodert_generated.obj
 0001:00001ca0       ?_GetScheduler@_TaskCollectionBaseImpl@details@Concurrency@@QEBA?AUscheduler_ptr@3@XZ 0000000180002ca0 f i _nodert_generated.obj
 0001:00001d00       ?_RunTask@_TaskCollectionBaseImpl@details@Concurrency@@SAXP6AXPEAX@Z0W4_TaskInliningMode@23@@Z 0000000180002d00 f i _nodert_generated.obj
 0001:00001dd0       ??1?$task@E@Concurrency@@QEAA@XZ 0000000180002dd0 f i _nodert_generated.obj
 0001:00001dd0       ??1?$task@W4SetImageFeedResult@UserProfile@System@Windows@@@Concurrency@@QEAA@XZ 0000000180002dd0 f i _nodert_generated.obj
 0001:00001dd0       ??1?$task@PE$AAVUri@Foundation@Windows@@@Concurrency@@QEAA@XZ 0000000180002dd0 f i _nodert_generated.obj
 0001:00001dd0       ??1?$task@X@Concurrency@@QEAA@XZ 0000000180002dd0 f i _nodert_generated.obj
 0001:00001dd0       ??1?$task@W4SetAccountPictureResult@UserProfile@System@Windows@@@Concurrency@@QEAA@XZ 0000000180002dd0 f i _nodert_generated.obj
 0001:00001dd0       ??1scheduler_ptr@Concurrency@@QEAA@XZ 0000000180002dd0 f i _nodert_generated.obj
 0001:00001dd0       ??1?$task@PE$AAVString@Platform@@@Concurrency@@QEAA@XZ 0000000180002dd0 f i _nodert_generated.obj
 0001:00001dd0       ??1?$task@_N@Concurrency@@QEAA@XZ 0000000180002dd0 f i _nodert_generated.obj
 0001:00001e30       ?_NoCallOnDefaultTask_ErrorImpl@_DefaultTaskHelper@details@Concurrency@@SAXXZ 0000000180002e30 f i _nodert_generated.obj
 0001:00001e60       ?_CaptureSingleFrameCallstack@_TaskCreationCallstack@details@Concurrency@@SA?AV123@PEAX@Z 0000000180002e60 f i _nodert_generated.obj
 0001:00001e80       ??1_TaskCreationCallstack@details@Concurrency@@QEAA@XZ 0000000180002e80 f i _nodert_generated.obj
 0001:00001ec0       ?_Bridge@_TaskProcThunk@details@Concurrency@@SAXPEAX@Z 0000000180002ec0 f i _nodert_generated.obj
 0001:00001f20       ??1_Holder@_TaskProcThunk@details@Concurrency@@QEAA@XZ 0000000180002f20 f i _nodert_generated.obj
 0001:00001f70       ?_CaptureCurrent@_ContextCallback@details@Concurrency@@SA?AV123@XZ 0000000180002f70 f i _nodert_generated.obj
 0001:00001fb0       ??1_ContextCallback@details@Concurrency@@QEAA@XZ 0000000180002fb0 f i _nodert_generated.obj
 0001:00001fd0       ?_CallInContext@_ContextCallback@details@Concurrency@@QEBAXV?$function@$$A6AXXZ@std@@@Z 0000000180002fd0 f i _nodert_generated.obj
 0001:00002060       ??1_ExceptionHolder@details@Concurrency@@QEAA@XZ 0000000180003060 f i _nodert_generated.obj
 0001:000020c0       ?_RethrowUserException@_ExceptionHolder@details@Concurrency@@QEAAXXZ 00000001800030c0 f i _nodert_generated.obj
 0001:00002100       ??0_TaskCreationCallstack@details@Concurrency@@QEAA@AEBV012@@Z 0000000180003100 f i _nodert_generated.obj
 0001:00002190       ??0_IAsyncActionToAsyncOperationConverter@details@Concurrency@@QE$AAA@PE$AAUIAsyncAction@Foundation@Windows@@@Z 0000000180003190 f i _nodert_generated.obj
 0001:00002220       ?GetResults@?Q?$IAsyncOperation@E@Foundation@Windows@@_IAsyncActionToAsyncOperationConverter@details@Concurrency@@UE$AAAEXZ 0000000180003220 f i _nodert_generated.obj
 0001:00002270       ?use_default@task_continuation_context@Concurrency@@SA?AV12@XZ 0000000180003270 f i _nodert_generated.obj
 0001:00002290       ??1task_continuation_context@Concurrency@@QEAA@XZ 0000000180003290 f i _nodert_generated.obj
 0001:000022b0       ??0task_options@Concurrency@@QEAA@XZ 00000001800032b0 f i _nodert_generated.obj
 0001:00002340       ?get_cancellation_token@task_options@Concurrency@@QEBA?AVcancellation_token@2@XZ 0000000180003340 f i _nodert_generated.obj
 0001:00002360       ?get_continuation_context@task_options@Concurrency@@QEBA?AVtask_continuation_context@2@XZ 0000000180003360 f i _nodert_generated.obj
 0001:000023a0       ?get_scheduler@task_options@Concurrency@@QEBA?AUscheduler_ptr@2@XZ 00000001800033a0 f i _nodert_generated.obj
 0001:000023f0       ??1_Internal_task_options@details@Concurrency@@QEAA@XZ 00000001800033f0 f i _nodert_generated.obj
 0001:00002430       ??0_ThenImplOptions@details@Concurrency@@QEAA@PEAV_CancellationTokenState@12@PEBVtask_continuation_context@2@Uscheduler_ptr@2@V_TaskCreationCallstack@12@W4_TaskInliningMode@12@@Z 0000000180003430 f i _nodert_generated.obj
 0001:00002520       ?_CreateOptions@_ThenImplOptions@details@Concurrency@@SA?AU123@AEBVtask_options@3@AEBVtask_continuation_context@3@AEBUscheduler_ptr@3@@Z 0000000180003520 f i _nodert_generated.obj
 0001:00002940       ??1_ThenImplOptions@details@Concurrency@@QEAA@XZ 0000000180003940 f i _nodert_generated.obj
 0001:000029c0       ??_G_ContinuationTaskHandleBase@details@Concurrency@@UEAAPEAXI@Z 00000001800039c0 f i _nodert_generated.obj
 0001:000029c0       ??_E_ContinuationTaskHandleBase@details@Concurrency@@UEAAPEAXI@Z 00000001800039c0 f i * CIL library *:* CIL module *
 0001:00002a20       ??1_TaskWorkItemRAIILogger@details@Concurrency@@QEAA@XZ 0000000180003a20 f i _nodert_generated.obj
 0001:00002a40       ??0_Task_impl_base@details@Concurrency@@QEAA@PEAV_CancellationTokenState@12@Uscheduler_ptr@2@@Z 0000000180003a40 f i _nodert_generated.obj
 0001:00002b60       ??1_Task_impl_base@details@Concurrency@@UEAA@XZ 0000000180003b60 f i _nodert_generated.obj
 0001:00002c50       ?_Wait@_Task_impl_base@details@Concurrency@@QEAA?AW4task_group_status@3@XZ 0000000180003c50 f i _nodert_generated.obj
 0001:00002cf0       ?_CancelWithException@_Task_impl_base@details@Concurrency@@QEAA_NAEBVexception_ptr@std@@@Z 0000000180003cf0 f i _nodert_generated.obj
 0001:00002db0       ?_RegisterCancellation@_Task_impl_base@details@Concurrency@@QEAAXV?$weak_ptr@U_Task_impl_base@details@Concurrency@@@std@@@Z 0000000180003db0 f i _nodert_generated.obj
 0001:00002f00       ?_DeregisterCancellation@_Task_impl_base@details@Concurrency@@QEAAXXZ 0000000180003f00 f i _nodert_generated.obj
 0001:00002f80       ?_GetTaskCreationCallstack@_Task_impl_base@details@Concurrency@@QEAA?AV_TaskCreationCallstack@23@XZ 0000000180003f80 f i _nodert_generated.obj
 0001:00002fb0       ?_ScheduleTask@_Task_impl_base@details@Concurrency@@QEAAXPEAU_TaskProcHandle@23@W4_TaskInliningMode@23@@Z 0000000180003fb0 f i _nodert_generated.obj
 0001:00003020       ?_ScheduleContinuationTask@_Task_impl_base@details@Concurrency@@QEAAXPEAU_ContinuationTaskHandleBase@23@@Z 0000000180004020 f i _nodert_generated.obj
 0001:00003250       ?_ScheduleContinuation@_Task_impl_base@details@Concurrency@@QEAAXPEAU_ContinuationTaskHandleBase@23@@Z 0000000180004250 f i _nodert_generated.obj
 0001:00003440       ?_RunTaskContinuations@_Task_impl_base@details@Concurrency@@QEAAXXZ 0000000180004440 f i _nodert_generated.obj
 0001:00003540       ?_GetScheduler@_Task_impl_base@details@Concurrency@@QEBA?AUscheduler_ptr@3@XZ 0000000180004540 f i _nodert_generated.obj
 0001:00003560       ??_E_Task_impl_base@details@Concurrency@@UEAAPEAXI@Z 0000000180004560 f i * CIL library *:* CIL module *
 0001:00003560       ??_G_Task_impl_base@details@Concurrency@@UEAAPEAXI@Z 0000000180004560 f i _nodert_generated.obj
 0001:000035a0       ??1_TaskCollectionBaseImpl@details@Concurrency@@QEAA@XZ 00000001800045a0 f i _nodert_generated.obj
 0001:00003650       ?_CreateImpl@?$task@X@Concurrency@@QEAAXPEAV_CancellationTokenState@details@2@Uscheduler_ptr@2@@Z 0000000180004650 f i _nodert_generated.obj
 0001:00003700       ??1task_options@Concurrency@@QEAA@XZ 0000000180004700 f i _nodert_generated.obj
 0001:000037d0       ?IsOpaqueWrapper@OpaqueWrapper@NodeRT@@SA_NV?$Local@VValue@v8@@@v8@@@Z 00000001800047d0 f i _nodert_generated.obj
 0001:000038c0       ??1WrapperBase@NodeRT@@UEAA@XZ 00000001800048c0 f i _nodert_generated.obj
 0001:000038d0       ?NewAsyncToken@TokenData@Async@NodeUtils@@SAPEAUuv_async_s@@V?$Local@VFunction@v8@@@v8@@V?$Local@VValue@v8@@@6@@Z 00000001800048d0 f i _nodert_generated.obj
 0001:000039a0       ?RunOnMain@Async@NodeUtils@@SAXV?$function@$$A6AXXZ@std@@@Z 00000001800049a0 f i _nodert_generated.obj
 0001:00003b20       ?RunCallbackOnMain@Async@NodeUtils@@SAXPEAUuv_async_s@@V?$function@$$A6AXV?$function@$$A6AXHPEAV?$Local@VValue@v8@@@v8@@@Z@std@@@Z@std@@@Z 0000000180004b20 f i _nodert_generated.obj
 0001:00003eb0       ?CreateCallbackData@Async@NodeUtils@@CA?AV?$Local@VObject@v8@@@v8@@V?$Local@VFunction@v8@@@4@V?$Local@VValue@v8@@@4@@Z 0000000180004eb0 f i _nodert_generated.obj
 0001:00004190       ?AyncCloseCb@Async@NodeUtils@@CAXPEAUuv_handle_s@@@Z 0000000180005190 f i _nodert_generated.obj
 0001:000041a0       ?AsyncCb@Async@NodeUtils@@CAXPEAUuv_async_s@@@Z 00000001800051a0 f i _nodert_generated.obj
 0001:00004200       ?GetMainThreadId@Async@NodeUtils@@CAIXZ 0000000180005200 f i _nodert_generated.obj
 0001:00004310       ??_GTokenData@Async@NodeUtils@@UEAAPEAXI@Z 0000000180005310 f i _nodert_generated.obj
 0001:00004310       ??_ETokenData@Async@NodeUtils@@UEAAPEAXI@Z 0000000180005310 f i * CIL library *:* CIL module *
 0001:00004f10       ?Init@AdvertisingManagerForUser@UserProfile@System@Windows@NodeRT@@SAXV?$Local@VObject@v8@@@v8@@@Z 0000000180005f10 f i _nodert_generated.obj
 0001:000051c0       ?GetObjectInstance@OpaqueWrapper@NodeRT@@UEBAPE$AAVObject@Platform@@XZ 00000001800061c0 f i OpaqueWrapper.obj
 0001:000051c0       ?GetObjectInstance@?$MapViewWrapper@PE$AAVString@Platform@@PE$AAVObject@2@@Collections@NodeRT@@UEBAPE$AAVObject@Platform@@XZ 00000001800061c0 f i _nodert_generated.obj
 0001:000051c0       ?GetObjectInstance@UserInformation@UserProfile@System@Windows@NodeRT@@UEBAPE$AAVObject@Platform@@XZ 00000001800061c0 f i _nodert_generated.obj
 0001:000051c0       ?GetObjectInstance@?$IteratorWrapper@PE$AAU?$IKeyValuePair@PE$AAVString@Platform@@PE$AAVObject@2@@Collections@Foundation@Windows@@@Collections@NodeRT@@UEBAPE$AAVObject@Platform@@XZ 00000001800061c0 f i _nodert_generated.obj
 0001:000051c0       ?GetObjectInstance@AdvertisingManager@UserProfile@System@Windows@NodeRT@@UEBAPE$AAVObject@Platform@@XZ 00000001800061c0 f i _nodert_generated.obj
 0001:000051c0       ?GetObjectInstance@LockScreen@UserProfile@System@Windows@NodeRT@@UEBAPE$AAVObject@Platform@@XZ 00000001800061c0 f i _nodert_generated.obj
 0001:000051c0       ?GetObjectInstance@FirstSignInSettings@UserProfile@System@Windows@NodeRT@@UEBAPE$AAVObject@Platform@@XZ 00000001800061c0 f i _nodert_generated.obj
 0001:000051c0       ?GetObjectInstance@?$IteratorWrapper@PE$AAVString@Platform@@@Collections@NodeRT@@UEBAPE$AAVObject@Platform@@XZ 00000001800061c0 f i _nodert_generated.obj
 0001:000051c0       ?GetObjectInstance@?$KeyValuePairWrapper@PE$AAVString@Platform@@PE$AAVObject@2@@Collections@NodeRT@@UEBAPE$AAVObject@Platform@@XZ 00000001800061c0 f i _nodert_generated.obj
 0001:000051c0       ?GetObjectInstance@AdvertisingManagerForUser@UserProfile@System@Windows@NodeRT@@UEBAPE$AAVObject@Platform@@XZ 00000001800061c0 f i _nodert_generated.obj
 0001:000051c0       ?GetObjectInstance@?$VectorViewWrapper@PE$AAVString@Platform@@@Collections@NodeRT@@UEBAPE$AAVObject@Platform@@XZ 00000001800061c0 f i _nodert_generated.obj
 0001:000051c0       ?GetObjectInstance@UserProfilePersonalizationSettings@UserProfile@System@Windows@NodeRT@@UEBAPE$AAVObject@Platform@@XZ 00000001800061c0 f i _nodert_generated.obj
 0001:000051c0       ?GetObjectInstance@GlobalizationPreferences@UserProfile@System@Windows@NodeRT@@UEBAPE$AAVObject@Platform@@XZ 00000001800061c0 f i _nodert_generated.obj
 0001:000051f0       ?New@AdvertisingManagerForUser@UserProfile@System@Windows@NodeRT@@CAXAEBV?$FunctionCallbackInfo@VValue@v8@@@Nan@@@Z 00000001800061f0 f i _nodert_generated.obj
 0001:00005720       ?CastFrom@AdvertisingManagerForUser@UserProfile@System@Windows@NodeRT@@CAXAEBV?$FunctionCallbackInfo@VValue@v8@@@Nan@@@Z 0000000180006720 f i _nodert_generated.obj
 0001:00005910       ?AdvertisingIdGetter@AdvertisingManagerForUser@UserProfile@System@Windows@NodeRT@@CAXV?$Local@VString@v8@@@v8@@AEBV?$PropertyCallbackInfo@VValue@v8@@@Nan@@@Z 0000000180006910 f i _nodert_generated.obj
 0001:00005a50       ?UserGetter@AdvertisingManagerForUser@UserProfile@System@Windows@NodeRT@@CAXV?$Local@VString@v8@@@v8@@AEBV?$PropertyCallbackInfo@VValue@v8@@@Nan@@@Z 0000000180006a50 f i _nodert_generated.obj
 0001:00005b70       ??_GUserInformation@UserProfile@System@Windows@NodeRT@@UEAAPEAXI@Z 0000000180006b70 f i _nodert_generated.obj
 0001:00005b70       ??_GAdvertisingManagerForUser@UserProfile@System@Windows@NodeRT@@UEAAPEAXI@Z 0000000180006b70 f i _nodert_generated.obj
 0001:00005b70       ??_ELockScreen@UserProfile@System@Windows@NodeRT@@UEAAPEAXI@Z 0000000180006b70 f i * CIL library *:* CIL module *
 0001:00005b70       ??_GUserProfilePersonalizationSettings@UserProfile@System@Windows@NodeRT@@UEAAPEAXI@Z 0000000180006b70 f i _nodert_generated.obj
 0001:00005b70       ??_EUserProfilePersonalizationSettings@UserProfile@System@Windows@NodeRT@@UEAAPEAXI@Z 0000000180006b70 f i * CIL library *:* CIL module *
 0001:00005b70       ??_EUserInformation@UserProfile@System@Windows@NodeRT@@UEAAPEAXI@Z 0000000180006b70 f i * CIL library *:* CIL module *
 0001:00005b70       ??_GFirstSignInSettings@UserProfile@System@Windows@NodeRT@@UEAAPEAXI@Z 0000000180006b70 f i _nodert_generated.obj
 0001:00005b70       ??_GGlobalizationPreferences@UserProfile@System@Windows@NodeRT@@UEAAPEAXI@Z 0000000180006b70 f i _nodert_generated.obj
 0001:00005b70       ??_GOpaqueWrapper@NodeRT@@UEAAPEAXI@Z 0000000180006b70 f i OpaqueWrapper.obj
 0001:00005b70       ??_EOpaqueWrapper@NodeRT@@UEAAPEAXI@Z 0000000180006b70 f i * CIL library *:* CIL module *
 0001:00005b70       ??_GAdvertisingManager@UserProfile@System@Windows@NodeRT@@UEAAPEAXI@Z 0000000180006b70 f i _nodert_generated.obj
 0001:00005b70       ??_EGlobalizationPreferences@UserProfile@System@Windows@NodeRT@@UEAAPEAXI@Z 0000000180006b70 f i * CIL library *:* CIL module *
 0001:00005b70       ??_GLockScreen@UserProfile@System@Windows@NodeRT@@UEAAPEAXI@Z 0000000180006b70 f i _nodert_generated.obj
 0001:00005b70       ??_EAdvertisingManager@UserProfile@System@Windows@NodeRT@@UEAAPEAXI@Z 0000000180006b70 f i * CIL library *:* CIL module *
 0001:00005b70       ??_EFirstSignInSettings@UserProfile@System@Windows@NodeRT@@UEAAPEAXI@Z 0000000180006b70 f i * CIL library *:* CIL module *
 0001:00005b70       ??_EAdvertisingManagerForUser@UserProfile@System@Windows@NodeRT@@UEAAPEAXI@Z 0000000180006b70 f i * CIL library *:* CIL module *
 0001:00005bd0       ?WrapAdvertisingManagerForUser@UserProfile@System@Windows@NodeRT@@YA?AV?$Local@VValue@v8@@@v8@@PE$AAVAdvertisingManagerForUser@123@@Z 0000000180006bd0 f   _nodert_generated.obj
 0001:00005d30       ?Init@AdvertisingManager@UserProfile@System@Windows@NodeRT@@SAXV?$Local@VObject@v8@@@v8@@@Z 0000000180006d30 f i _nodert_generated.obj
 0001:00005f80       ?New@AdvertisingManager@UserProfile@System@Windows@NodeRT@@CAXAEBV?$FunctionCallbackInfo@VValue@v8@@@Nan@@@Z 0000000180006f80 f i _nodert_generated.obj
 0001:000064b0       ?CastFrom@AdvertisingManager@UserProfile@System@Windows@NodeRT@@CAXAEBV?$FunctionCallbackInfo@VValue@v8@@@Nan@@@Z 00000001800074b0 f i _nodert_generated.obj
 0001:000066a0       ?GetForUser@AdvertisingManager@UserProfile@System@Windows@NodeRT@@CAXAEBV?$FunctionCallbackInfo@VValue@v8@@@Nan@@@Z 00000001800076a0 f i _nodert_generated.obj
 0001:000068d0       ?AdvertisingIdGetter@AdvertisingManager@UserProfile@System@Windows@NodeRT@@CAXV?$Local@VString@v8@@@v8@@AEBV?$PropertyCallbackInfo@VValue@v8@@@Nan@@@Z 00000001800078d0 f i _nodert_generated.obj
 0001:000069f0       ?WrapAdvertisingManager@UserProfile@System@Windows@NodeRT@@YA?AV?$Local@VValue@v8@@@v8@@PE$AAVAdvertisingManager@123@@Z 00000001800079f0 f   _nodert_generated.obj
 0001:00006b50       ?Init@UserProfilePersonalizationSettings@UserProfile@System@Windows@NodeRT@@SAXV?$Local@VObject@v8@@@v8@@@Z 0000000180007b50 f i _nodert_generated.obj
 0001:00006dd0       ?New@UserProfilePersonalizationSettings@UserProfile@System@Windows@NodeRT@@CAXAEBV?$FunctionCallbackInfo@VValue@v8@@@Nan@@@Z 0000000180007dd0 f i _nodert_generated.obj
 0001:00007300       ?CastFrom@UserProfilePersonalizationSettings@UserProfile@System@Windows@NodeRT@@CAXAEBV?$FunctionCallbackInfo@VValue@v8@@@Nan@@@Z 0000000180008300 f i _nodert_generated.obj
 0001:000074f0       ?TrySetLockScreenImageAsync@UserProfilePersonalizationSettings@UserProfile@System@Windows@NodeRT@@CAXAEBV?$FunctionCallbackInfo@VValue@v8@@@Nan@@@Z 00000001800084f0 f i _nodert_generated.obj
 0001:00007b80       ?TrySetWallpaperImageAsync@UserProfilePersonalizationSettings@UserProfile@System@Windows@NodeRT@@CAXAEBV?$FunctionCallbackInfo@VValue@v8@@@Nan@@@Z 0000000180008b80 f i _nodert_generated.obj
 0001:00008050       ?IsSupported@UserProfilePersonalizationSettings@UserProfile@System@Windows@NodeRT@@CAXAEBV?$FunctionCallbackInfo@VValue@v8@@@Nan@@@Z 0000000180009050 f i _nodert_generated.obj
 0001:00008150       ?CurrentGetter@UserProfilePersonalizationSettings@UserProfile@System@Windows@NodeRT@@CAXV?$Local@VString@v8@@@v8@@AEBV?$PropertyCallbackInfo@VValue@v8@@@Nan@@@Z 0000000180009150 f i _nodert_generated.obj
 0001:00008210       ??1TryCatch@Nan@@QEAA@XZ   0000000180009210 f i _nodert_generated.obj
 0001:00008220       ?WrapUserProfilePersonalizationSettings@UserProfile@System@Windows@NodeRT@@YA?AV?$Local@VValue@v8@@@v8@@PE$AAVUserProfilePersonalizationSettings@123@@Z 0000000180009220 f   _nodert_generated.obj
 0001:00008380       ?Init@GlobalizationPreferences@UserProfile@System@Windows@NodeRT@@SAXV?$Local@VObject@v8@@@v8@@@Z 0000000180009380 f i _nodert_generated.obj
 0001:00008730       ?New@GlobalizationPreferences@UserProfile@System@Windows@NodeRT@@CAXAEBV?$FunctionCallbackInfo@VValue@v8@@@Nan@@@Z 0000000180009730 f i _nodert_generated.obj
 0001:00008c60       ?CastFrom@GlobalizationPreferences@UserProfile@System@Windows@NodeRT@@CAXAEBV?$FunctionCallbackInfo@VValue@v8@@@Nan@@@Z 0000000180009c60 f i _nodert_generated.obj
 0001:00008e50       ?CalendarsGetter@GlobalizationPreferences@UserProfile@System@Windows@NodeRT@@CAXV?$Local@VString@v8@@@v8@@AEBV?$PropertyCallbackInfo@VValue@v8@@@Nan@@@Z 0000000180009e50 f i _nodert_generated.obj
 0001:00009010       ?ClocksGetter@GlobalizationPreferences@UserProfile@System@Windows@NodeRT@@CAXV?$Local@VString@v8@@@v8@@AEBV?$PropertyCallbackInfo@VValue@v8@@@Nan@@@Z 000000018000a010 f i _nodert_generated.obj
 0001:000091d0       ?CurrenciesGetter@GlobalizationPreferences@UserProfile@System@Windows@NodeRT@@CAXV?$Local@VString@v8@@@v8@@AEBV?$PropertyCallbackInfo@VValue@v8@@@Nan@@@Z 000000018000a1d0 f i _nodert_generated.obj
 0001:00009390       ?HomeGeographicRegionGetter@GlobalizationPreferences@UserProfile@System@Windows@NodeRT@@CAXV?$Local@VString@v8@@@v8@@AEBV?$PropertyCallbackInfo@VValue@v8@@@Nan@@@Z 000000018000a390 f i _nodert_generated.obj
 0001:000094b0       ?LanguagesGetter@GlobalizationPreferences@UserProfile@System@Windows@NodeRT@@CAXV?$Local@VString@v8@@@v8@@AEBV?$PropertyCallbackInfo@VValue@v8@@@Nan@@@Z 000000018000a4b0 f i _nodert_generated.obj
 0001:00009670       ?WeekStartsOnGetter@GlobalizationPreferences@UserProfile@System@Windows@NodeRT@@CAXV?$Local@VString@v8@@@v8@@AEBV?$PropertyCallbackInfo@VValue@v8@@@Nan@@@Z 000000018000a670 f i _nodert_generated.obj
 0001:00009740       ?WrapGlobalizationPreferences@UserProfile@System@Windows@NodeRT@@YA?AV?$Local@VValue@v8@@@v8@@PE$AAVGlobalizationPreferences@123@@Z 000000018000a740 f   _nodert_generated.obj
 0001:000098a0       ?Init@FirstSignInSettings@UserProfile@System@Windows@NodeRT@@SAXV?$Local@VObject@v8@@@v8@@@Z 000000018000a8a0 f i _nodert_generated.obj
 0001:00009b00       ?New@FirstSignInSettings@UserProfile@System@Windows@NodeRT@@CAXAEBV?$FunctionCallbackInfo@VValue@v8@@@Nan@@@Z 000000018000ab00 f i _nodert_generated.obj
 0001:0000a030       ?CastFrom@FirstSignInSettings@UserProfile@System@Windows@NodeRT@@CAXAEBV?$FunctionCallbackInfo@VValue@v8@@@Nan@@@Z 000000018000b030 f i _nodert_generated.obj
 0001:0000a220       ?Lookup@FirstSignInSettings@UserProfile@System@Windows@NodeRT@@CAXAEBV?$FunctionCallbackInfo@VValue@v8@@@Nan@@@Z 000000018000b220 f i _nodert_generated.obj
 0001:0000a4e0       ?HasKey@FirstSignInSettings@UserProfile@System@Windows@NodeRT@@CAXAEBV?$FunctionCallbackInfo@VValue@v8@@@Nan@@@Z 000000018000b4e0 f i _nodert_generated.obj
 0001:0000a760       ?Split@FirstSignInSettings@UserProfile@System@Windows@NodeRT@@CAXAEBV?$FunctionCallbackInfo@VValue@v8@@@Nan@@@Z 000000018000b760 f i _nodert_generated.obj
 0001:0000ad20       ?First@FirstSignInSettings@UserProfile@System@Windows@NodeRT@@CAXAEBV?$FunctionCallbackInfo@VValue@v8@@@Nan@@@Z 000000018000bd20 f i _nodert_generated.obj
 0001:0000b020       ?GetDefault@FirstSignInSettings@UserProfile@System@Windows@NodeRT@@CAXAEBV?$FunctionCallbackInfo@VValue@v8@@@Nan@@@Z 000000018000c020 f i _nodert_generated.obj
 0001:0000b170       ?WrapFirstSignInSettings@UserProfile@System@Windows@NodeRT@@YA?AV?$Local@VValue@v8@@@v8@@PE$AAVFirstSignInSettings@123@@Z 000000018000c170 f   _nodert_generated.obj
 0001:0000b2d0       ?Init@UserInformation@UserProfile@System@Windows@NodeRT@@SAXV?$Local@VObject@v8@@@v8@@@Z 000000018000c2d0 f i _nodert_generated.obj
 0001:0000beb0       ?New@UserInformation@UserProfile@System@Windows@NodeRT@@CAXAEBV?$FunctionCallbackInfo@VValue@v8@@@Nan@@@Z 000000018000ceb0 f i _nodert_generated.obj
 0001:0000c3e0       ?CastFrom@UserInformation@UserProfile@System@Windows@NodeRT@@CAXAEBV?$FunctionCallbackInfo@VValue@v8@@@Nan@@@Z 000000018000d3e0 f i _nodert_generated.obj
 0001:0000c5d0       ?SetAccountPictureAsync@UserInformation@UserProfile@System@Windows@NodeRT@@CAXAEBV?$FunctionCallbackInfo@VValue@v8@@@Nan@@@Z 000000018000d5d0 f i _nodert_generated.obj
 0001:0000cc10       ?SetAccountPicturesAsync@UserInformation@UserProfile@System@Windows@NodeRT@@CAXAEBV?$FunctionCallbackInfo@VValue@v8@@@Nan@@@Z 000000018000dc10 f i _nodert_generated.obj
 0001:0000d250       ?SetAccountPictureFromStreamAsync@UserInformation@UserProfile@System@Windows@NodeRT@@CAXAEBV?$FunctionCallbackInfo@VValue@v8@@@Nan@@@Z 000000018000e250 f i _nodert_generated.obj
 0001:0000d6f0       ?SetAccountPicturesFromStreamsAsync@UserInformation@UserProfile@System@Windows@NodeRT@@CAXAEBV?$FunctionCallbackInfo@VValue@v8@@@Nan@@@Z 000000018000e6f0 f i _nodert_generated.obj
 0001:0000dd30       ?GetDisplayNameAsync@UserInformation@UserProfile@System@Windows@NodeRT@@CAXAEBV?$FunctionCallbackInfo@VValue@v8@@@Nan@@@Z 000000018000ed30 f i _nodert_generated.obj
 0001:0000e2e0       ?GetFirstNameAsync@UserInformation@UserProfile@System@Windows@NodeRT@@CAXAEBV?$FunctionCallbackInfo@VValue@v8@@@Nan@@@Z 000000018000f2e0 f i _nodert_generated.obj
 0001:0000e710       ?GetLastNameAsync@UserInformation@UserProfile@System@Windows@NodeRT@@CAXAEBV?$FunctionCallbackInfo@VValue@v8@@@Nan@@@Z 000000018000f710 f i _nodert_generated.obj
 0001:0000eb40       ?GetPrincipalNameAsync@UserInformation@UserProfile@System@Windows@NodeRT@@CAXAEBV?$FunctionCallbackInfo@VValue@v8@@@Nan@@@Z 000000018000fb40 f i _nodert_generated.obj
 0001:0000ef70       ?GetSessionInitiationProtocolUriAsync@UserInformation@UserProfile@System@Windows@NodeRT@@CAXAEBV?$FunctionCallbackInfo@VValue@v8@@@Nan@@@Z 000000018000ff70 f i _nodert_generated.obj
 0001:0000f4a0       ?GetDomainNameAsync@UserInformation@UserProfile@System@Windows@NodeRT@@CAXAEBV?$FunctionCallbackInfo@VValue@v8@@@Nan@@@Z 00000001800104a0 f i _nodert_generated.obj
 0001:0000f8d0       ?GetAccountPicture@UserInformation@UserProfile@System@Windows@NodeRT@@CAXAEBV?$FunctionCallbackInfo@VValue@v8@@@Nan@@@Z 00000001800108d0 f i _nodert_generated.obj
 0001:0000fab0       ?AccountPictureChangeEnabledGetter@UserInformation@UserProfile@System@Windows@NodeRT@@CAXV?$Local@VString@v8@@@v8@@AEBV?$PropertyCallbackInfo@VValue@v8@@@Nan@@@Z 0000000180010ab0 f i _nodert_generated.obj
 0001:0000fb40       ?NameAccessAllowedGetter@UserInformation@UserProfile@System@Windows@NodeRT@@CAXV?$Local@VString@v8@@@v8@@AEBV?$PropertyCallbackInfo@VValue@v8@@@Nan@@@Z 0000000180010b40 f i _nodert_generated.obj
 0001:0000fbd0       ?AddListener@UserInformation@UserProfile@System@Windows@NodeRT@@CAXAEBV?$FunctionCallbackInfo@VValue@v8@@@Nan@@@Z 0000000180010bd0 f i _nodert_generated.obj
 0001:00010470       ?RemoveListener@UserInformation@UserProfile@System@Windows@NodeRT@@CAXAEBV?$FunctionCallbackInfo@VValue@v8@@@Nan@@@Z 0000000180011470 f i _nodert_generated.obj
 0001:00010b20       ?WrapUserInformation@UserProfile@System@Windows@NodeRT@@YA?AV?$Local@VValue@v8@@@v8@@PE$AAVUserInformation@123@@Z 0000000180011b20 f   _nodert_generated.obj
 0001:00010c80       ?Init@LockScreen@UserProfile@System@Windows@NodeRT@@SAXV?$Local@VObject@v8@@@v8@@@Z 0000000180011c80 f i _nodert_generated.obj
 0001:00011110       ?New@LockScreen@UserProfile@System@Windows@NodeRT@@CAXAEBV?$FunctionCallbackInfo@VValue@v8@@@Nan@@@Z 0000000180012110 f i _nodert_generated.obj
 0001:00011640       ?CastFrom@LockScreen@UserProfile@System@Windows@NodeRT@@CAXAEBV?$FunctionCallbackInfo@VValue@v8@@@Nan@@@Z 0000000180012640 f i _nodert_generated.obj
 0001:00011830       ?RequestSetImageFeedAsync@LockScreen@UserProfile@System@Windows@NodeRT@@CAXAEBV?$FunctionCallbackInfo@VValue@v8@@@Nan@@@Z 0000000180012830 f i _nodert_generated.obj
 0001:00011cd0       ?SetImageFileAsync@LockScreen@UserProfile@System@Windows@NodeRT@@CAXAEBV?$FunctionCallbackInfo@VValue@v8@@@Nan@@@Z 0000000180012cd0 f i _nodert_generated.obj
 0001:000121f0       ?SetImageStreamAsync@LockScreen@UserProfile@System@Windows@NodeRT@@CAXAEBV?$FunctionCallbackInfo@VValue@v8@@@Nan@@@Z 00000001800131f0 f i _nodert_generated.obj
 0001:00012690       ?TryRemoveImageFeed@LockScreen@UserProfile@System@Windows@NodeRT@@CAXAEBV?$FunctionCallbackInfo@VValue@v8@@@Nan@@@Z 0000000180013690 f i _nodert_generated.obj
 0001:00012790       ?GetImageStream@LockScreen@UserProfile@System@Windows@NodeRT@@CAXAEBV?$FunctionCallbackInfo@VValue@v8@@@Nan@@@Z 0000000180013790 f i _nodert_generated.obj
 0001:000128f0       ?OriginalImageFileGetter@LockScreen@UserProfile@System@Windows@NodeRT@@CAXV?$Local@VString@v8@@@v8@@AEBV?$PropertyCallbackInfo@VValue@v8@@@Nan@@@Z 00000001800138f0 f i _nodert_generated.obj
 0001:000129c0       ?WrapLockScreen@UserProfile@System@Windows@NodeRT@@YA?AV?$Local@VValue@v8@@@v8@@PE$AAVLockScreen@123@@Z 00000001800139c0 f   _nodert_generated.obj
 0001:00012b20       ?init@@YAXV?$Local@VObject@v8@@@v8@@@Z 0000000180013b20 f   _nodert_generated.obj
 0001:00012bc0       ?__abi_Windows_Foundation_IAsyncInfo____abi_get_ErrorCode@?QIAsyncInfo@Foundation@Windows@@?$_AsyncInfoImpl@PE$AAUIAsyncAction@Foundation@Windows@@VAsyncActionCompletedHandler@23@E@details@Concurrency@@UE$AAAJPEAVHResult@23@@Z 0000000180013bc0 f i _nodert_generated.obj
 0001:00012c40       ?__abi_Windows_Foundation_IAsyncInfo____abi_get_Id@?QIAsyncInfo@Foundation@Windows@@?$_AsyncInfoImpl@PE$AAUIAsyncAction@Foundation@Windows@@VAsyncActionCompletedHandler@23@E@details@Concurrency@@UE$AAAJPEAI@Z 0000000180013c40 f i _nodert_generated.obj
 0001:00012c90       ?__abi_Windows_Foundation_IAsyncInfo____abi_get_Status@?QIAsyncInfo@Foundation@Windows@@?$_AsyncInfoImpl@PE$AAUIAsyncAction@Foundation@Windows@@VAsyncActionCompletedHandler@23@E@details@Concurrency@@UE$AAAJPEAW4AsyncStatus@23@@Z 0000000180013c90 f i _nodert_generated.obj
 0001:00012ce0       ?__abi_Windows_Foundation_IAsyncInfo____abi_Cancel@?QIAsyncInfo@Foundation@Windows@@?$_AsyncInfoImpl@PE$AAUIAsyncAction@Foundation@Windows@@VAsyncActionCompletedHandler@23@E@details@Concurrency@@UE$AAAJXZ 0000000180013ce0 f i _nodert_generated.obj
 0001:00012d20       ?__abi_Windows_Foundation_IAsyncInfo____abi_Close@?QIAsyncInfo@Foundation@Windows@@?$_AsyncInfoImpl@PE$AAUIAsyncAction@Foundation@Windows@@VAsyncActionCompletedHandler@23@E@details@Concurrency@@UE$AAAJXZ 0000000180013d20 f i _nodert_generated.obj
 0001:00012d60       ?__abi_Windows_Foundation_?$IAsyncOperation@E____abi_get_Completed@?Q?$IAsyncOperation@E@Foundation@Windows@@?$_AsyncInfoImpl@PE$AAUIAsyncAction@Foundation@Windows@@VAsyncActionCompletedHandler@23@E@details@Concurrency@@UE$AAAJPEAPE$AAV?$AsyncOperationCompletedHandler@E@23@@Z 0000000180013d60 f i _nodert_generated.obj
 0001:00012db0       ?__abi_Windows_Foundation_?$IAsyncOperation@E____abi_set_Completed@?Q?$IAsyncOperation@E@Foundation@Windows@@?$_AsyncInfoImpl@PE$AAUIAsyncAction@Foundation@Windows@@VAsyncActionCompletedHandler@23@E@details@Concurrency@@UE$AAAJPE$AAV?$AsyncOperationCompletedHandler@E@23@@Z 0000000180013db0 f i _nodert_generated.obj
 0001:00012df0       ?__abi_Windows_Foundation_?$IAsyncOperation@E____abi_GetResults@?Q?$IAsyncOperation@E@Foundation@Windows@@?$_AsyncInfoImpl@PE$AAUIAsyncAction@Foundation@Windows@@VAsyncActionCompletedHandler@23@E@details@Concurrency@@UE$AAAJPEAE@Z 0000000180013df0 f i _nodert_generated.obj
 0001:00012e40       ?__abi_Platform_Details_IWeakReferenceSource____abi_GetWeakReference@?QIWeakReferenceSource@Details@Platform@@_IAsyncActionToAsyncOperationConverter@details@Concurrency@@UE$AAAJPEAPE$AAUIWeakReference@23@@Z 0000000180013e40 f i _nodert_generated.obj
 0001:00012ec0       ?__abi_QueryInterface@?QObject@Platform@@_IAsyncActionToAsyncOperationConverter@details@Concurrency@@UE$AAAJAEAVGuid@2@PEAPEAX@Z 0000000180013ec0 f i _nodert_generated.obj
 0001:000130b0       ?__abi_AddRef@?QObject@Platform@@_IAsyncActionToAsyncOperationConverter@details@Concurrency@@UE$AAAKXZ 00000001800140b0 f i _nodert_generated.obj
 0001:000130e0       ?__abi_Release@?QObject@Platform@@_IAsyncActionToAsyncOperationConverter@details@Concurrency@@UE$AAAKXZ 00000001800140e0 f i _nodert_generated.obj
 0001:000131a0       ?__abi_GetIids@?QObject@Platform@@_IAsyncActionToAsyncOperationConverter@details@Concurrency@@UE$AAAJPEAKPEAPEAVGuid@2@@Z 00000001800141a0 f i _nodert_generated.obj
 0001:00013210       ?__abi_GetRuntimeClassName@?QObject@Platform@@_IAsyncActionToAsyncOperationConverter@details@Concurrency@@UE$AAAJPEAPEAUHSTRING__@@@Z 0000000180014210 f i _nodert_generated.obj
 0001:00013230       ?__abi_GetTrustLevel@?$EventHandler@PE$AAVObject@Platform@@@Foundation@Windows@@UE$AAAJPEAW4__abi_TrustLevel@@@Z 0000000180014230 f i _nodert_generated.obj
 0001:00013230       ?__abi_GetTrustLevel@?QObject@Platform@@_IAsyncActionToAsyncOperationConverter@details@Concurrency@@UE$AAAJPEAW4__abi_TrustLevel@@@Z 0000000180014230 f i _nodert_generated.obj
 0001:00013230       ?__abi_GetTrustLevel@?$AsyncOperationCompletedHandler@W4SetImageFeedResult@UserProfile@System@Windows@@@Foundation@Windows@@UE$AAAJPEAW4__abi_TrustLevel@@@Z 0000000180014230 f i _nodert_generated.obj
 0001:00013230       ?__abi_GetTrustLevel@AsyncActionCompletedHandler@Foundation@Windows@@UE$AAAJPEAW4__abi_TrustLevel@@@Z 0000000180014230 f i _nodert_generated.obj
 0001:00013230       ?__abi_GetTrustLevel@?$AsyncOperationCompletedHandler@E@Foundation@Windows@@UE$AAAJPEAW4__abi_TrustLevel@@@Z 0000000180014230 f i _nodert_generated.obj
 0001:00013230       ?__abi_GetTrustLevel@?$AsyncOperationCompletedHandler@_N@Foundation@Windows@@UE$AAAJPEAW4__abi_TrustLevel@@@Z 0000000180014230 f i _nodert_generated.obj
 0001:00013230       ?__abi_GetTrustLevel@?$AsyncOperationCompletedHandler@PE$AAVString@Platform@@@Foundation@Windows@@UE$AAAJPEAW4__abi_TrustLevel@@@Z 0000000180014230 f i _nodert_generated.obj
 0001:00013230       ?__abi_GetTrustLevel@?$AsyncOperationCompletedHandler@W4SetAccountPictureResult@UserProfile@System@Windows@@@Foundation@Windows@@UE$AAAJPEAW4__abi_TrustLevel@@@Z 0000000180014230 f i _nodert_generated.obj
 0001:00013230       ?__abi_GetTrustLevel@?$AsyncOperationCompletedHandler@PE$AAVUri@Foundation@Windows@@@Foundation@Windows@@UE$AAAJPEAW4__abi_TrustLevel@@@Z 0000000180014230 f i _nodert_generated.obj
 0001:00013240       ?GetWeakReference@?QIWeakReferenceSource@Details@Platform@@_IAsyncActionToAsyncOperationConverter@details@Concurrency@@UE$AAAPE$AAUIWeakReference@23@XZ 0000000180014240 f i _nodert_generated.obj
 0001:00013280       ?GetForUser@AdvertisingManager@UserProfile@System@Windows@@SAPE$AAVAdvertisingManagerForUser@234@PE$AAVUser@34@@Z 0000000180014280 f i _nodert_generated.obj
 0001:00013360       ?get@AdvertisingId@AdvertisingManager@UserProfile@System@Windows@@SAPE$AAVString@Platform@@XZ 0000000180014360 f i _nodert_generated.obj
 0001:00013440       ?get@Current@UserProfilePersonalizationSettings@UserProfile@System@Windows@@SAPE$AAV2345@XZ 0000000180014440 f i _nodert_generated.obj
 0001:00013510       ?IsSupported@UserProfilePersonalizationSettings@UserProfile@System@Windows@@SA_NXZ 0000000180014510 f i _nodert_generated.obj
 0001:000135a0       ?get@Calendars@GlobalizationPreferences@UserProfile@System@Windows@@SAPE$AAU?$IVectorView@PE$AAVString@Platform@@@Collections@Foundation@5@XZ 00000001800145a0 f i _nodert_generated.obj
 0001:00013670       ?get@Clocks@GlobalizationPreferences@UserProfile@System@Windows@@SAPE$AAU?$IVectorView@PE$AAVString@Platform@@@Collections@Foundation@5@XZ 0000000180014670 f i _nodert_generated.obj
 0001:00013740       ?get@Currencies@GlobalizationPreferences@UserProfile@System@Windows@@SAPE$AAU?$IVectorView@PE$AAVString@Platform@@@Collections@Foundation@5@XZ 0000000180014740 f i _nodert_generated.obj
 0001:00013810       ?get@HomeGeographicRegion@GlobalizationPreferences@UserProfile@System@Windows@@SAPE$AAVString@Platform@@XZ 0000000180014810 f i _nodert_generated.obj
 0001:000138f0       ?get@Languages@GlobalizationPreferences@UserProfile@System@Windows@@SAPE$AAU?$IVectorView@PE$AAVString@Platform@@@Collections@Foundation@5@XZ 00000001800148f0 f i _nodert_generated.obj
 0001:000139c0       ?get@WeekStartsOn@GlobalizationPreferences@UserProfile@System@Windows@@SA?AW4DayOfWeek@Globalization@5@XZ 00000001800149c0 f i _nodert_generated.obj
 0001:00013a50       ?GetDefault@FirstSignInSettings@UserProfile@System@Windows@@SAPE$AAV1234@XZ 0000000180014a50 f i _nodert_generated.obj
 0001:00013b20       ?__abi_Windows_Foundation_?$EventHandler@PE$AAVObject@Platform@@___abi_IDelegate____abi_Invoke@?Q__abi_IDelegate@?$EventHandler@PE$AAVObject@Platform@@@Foundation@Windows@@234@UE$AAAJPE$AAVObject@Platform@@0@Z 0000000180014b20 f i _nodert_generated.obj
 0001:00013b70       ?__abi_QueryInterface@?$EventHandler@PE$AAVObject@Platform@@@Foundation@Windows@@UE$AAAJAEAVGuid@Platform@@PEAPEAX@Z 0000000180014b70 f i _nodert_generated.obj
 0001:00013ca0       ?__abi_AddRef@AsyncActionCompletedHandler@Foundation@Windows@@UE$AAAKXZ 0000000180014ca0 f i _nodert_generated.obj
 0001:00013ca0       ?__abi_AddRef@?$AsyncOperationCompletedHandler@E@Foundation@Windows@@UE$AAAKXZ 0000000180014ca0 f i _nodert_generated.obj
 0001:00013ca0       ?__abi_AddRef@?$AsyncOperationCompletedHandler@_N@Foundation@Windows@@UE$AAAKXZ 0000000180014ca0 f i _nodert_generated.obj
 0001:00013ca0       ?__abi_AddRef@?$AsyncOperationCompletedHandler@W4SetAccountPictureResult@UserProfile@System@Windows@@@Foundation@Windows@@UE$AAAKXZ 0000000180014ca0 f i _nodert_generated.obj
 0001:00013ca0       ?__abi_AddRef@?$AsyncOperationCompletedHandler@PE$AAVString@Platform@@@Foundation@Windows@@UE$AAAKXZ 0000000180014ca0 f i _nodert_generated.obj
 0001:00013ca0       ?__abi_AddRef@?$EventHandler@PE$AAVObject@Platform@@@Foundation@Windows@@UE$AAAKXZ 0000000180014ca0 f i _nodert_generated.obj
 0001:00013ca0       ?__abi_AddRef@?$AsyncOperationCompletedHandler@W4SetImageFeedResult@UserProfile@System@Windows@@@Foundation@Windows@@UE$AAAKXZ 0000000180014ca0 f i _nodert_generated.obj
 0001:00013ca0       ?__abi_AddRef@?$AsyncOperationCompletedHandler@PE$AAVUri@Foundation@Windows@@@Foundation@Windows@@UE$AAAKXZ 0000000180014ca0 f i _nodert_generated.obj
 0001:00013cd0       ?__abi_Release@?$AsyncOperationCompletedHandler@_N@Foundation@Windows@@UE$AAAKXZ 0000000180014cd0 f i _nodert_generated.obj
 0001:00013cd0       ?__abi_Release@?$EventHandler@PE$AAVObject@Platform@@@Foundation@Windows@@UE$AAAKXZ 0000000180014cd0 f i _nodert_generated.obj
 0001:00013cd0       ?__abi_Release@?$AsyncOperationCompletedHandler@W4SetImageFeedResult@UserProfile@System@Windows@@@Foundation@Windows@@UE$AAAKXZ 0000000180014cd0 f i _nodert_generated.obj
 0001:00013cd0       ?__abi_Release@?$AsyncOperationCompletedHandler@W4SetAccountPictureResult@UserProfile@System@Windows@@@Foundation@Windows@@UE$AAAKXZ 0000000180014cd0 f i _nodert_generated.obj
 0001:00013cd0       ?__abi_Release@AsyncActionCompletedHandler@Foundation@Windows@@UE$AAAKXZ 0000000180014cd0 f i _nodert_generated.obj
 0001:00013cd0       ?__abi_Release@?$AsyncOperationCompletedHandler@E@Foundation@Windows@@UE$AAAKXZ 0000000180014cd0 f i _nodert_generated.obj
 0001:00013cd0       ?__abi_Release@?$AsyncOperationCompletedHandler@PE$AAVUri@Foundation@Windows@@@Foundation@Windows@@UE$AAAKXZ 0000000180014cd0 f i _nodert_generated.obj
 0001:00013cd0       ?__abi_Release@?$AsyncOperationCompletedHandler@PE$AAVString@Platform@@@Foundation@Windows@@UE$AAAKXZ 0000000180014cd0 f i _nodert_generated.obj
 0001:00013d70       ?__abi_GetIids@?$EventHandler@PE$AAVObject@Platform@@@Foundation@Windows@@UE$AAAJPEAKPEAPEAVGuid@Platform@@@Z 0000000180014d70 f i _nodert_generated.obj
 0001:00013dd0       ?__abi_GetRuntimeClassName@?$EventHandler@PE$AAVObject@Platform@@@Foundation@Windows@@UE$AAAJPEAPEAUHSTRING__@@@Z 0000000180014dd0 f i _nodert_generated.obj
 0001:00013df0       ?Invoke@?$EventHandler@PE$AAVObject@Platform@@@Foundation@Windows@@UE$AAAXPE$AAVObject@Platform@@0@Z 0000000180014df0 f i _nodert_generated.obj
 0001:00013e30       ?get@AccountPictureChangeEnabled@UserInformation@UserProfile@System@Windows@@SA_NXZ 0000000180014e30 f i _nodert_generated.obj
 0001:00013ec0       ?get@NameAccessAllowed@UserInformation@UserProfile@System@Windows@@SA_NXZ 0000000180014ec0 f i _nodert_generated.obj
 0001:00013f50       ?add@AccountPictureChanged@UserInformation@UserProfile@System@Windows@@SA?AVEventRegistrationToken@Foundation@5@PE$AAV?$EventHandler@PE$AAVObject@Platform@@@75@@Z 0000000180014f50 f i _nodert_generated.obj
 0001:00013ff0       ?remove@AccountPictureChanged@UserInformation@UserProfile@System@Windows@@SAXVEventRegistrationToken@Foundation@5@@Z 0000000180014ff0 f i _nodert_generated.obj
 0001:00014080       ?GetAccountPicture@UserInformation@UserProfile@System@Windows@@SAPE$AAUIStorageFile@Storage@4@W4AccountPictureKind@234@@Z 0000000180015080 f i _nodert_generated.obj
 0001:00014160       ?SetAccountPictureAsync@UserInformation@UserProfile@System@Windows@@SAPE$AAU?$IAsyncOperation@W4SetAccountPictureResult@UserProfile@System@Windows@@@Foundation@4@PE$AAUIStorageFile@Storage@4@@Z 0000000180015160 f i _nodert_generated.obj
 0001:00014240       ?SetAccountPicturesAsync@UserInformation@UserProfile@System@Windows@@SAPE$AAU?$IAsyncOperation@W4SetAccountPictureResult@UserProfile@System@Windows@@@Foundation@4@PE$AAUIStorageFile@Storage@4@00@Z 0000000180015240 f i _nodert_generated.obj
 0001:00014330       ?SetAccountPictureFromStreamAsync@UserInformation@UserProfile@System@Windows@@SAPE$AAU?$IAsyncOperation@W4SetAccountPictureResult@UserProfile@System@Windows@@@Foundation@4@PE$AAUIRandomAccessStream@Streams@Storage@4@@Z 0000000180015330 f i _nodert_generated.obj
 0001:00014410       ?SetAccountPicturesFromStreamsAsync@UserInformation@UserProfile@System@Windows@@SAPE$AAU?$IAsyncOperation@W4SetAccountPictureResult@UserProfile@System@Windows@@@Foundation@4@PE$AAUIRandomAccessStream@Streams@Storage@4@00@Z 0000000180015410 f i _nodert_generated.obj
 0001:00014500       ?GetDisplayNameAsync@UserInformation@UserProfile@System@Windows@@SAPE$AAU?$IAsyncOperation@PE$AAVString@Platform@@@Foundation@4@XZ 0000000180015500 f i _nodert_generated.obj
 0001:000145d0       ?GetFirstNameAsync@UserInformation@UserProfile@System@Windows@@SAPE$AAU?$IAsyncOperation@PE$AAVString@Platform@@@Foundation@4@XZ 00000001800155d0 f i _nodert_generated.obj
 0001:000146b0       ?GetLastNameAsync@UserInformation@UserProfile@System@Windows@@SAPE$AAU?$IAsyncOperation@PE$AAVString@Platform@@@Foundation@4@XZ 00000001800156b0 f i _nodert_generated.obj
 0001:00014790       ?GetPrincipalNameAsync@UserInformation@UserProfile@System@Windows@@SAPE$AAU?$IAsyncOperation@PE$AAVString@Platform@@@Foundation@4@XZ 0000000180015790 f i _nodert_generated.obj
 0001:00014870       ?GetSessionInitiationProtocolUriAsync@UserInformation@UserProfile@System@Windows@@SAPE$AAU?$IAsyncOperation@PE$AAVUri@Foundation@Windows@@@Foundation@4@XZ 0000000180015870 f i _nodert_generated.obj
 0001:00014950       ?GetDomainNameAsync@UserInformation@UserProfile@System@Windows@@SAPE$AAU?$IAsyncOperation@PE$AAVString@Platform@@@Foundation@4@XZ 0000000180015950 f i _nodert_generated.obj
 0001:00014a30       ?CreateInt64@PropertyValue@Foundation@Windows@@SAPE$AAVObject@Platform@@_J@Z 0000000180015a30 f i _nodert_generated.obj
 0001:00014b10       ?get@OriginalImageFile@LockScreen@UserProfile@System@Windows@@SAPE$AAVUri@Foundation@5@XZ 0000000180015b10 f i _nodert_generated.obj
 0001:00014be0       ?GetImageStream@LockScreen@UserProfile@System@Windows@@SAPE$AAUIRandomAccessStream@Streams@Storage@4@XZ 0000000180015be0 f i _nodert_generated.obj
 0001:00014cb0       ?SetImageFileAsync@LockScreen@UserProfile@System@Windows@@SAPE$AAUIAsyncAction@Foundation@4@PE$AAUIStorageFile@Storage@4@@Z 0000000180015cb0 f i _nodert_generated.obj
 0001:00014d90       ?SetImageStreamAsync@LockScreen@UserProfile@System@Windows@@SAPE$AAUIAsyncAction@Foundation@4@PE$AAUIRandomAccessStream@Streams@Storage@4@@Z 0000000180015d90 f i _nodert_generated.obj
 0001:00014e70       ?RequestSetImageFeedAsync@LockScreen@UserProfile@System@Windows@@SAPE$AAU?$IAsyncOperation@W4SetImageFeedResult@UserProfile@System@Windows@@@Foundation@4@PE$AAVUri@64@@Z 0000000180015e70 f i _nodert_generated.obj
 0001:00014f50       ?TryRemoveImageFeed@LockScreen@UserProfile@System@Windows@@SA_NXZ 0000000180015f50 f i _nodert_generated.obj
 0001:00014fe0       ??1?$shared_ptr@U?$_Task_impl@W4SetAccountPictureResult@UserProfile@System@Windows@@@details@Concurrency@@@std@@QEAA@XZ 0000000180015fe0 f i _nodert_generated.obj
 0001:00014fe0       ??1?$shared_ptr@U_ExceptionHolder@details@Concurrency@@@std@@QEAA@XZ 0000000180015fe0 f i _nodert_generated.obj
 0001:00014fe0       ??1?$shared_ptr@U?$_Task_impl@W4SetImageFeedResult@UserProfile@System@Windows@@@details@Concurrency@@@std@@QEAA@XZ 0000000180015fe0 f i _nodert_generated.obj
 0001:00014fe0       ??1?$shared_ptr@V?$Persistent@VObject@v8@@V?$NonCopyablePersistentTraits@VObject@v8@@@2@@Nan@@@std@@QEAA@XZ 0000000180015fe0 f i _nodert_generated.obj
 0001:00014fe0       ??1?$shared_ptr@U_Task_impl_base@details@Concurrency@@@std@@QEAA@XZ 0000000180015fe0 f i _nodert_generated.obj
 0001:00014fe0       ??1?$shared_ptr@U?$_Task_impl@PE$AAVUri@Foundation@Windows@@@details@Concurrency@@@std@@QEAA@XZ 0000000180015fe0 f i _nodert_generated.obj
 0001:00014fe0       ??1?$shared_ptr@Uscheduler_interface@Concurrency@@@std@@QEAA@XZ 0000000180015fe0 f i _nodert_generated.obj
 0001:00014fe0       ??1?$shared_ptr@U?$_Task_impl@E@details@Concurrency@@@std@@QEAA@XZ 0000000180015fe0 f i _nodert_generated.obj
 0001:00014fe0       ??1?$shared_ptr@U?$_Task_impl@PE$AAVString@Platform@@@details@Concurrency@@@std@@QEAA@XZ 0000000180015fe0 f i _nodert_generated.obj
 0001:00014fe0       ??1?$shared_ptr@U?$_Task_impl@_N@details@Concurrency@@@std@@QEAA@XZ 0000000180015fe0 f i _nodert_generated.obj
 0001:00015030       ?get@?$task@PE$AAVUri@Foundation@Windows@@@Concurrency@@QEBAPE$AAVUri@Foundation@Windows@@XZ 0000000180016030 f i _nodert_generated.obj
 0001:000150c0       ?get@?$task@PE$AAVString@Platform@@@Concurrency@@QEBAPE$AAVString@Platform@@XZ 00000001800160c0 f i _nodert_generated.obj
 0001:00015190       ?CreateKeyValuePairWrapper@?$KeyValuePairWrapper@PE$AAVString@Platform@@PE$AAVObject@2@@Collections@NodeRT@@SA?AV?$Local@VValue@v8@@@v8@@PE$AAU?$IKeyValuePair@PE$AAVString@Platform@@PE$AAVObject@2@@2Foundation@Windows@@AEBV?$function@$$A6A?AV?$Local@VValue@v8@@@v8@@PE$AAVString@Platform@@@Z@std@@AEBV?$function@$$A6A?AV?$Local@VValue@v8@@@v8@@PE$AAVObject@Platform@@@Z@std@@@Z 0000000180016190 f i _nodert_generated.obj
 0001:00015320       ??1?$function@$$A6A?AV?$Local@VValue@v8@@@v8@@PE$AAVObject@Platform@@@Z@std@@QEAA@XZ 0000000180016320 f i _nodert_generated.obj
 0001:00015320       ??1?$function@$$A6AXV?$task@_N@Concurrency@@@Z@std@@QEAA@XZ 0000000180016320 f i _nodert_generated.obj
 0001:00015320       ??1?$function@$$A6AXV?$task@W4SetAccountPictureResult@UserProfile@System@Windows@@@Concurrency@@@Z@std@@QEAA@XZ 0000000180016320 f i _nodert_generated.obj
 0001:00015320       ??1?$_Func_class@XV?$task@W4SetAccountPictureResult@UserProfile@System@Windows@@@Concurrency@@@std@@QEAA@XZ 0000000180016320 f i _nodert_generated.obj
 0001:00015320       ??1?$_Func_class@XV?$function@$$A6AXHPEAV?$Local@VValue@v8@@@v8@@@Z@std@@@std@@QEAA@XZ 0000000180016320 f i _nodert_generated.obj
 0001:00015320       ??1?$function@$$A6AXXZ@std@@QEAA@XZ 0000000180016320 f i _nodert_generated.obj
 0001:00015320       ??1?$_Func_class@XV?$task@_N@Concurrency@@@std@@QEAA@XZ 0000000180016320 f i _nodert_generated.obj
 0001:00015320       ??1?$_Func_class@XV?$task@PE$AAVString@Platform@@@Concurrency@@@std@@QEAA@XZ 0000000180016320 f i _nodert_generated.obj
 0001:00015320       ??1?$function@$$A6AXV?$task@PE$AAVString@Platform@@@Concurrency@@@Z@std@@QEAA@XZ 0000000180016320 f i _nodert_generated.obj
 0001:00015320       ??1?$_Func_class@XV?$task@X@Concurrency@@@std@@QEAA@XZ 0000000180016320 f i _nodert_generated.obj
 0001:00015320       ??1?$function@$$A6APE$AAVString@Platform@@V?$Local@VValue@v8@@@v8@@@Z@std@@QEAA@XZ 0000000180016320 f i _nodert_generated.obj
 0001:00015320       ??1?$function@$$A6A?AV?$Local@VValue@v8@@@v8@@PE$AAVString@Platform@@@Z@std@@QEAA@XZ 0000000180016320 f i _nodert_generated.obj
 0001:00015320       ??1?$_Func_class@_NV?$Local@VValue@v8@@@v8@@@std@@QEAA@XZ 0000000180016320 f i _nodert_generated.obj
 0001:00015320       ??1?$_Func_class@PE$AAVString@Platform@@V?$Local@VValue@v8@@@v8@@@std@@QEAA@XZ 0000000180016320 f i _nodert_generated.obj
 0001:00015320       ??1?$_Func_class@V?$Local@VValue@v8@@@v8@@PE$AAVString@Platform@@@std@@QEAA@XZ 0000000180016320 f i _nodert_generated.obj
 0001:00015320       ??1?$function@$$A6A_NV?$Local@VValue@v8@@@v8@@@Z@std@@QEAA@XZ 0000000180016320 f i _nodert_generated.obj
 0001:00015320       ??1?$_Func_class@V?$Local@VValue@v8@@@v8@@PE$AAVObject@Platform@@@std@@QEAA@XZ 0000000180016320 f i _nodert_generated.obj
 0001:00015320       ??1?$_Func_class@X$$V@std@@QEAA@XZ 0000000180016320 f i _nodert_generated.obj
 0001:00015320       ??1?$function@$$A6AXV?$task@X@Concurrency@@@Z@std@@QEAA@XZ 0000000180016320 f i _nodert_generated.obj
 0001:00015320       ??1?$function@$$A6A?AV?$Local@VValue@v8@@@v8@@PE$AAU?$IKeyValuePair@PE$AAVString@Platform@@PE$AAVObject@2@@Collections@Foundation@Windows@@@Z@std@@QEAA@XZ 0000000180016320 f i _nodert_generated.obj
 0001:00015320       ??1?$function@$$A6AXV?$function@$$A6AXHPEAV?$Local@VValue@v8@@@v8@@@Z@std@@@Z@std@@QEAA@XZ 0000000180016320 f i _nodert_generated.obj
 0001:00015320       ??1?$_Func_class@V?$Local@VValue@v8@@@v8@@PE$AAU?$IKeyValuePair@PE$AAVString@Platform@@PE$AAVObject@2@@Collections@Foundation@Windows@@@std@@QEAA@XZ 0000000180016320 f i _nodert_generated.obj
 0001:00015350       ?CreateIteratorWrapper@?$IteratorWrapper@PE$AAU?$IKeyValuePair@PE$AAVString@Platform@@PE$AAVObject@2@@Collections@Foundation@Windows@@@Collections@NodeRT@@SA?AV?$Local@VValue@v8@@@v8@@PE$AAU?$IIterator@PE$AAU?$IKeyValuePair@PE$AAVString@Platform@@PE$AAVObject@2@@Collections@Foundation@Windows@@@2Foundation@Windows@@AEBV?$function@$$A6A?AV?$Local@VValue@v8@@@v8@@PE$AAU?$IKeyValuePair@PE$AAVString@Platform@@PE$AAVObject@2@@Collections@Foundation@Windows@@@Z@std@@@Z 0000000180016350 f i _nodert_generated.obj
 0001:000154e0       ?CreateMapViewWrapper@?$MapViewWrapper@PE$AAVString@Platform@@PE$AAVObject@2@@Collections@NodeRT@@SA?AV?$Local@VValue@v8@@@v8@@PE$AAU?$IMapView@PE$AAVString@Platform@@PE$AAVObject@2@@2Foundation@Windows@@AEBV?$function@$$A6A?AV?$Local@VValue@v8@@@v8@@PE$AAVString@Platform@@@Z@std@@AEBV?$function@$$A6A_NV?$Local@VValue@v8@@@v8@@@Z@std@@AEBV?$function@$$A6APE$AAVString@Platform@@V?$Local@VValue@v8@@@v8@@@Z@std@@AEBV?$function@$$A6A?AV?$Local@VValue@v8@@@v8@@PE$AAVObject@Platform@@@Z@std@@@Z 00000001800164e0 f i _nodert_generated.obj
 0001:00015690       ?CreateVectorViewWrapper@?$VectorViewWrapper@PE$AAVString@Platform@@@Collections@NodeRT@@SA?AV?$Local@VValue@v8@@@v8@@PE$AAU?$IVectorView@PE$AAVString@Platform@@@2Foundation@Windows@@AEBV?$function@$$A6A?AV?$Local@VValue@v8@@@v8@@PE$AAVString@Platform@@@Z@std@@AEBV?$function@$$A6A_NV?$Local@VValue@v8@@@v8@@@Z@std@@AEBV?$function@$$A6APE$AAVString@Platform@@V?$Local@VValue@v8@@@v8@@@Z@std@@@Z 0000000180016690 f i _nodert_generated.obj
 0001:000158b0       ??1?$unique_ptr@$$BY0A@V?$Local@VValue@v8@@@v8@@U?$default_delete@$$BY0A@V?$Local@VValue@v8@@@v8@@@std@@@std@@QEAA@XZ 00000001800168b0 f i _nodert_generated.obj
 0001:000158c0       ??1?$function@$$A6AXHPEAV?$Local@VValue@v8@@@v8@@@Z@std@@QEAA@XZ 00000001800168c0 f i _nodert_generated.obj
 0001:00015900       ?_CreateImpl@?$task@E@Concurrency@@QEAAXPEAV_CancellationTokenState@details@2@Uscheduler_ptr@2@@Z 0000000180016900 f i _nodert_generated.obj
 0001:00015a40       ?_CancelAndRunContinuations@?$_Task_impl@E@details@Concurrency@@UEAA_N_N00AEBV?$shared_ptr@U_ExceptionHolder@details@Concurrency@@@std@@@Z 0000000180016a40 f i _nodert_generated.obj
 0001:00015cc0       ?_Exec@?$_CancellationTokenCallback@V<lambda_be3e5d9dce35d2c8dbfa8485373731d5>@@@details@Concurrency@@MEAAXXZ 0000000180016cc0 f i _nodert_generated.obj
 0001:00015cd0       ??0?$_CancellationTokenCallback@V<lambda_be3e5d9dce35d2c8dbfa8485373731d5>@@@details@Concurrency@@QEAA@AEBV<lambda_be3e5d9dce35d2c8dbfa8485373731d5>@@@Z 0000000180016cd0 f i _nodert_generated.obj
 0001:00015da0       ?lock@?$weak_ptr@U_Task_impl_base@details@Concurrency@@@std@@QEBA?AV?$shared_ptr@U_Task_impl_base@details@Concurrency@@@2@XZ 0000000180016da0 f i _nodert_generated.obj
 0001:00015e00       ??1?$weak_ptr@U_Task_impl_base@details@Concurrency@@@std@@QEAA@XZ 0000000180016e00 f i _nodert_generated.obj
 0001:00015e20       ?set@?Q?$IAsyncOperation@E@Foundation@Windows@@Completed@?$_AsyncInfoImpl@PE$AAUIAsyncAction@Foundation@Windows@@VAsyncActionCompletedHandler@23@E@details@Concurrency@@UE$AAAXPE$AAV?$AsyncOperationCompletedHandler@E@23@@Z 0000000180016e20 f i _nodert_generated.obj
 0001:00015ef0       ?__abi_Windows_Foundation_AsyncActionCompletedHandler___abi_IDelegate____abi_Invoke@?Q__abi_IDelegate@AsyncActionCompletedHandler@Foundation@Windows@@234@UE$AAAJPE$AAUIAsyncAction@34@W4AsyncStatus@34@@Z 0000000180016ef0 f i _nodert_generated.obj
 0001:00015f40       ?__abi_QueryInterface@AsyncActionCompletedHandler@Foundation@Windows@@UE$AAAJAEAVGuid@Platform@@PEAPEAX@Z 0000000180016f40 f i _nodert_generated.obj
 0001:00016070       ?__abi_GetIids@AsyncActionCompletedHandler@Foundation@Windows@@UE$AAAJPEAKPEAPEAVGuid@Platform@@@Z 0000000180017070 f i _nodert_generated.obj
 0001:000160d0       ?__abi_GetRuntimeClassName@AsyncActionCompletedHandler@Foundation@Windows@@UE$AAAJPEAPEAUHSTRING__@@@Z 00000001800170d0 f i _nodert_generated.obj
 0001:000160f0       ?Invoke@AsyncActionCompletedHandler@Foundation@Windows@@UE$AAAXPE$AAUIAsyncAction@23@W4AsyncStatus@23@@Z 00000001800170f0 f i _nodert_generated.obj
 0001:00016130       ?__abi_Windows_Foundation_?$AsyncOperationCompletedHandler@E___abi_IDelegate____abi_Invoke@?Q__abi_IDelegate@?$AsyncOperationCompletedHandler@E@Foundation@Windows@@234@UE$AAAJPE$AAU?$IAsyncOperation@E@34@W4AsyncStatus@34@@Z 0000000180017130 f i _nodert_generated.obj
 0001:00016150       ?__abi_QueryInterface@?$AsyncOperationCompletedHandler@E@Foundation@Windows@@UE$AAAJAEAVGuid@Platform@@PEAPEAX@Z 0000000180017150 f i _nodert_generated.obj
 0001:00016280       ?__abi_GetIids@?$AsyncOperationCompletedHandler@W4SetAccountPictureResult@UserProfile@System@Windows@@@Foundation@Windows@@UE$AAAJPEAKPEAPEAVGuid@Platform@@@Z 0000000180017280 f i _nodert_generated.obj
 0001:00016280       ?__abi_GetIids@?$AsyncOperationCompletedHandler@PE$AAVString@Platform@@@Foundation@Windows@@UE$AAAJPEAKPEAPEAVGuid@Platform@@@Z 0000000180017280 f i _nodert_generated.obj
 0001:00016280       ?__abi_GetIids@?$AsyncOperationCompletedHandler@PE$AAVUri@Foundation@Windows@@@Foundation@Windows@@UE$AAAJPEAKPEAPEAVGuid@Platform@@@Z 0000000180017280 f i _nodert_generated.obj
 0001:00016280       ?__abi_GetIids@?$AsyncOperationCompletedHandler@W4SetImageFeedResult@UserProfile@System@Windows@@@Foundation@Windows@@UE$AAAJPEAKPEAPEAVGuid@Platform@@@Z 0000000180017280 f i _nodert_generated.obj
 0001:00016280       ?__abi_GetIids@?$AsyncOperationCompletedHandler@_N@Foundation@Windows@@UE$AAAJPEAKPEAPEAVGuid@Platform@@@Z 0000000180017280 f i _nodert_generated.obj
 0001:00016280       ?__abi_GetIids@?$AsyncOperationCompletedHandler@E@Foundation@Windows@@UE$AAAJPEAKPEAPEAVGuid@Platform@@@Z 0000000180017280 f i _nodert_generated.obj
 0001:000162e0       ?__abi_GetRuntimeClassName@?$AsyncOperationCompletedHandler@E@Foundation@Windows@@UE$AAAJPEAPEAUHSTRING__@@@Z 00000001800172e0 f i _nodert_generated.obj
 0001:00016300       ?Invoke@?$AsyncOperationCompletedHandler@E@Foundation@Windows@@UE$AAAXPE$AAU?$IAsyncOperation@E@23@W4AsyncStatus@23@@Z 0000000180017300 f i _nodert_generated.obj
 0001:00016340       ?get@?Q?$IAsyncOperation@E@Foundation@Windows@@Completed@?$_AsyncInfoImpl@PE$AAUIAsyncAction@Foundation@Windows@@VAsyncActionCompletedHandler@23@E@details@Concurrency@@UE$AAAPE$AAV?$AsyncOperationCompletedHandler@E@23@XZ 0000000180017340 f i _nodert_generated.obj
 0001:00016370       ?get@?QIAsyncInfo@Foundation@Windows@@Status@?$_AsyncInfoImpl@PE$AAUIAsyncAction@Foundation@Windows@@VAsyncActionCompletedHandler@23@E@details@Concurrency@@UE$AAA?AW4AsyncStatus@23@XZ 0000000180017370 f i _nodert_generated.obj
 0001:00016410       ?get@?QIAsyncInfo@Foundation@Windows@@Id@?$_AsyncInfoImpl@PE$AAUIAsyncAction@Foundation@Windows@@VAsyncActionCompletedHandler@23@E@details@Concurrency@@UE$AAAIXZ 0000000180017410 f i _nodert_generated.obj
 0001:000164b0       ?get@?QIAsyncInfo@Foundation@Windows@@ErrorCode@?$_AsyncInfoImpl@PE$AAUIAsyncAction@Foundation@Windows@@VAsyncActionCompletedHandler@23@E@details@Concurrency@@UE$AAA?AVHResult@23@XZ 00000001800174b0 f i _nodert_generated.obj
 0001:00016540       ?Get@?$Agile@PE$AAUIAsyncAction@Foundation@Windows@@$00@Platform@@QEBAPE$AAUIAsyncAction@Foundation@Windows@@XZ 0000000180017540 f i _nodert_generated.obj
 0001:000166a0       ??1?$Agile@PE$AAUIAsyncAction@Foundation@Windows@@$00@Platform@@QEAA@XZ 00000001800176a0 f i _nodert_generated.obj
 0001:000166e0       ?GetResults@?Q?$IAsyncOperation@E@Foundation@Windows@@?$_AsyncInfoImpl@PE$AAUIAsyncAction@Foundation@Windows@@VAsyncActionCompletedHandler@23@E@details@Concurrency@@UE$AAAEXZ 00000001800176e0 f i _nodert_generated.obj
 0001:00016710       ?Close@?QIAsyncInfo@Foundation@Windows@@?$_AsyncInfoImpl@PE$AAUIAsyncAction@Foundation@Windows@@VAsyncActionCompletedHandler@23@E@details@Concurrency@@UE$AAAXXZ 0000000180017710 f i _nodert_generated.obj
 0001:000167b0       ?Cancel@?QIAsyncInfo@Foundation@Windows@@?$_AsyncInfoImpl@PE$AAUIAsyncAction@Foundation@Windows@@VAsyncActionCompletedHandler@23@E@details@Concurrency@@UE$AAAXXZ 00000001800177b0 f i _nodert_generated.obj
 0001:00016840       ??0?$_AsyncInfoImpl@PE$AAUIAsyncAction@Foundation@Windows@@VAsyncActionCompletedHandler@23@E@details@Concurrency@@QE$AAA@PE$AAUIAsyncAction@Foundation@Windows@@@Z 0000000180017840 f i _nodert_generated.obj
 0001:000168c0       ??R?$_Func_class@X$$V@std@@QEBAXXZ 00000001800178c0 f i _nodert_generated.obj
 0001:000168e0       ??4?$vector@PEAXV?$allocator@PEAX@std@@@std@@QEAAAEAV01@AEBV01@@Z 00000001800178e0 f i _nodert_generated.obj
 0001:00016a20       ??1?$unique_ptr@U_TaskProcHandle@details@Concurrency@@U?$default_delete@U_TaskProcHandle@details@Concurrency@@@std@@@std@@QEAA@XZ 0000000180017a20 f i _nodert_generated.obj
 0001:00016a40       ??1?$unique_ptr@V_PPLTaskChore@_DefaultPPLTaskScheduler@details@Concurrency@@U?$default_delete@V_PPLTaskChore@_DefaultPPLTaskScheduler@details@Concurrency@@@std@@@std@@QEAA@XZ 0000000180017a40 f i _nodert_generated.obj
 0001:00016a80       ??1?$lock_guard@Vmutex@std@@@std@@QEAA@XZ 0000000180017a80 f i _nodert_generated.obj
 0001:00016ab0       ??1?$unique_lock@Vmutex@std@@@std@@QEAA@XZ 0000000180017ab0 f i _nodert_generated.obj
 0001:00016ae0       ??_G?$_Task_impl@E@details@Concurrency@@UEAAPEAXI@Z 0000000180017ae0 f i _nodert_generated.obj
 0001:00016ae0       ??_E?$_Task_impl@E@details@Concurrency@@UEAAPEAXI@Z 0000000180017ae0 f i * CIL library *:* CIL module *
 0001:00016b70       ??_E?$_CancellationTokenCallback@V<lambda_be3e5d9dce35d2c8dbfa8485373731d5>@@@details@Concurrency@@UEAAPEAXI@Z 0000000180017b70 f i * CIL library *:* CIL module *
 0001:00016b70       ??_G?$_CancellationTokenCallback@V<lambda_be3e5d9dce35d2c8dbfa8485373731d5>@@@details@Concurrency@@UEAAPEAXI@Z 0000000180017b70 f i _nodert_generated.obj
 0001:00016c30       ??0runtime_error@std@@QEAA@AEBV01@@Z 0000000180017c30 f i _nodert_generated.obj
 0001:00016c50       ??1?$ComPtr@UIAgileObject@@@WRL@Microsoft@@QEAA@XZ 0000000180017c50 f i _nodert_generated.obj
 0001:00016c70       ?_CancelAndRunContinuations@?$_Task_impl@W4SetImageFeedResult@UserProfile@System@Windows@@@details@Concurrency@@UEAA_N_N00AEBV?$shared_ptr@U_ExceptionHolder@details@Concurrency@@@std@@@Z 0000000180017c70 f i _nodert_generated.obj
 0001:00016ef0       ?_CancelAndRunContinuations@?$_Task_impl@PE$AAVUri@Foundation@Windows@@@details@Concurrency@@UEAA_N_N00AEBV?$shared_ptr@U_ExceptionHolder@details@Concurrency@@@std@@@Z 0000000180017ef0 f i _nodert_generated.obj
 0001:00017170       ??1?$_Task_impl@PE$AAVUri@Foundation@Windows@@@details@Concurrency@@UEAA@XZ 0000000180018170 f i _nodert_generated.obj
 0001:00017200       ?_CancelAndRunContinuations@?$_Task_impl@PE$AAVString@Platform@@@details@Concurrency@@UEAA_N_N00AEBV?$shared_ptr@U_ExceptionHolder@details@Concurrency@@@std@@@Z 0000000180018200 f i _nodert_generated.obj
 0001:00017480       ??1?$_Task_impl@PE$AAVString@Platform@@@details@Concurrency@@UEAA@XZ 0000000180018480 f i _nodert_generated.obj
 0001:00017510       ?_CancelAndRunContinuations@?$_Task_impl@W4SetAccountPictureResult@UserProfile@System@Windows@@@details@Concurrency@@UEAA_N_N00AEBV?$shared_ptr@U_ExceptionHolder@details@Concurrency@@@std@@@Z 0000000180018510 f i _nodert_generated.obj
 0001:00017790       ??0?$KeyValuePairWrapper@PE$AAVString@Platform@@PE$AAVObject@2@@Collections@NodeRT@@AEAA@PE$AAU?$IKeyValuePair@PE$AAVString@Platform@@PE$AAVObject@2@@1Foundation@Windows@@AEBV?$function@$$A6A?AV?$Local@VValue@v8@@@v8@@PE$AAVString@Platform@@@Z@std@@AEBV?$function@$$A6A?AV?$Local@VValue@v8@@@v8@@PE$AAVObject@Platform@@@Z@7@@Z 0000000180018790 f i _nodert_generated.obj
 0001:00017840       ?Init@?$KeyValuePairWrapper@PE$AAVString@Platform@@PE$AAVObject@2@@Collections@NodeRT@@SAXXZ 0000000180018840 f i _nodert_generated.obj
 0001:00017a20       ??0?$IteratorWrapper@PE$AAU?$IKeyValuePair@PE$AAVString@Platform@@PE$AAVObject@2@@Collections@Foundation@Windows@@@Collections@NodeRT@@AEAA@PE$AAU?$IIterator@PE$AAU?$IKeyValuePair@PE$AAVString@Platform@@PE$AAVObject@2@@Collections@Foundation@Windows@@@1Foundation@Windows@@AEBV?$function@$$A6A?AV?$Local@VValue@v8@@@v8@@PE$AAU?$IKeyValuePair@PE$AAVString@Platform@@PE$AAVObject@2@@Collections@Foundation@Windows@@@Z@std@@@Z 0000000180018a20 f i _nodert_generated.obj
 0001:00017ab0       ?Init@?$IteratorWrapper@PE$AAU?$IKeyValuePair@PE$AAVString@Platform@@PE$AAVObject@2@@Collections@Foundation@Windows@@@Collections@NodeRT@@SAXXZ 0000000180018ab0 f i _nodert_generated.obj
 0001:00017cc0       ??0?$MapViewWrapper@PE$AAVString@Platform@@PE$AAVObject@2@@Collections@NodeRT@@AEAA@PE$AAU?$IMapView@PE$AAVString@Platform@@PE$AAVObject@2@@1Foundation@Windows@@AEBV?$function@$$A6A?AV?$Local@VValue@v8@@@v8@@PE$AAVString@Platform@@@Z@std@@AEBV?$function@$$A6A_NV?$Local@VValue@v8@@@v8@@@Z@7@AEBV?$function@$$A6APE$AAVString@Platform@@V?$Local@VValue@v8@@@v8@@@Z@7@AEBV?$function@$$A6A?AV?$Local@VValue@v8@@@v8@@PE$AAVObject@Platform@@@Z@7@@Z 0000000180018cc0 f i _nodert_generated.obj
 0001:00017dd0       ?Init@?$MapViewWrapper@PE$AAVString@Platform@@PE$AAVObject@2@@Collections@NodeRT@@SAXXZ 0000000180018dd0 f i _nodert_generated.obj
 0001:00017fe0       ?Init@?$VectorViewWrapper@PE$AAVString@Platform@@@Collections@NodeRT@@SAXXZ 0000000180018fe0 f i _nodert_generated.obj
 0001:00018210       ?_CancelAndRunContinuations@?$_Task_impl@_N@details@Concurrency@@UEAA_N_N00AEBV?$shared_ptr@U_ExceptionHolder@details@Concurrency@@@std@@@Z 0000000180019210 f i _nodert_generated.obj
 0001:00018490       ??4?$shared_ptr@U?$_Task_impl@PE$AAVUri@Foundation@Windows@@@details@Concurrency@@@std@@QEAAAEAV01@AEBV01@@Z 0000000180019490 f i _nodert_generated.obj
 0001:00018490       ??4?$shared_ptr@U?$_Task_impl@W4SetImageFeedResult@UserProfile@System@Windows@@@details@Concurrency@@@std@@QEAAAEAV01@AEBV01@@Z 0000000180019490 f i _nodert_generated.obj
 0001:00018490       ??4?$shared_ptr@U?$_Task_impl@E@details@Concurrency@@@std@@QEAAAEAV01@AEBV01@@Z 0000000180019490 f i _nodert_generated.obj
 0001:00018490       ??4?$shared_ptr@U_ExceptionHolder@details@Concurrency@@@std@@QEAAAEAV01@AEBV01@@Z 0000000180019490 f i _nodert_generated.obj
 0001:00018490       ??4?$shared_ptr@U?$_Task_impl@PE$AAVString@Platform@@@details@Concurrency@@@std@@QEAAAEAV01@AEBV01@@Z 0000000180019490 f i _nodert_generated.obj
 0001:00018490       ??4?$shared_ptr@U?$_Task_impl@W4SetAccountPictureResult@UserProfile@System@Windows@@@details@Concurrency@@@std@@QEAAAEAV01@AEBV01@@Z 0000000180019490 f i _nodert_generated.obj
 0001:00018490       ??4?$shared_ptr@U?$_Task_impl@_N@details@Concurrency@@@std@@QEAAAEAV01@AEBV01@@Z 0000000180019490 f i _nodert_generated.obj
 0001:00018520       ??4?$shared_ptr@U?$_Task_impl@PE$AAVUri@Foundation@Windows@@@details@Concurrency@@@std@@QEAAAEAV01@$$QEAV01@@Z 0000000180019520 f i _nodert_generated.obj
 0001:00018520       ??4?$shared_ptr@U?$_Task_impl@W4SetImageFeedResult@UserProfile@System@Windows@@@details@Concurrency@@@std@@QEAAAEAV01@$$QEAV01@@Z 0000000180019520 f i _nodert_generated.obj
 0001:00018520       ??4?$shared_ptr@U?$_Task_impl@PE$AAVString@Platform@@@details@Concurrency@@@std@@QEAAAEAV01@$$QEAV01@@Z 0000000180019520 f i _nodert_generated.obj
 0001:00018520       ??4?$shared_ptr@U?$_Task_impl@_N@details@Concurrency@@@std@@QEAAAEAV01@$$QEAV01@@Z 0000000180019520 f i _nodert_generated.obj
 0001:00018520       ??4?$shared_ptr@U?$_Task_impl@E@details@Concurrency@@@std@@QEAAAEAV01@$$QEAV01@@Z 0000000180019520 f i _nodert_generated.obj
 0001:00018520       ??4?$shared_ptr@U?$_Task_impl@W4SetAccountPictureResult@UserProfile@System@Windows@@@details@Concurrency@@@std@@QEAAAEAV01@$$QEAV01@@Z 0000000180019520 f i _nodert_generated.obj
 0001:000185b0       ?_FinalizeAndRunContinuations@?$_Task_impl@E@details@Concurrency@@QEAAXE@Z 00000001800195b0 f i _nodert_generated.obj
 0001:000185b0       ?_FinalizeAndRunContinuations@?$_Task_impl@_N@details@Concurrency@@QEAAX_N@Z 00000001800195b0 f i _nodert_generated.obj
 0001:00018640       ?_Make@?$_Task_ptr@E@details@Concurrency@@SA?AV?$shared_ptr@U?$_Task_impl@E@details@Concurrency@@@std@@PEAV_CancellationTokenState@23@Uscheduler_ptr@3@@Z 0000000180019640 f i _nodert_generated.obj
 0001:000186d0       ?Release@?$Agile@PE$AAUIAsyncAction@Foundation@Windows@@$00@Platform@@QEAAXXZ 00000001800196d0 f i _nodert_generated.obj
 0001:00018770       ?deallocate@?$_Wrap_alloc@V?$allocator@PEAX@std@@@std@@QEAAXPEAPEAX_K@Z 0000000180019770 f i _nodert_generated.obj
 0001:000187f0       ?_Buy@?$vector@PEAXV?$allocator@PEAX@std@@@std@@IEAA_N_K@Z 00000001800197f0 f i _nodert_generated.obj
 0001:00018890       ??_G?$_Task_impl@W4SetImageFeedResult@UserProfile@System@Windows@@@details@Concurrency@@UEAAPEAXI@Z 0000000180019890 f i _nodert_generated.obj
 0001:00018890       ??_E?$_Task_impl@W4SetImageFeedResult@UserProfile@System@Windows@@@details@Concurrency@@UEAAPEAXI@Z 0000000180019890 f i * CIL library *:* CIL module *
 0001:00018920       ??_E?$_Task_impl@PE$AAVUri@Foundation@Windows@@@details@Concurrency@@UEAAPEAXI@Z 0000000180019920 f i * CIL library *:* CIL module *
 0001:00018920       ??_G?$_Task_impl@PE$AAVUri@Foundation@Windows@@@details@Concurrency@@UEAAPEAXI@Z 0000000180019920 f i _nodert_generated.obj
 0001:00018960       ??_G?$_Task_impl@PE$AAVString@Platform@@@details@Concurrency@@UEAAPEAXI@Z 0000000180019960 f i _nodert_generated.obj
 0001:00018960       ??_E?$_Task_impl@PE$AAVString@Platform@@@details@Concurrency@@UEAAPEAXI@Z 0000000180019960 f i * CIL library *:* CIL module *
 0001:000189a0       ??_E?$_Task_impl@W4SetAccountPictureResult@UserProfile@System@Windows@@@details@Concurrency@@UEAAPEAXI@Z 00000001800199a0 f i * CIL library *:* CIL module *
 0001:000189a0       ??_G?$_Task_impl@W4SetAccountPictureResult@UserProfile@System@Windows@@@details@Concurrency@@UEAAPEAXI@Z 00000001800199a0 f i _nodert_generated.obj
 0001:00018a30       ??_E?$KeyValuePairWrapper@PE$AAVString@Platform@@PE$AAVObject@2@@Collections@NodeRT@@UEAAPEAXI@Z 0000000180019a30 f i * CIL library *:* CIL module *
 0001:00018a30       ??_G?$KeyValuePairWrapper@PE$AAVString@Platform@@PE$AAVObject@2@@Collections@NodeRT@@UEAAPEAXI@Z 0000000180019a30 f i _nodert_generated.obj
 0001:00018a70       ??1?$KeyValuePairWrapper@PE$AAVString@Platform@@PE$AAVObject@2@@Collections@NodeRT@@UEAA@XZ 0000000180019a70 f i _nodert_generated.obj
 0001:00018af0       ??_E?$IteratorWrapper@PE$AAVString@Platform@@@Collections@NodeRT@@UEAAPEAXI@Z 0000000180019af0 f i * CIL library *:* CIL module *
 0001:00018af0       ??_E?$IteratorWrapper@PE$AAU?$IKeyValuePair@PE$AAVString@Platform@@PE$AAVObject@2@@Collections@Foundation@Windows@@@Collections@NodeRT@@UEAAPEAXI@Z 0000000180019af0 f i * CIL library *:* CIL module *
 0001:00018af0       ??_G?$IteratorWrapper@PE$AAVString@Platform@@@Collections@NodeRT@@UEAAPEAXI@Z 0000000180019af0 f i _nodert_generated.obj
 0001:00018af0       ??_G?$IteratorWrapper@PE$AAU?$IKeyValuePair@PE$AAVString@Platform@@PE$AAVObject@2@@Collections@Foundation@Windows@@@Collections@NodeRT@@UEAAPEAXI@Z 0000000180019af0 f i _nodert_generated.obj
 0001:00018b70       ??_G?$MapViewWrapper@PE$AAVString@Platform@@PE$AAVObject@2@@Collections@NodeRT@@UEAAPEAXI@Z 0000000180019b70 f i _nodert_generated.obj
 0001:00018b70       ??_E?$MapViewWrapper@PE$AAVString@Platform@@PE$AAVObject@2@@Collections@NodeRT@@UEAAPEAXI@Z 0000000180019b70 f i * CIL library *:* CIL module *
 0001:00018bb0       ??1?$MapViewWrapper@PE$AAVString@Platform@@PE$AAVObject@2@@Collections@NodeRT@@UEAA@XZ 0000000180019bb0 f i _nodert_generated.obj
 0001:00018ca0       ??_E?$VectorViewWrapper@PE$AAVString@Platform@@@Collections@NodeRT@@UEAAPEAXI@Z 0000000180019ca0 f i * CIL library *:* CIL module *
 0001:00018ca0       ??_G?$VectorViewWrapper@PE$AAVString@Platform@@@Collections@NodeRT@@UEAAPEAXI@Z 0000000180019ca0 f i _nodert_generated.obj
 0001:00018ce0       ??1?$VectorViewWrapper@PE$AAVString@Platform@@@Collections@NodeRT@@UEAA@XZ 0000000180019ce0 f i _nodert_generated.obj
 0001:00018d90       ??_G?$_Task_impl@_N@details@Concurrency@@UEAAPEAXI@Z 0000000180019d90 f i _nodert_generated.obj
 0001:00018d90       ??_E?$_Task_impl@_N@details@Concurrency@@UEAAPEAXI@Z 0000000180019d90 f i * CIL library *:* CIL module *
 0001:00018e20       ?ValueGetter@?$KeyValuePairWrapper@PE$AAVString@Platform@@PE$AAVObject@2@@Collections@NodeRT@@CAXV?$Local@VString@v8@@@v8@@AEBV?$PropertyCallbackInfo@VValue@v8@@@Nan@@@Z 0000000180019e20 f i _nodert_generated.obj
 0001:00018f20       ?KeyGetter@?$KeyValuePairWrapper@PE$AAVString@Platform@@PE$AAVObject@2@@Collections@NodeRT@@CAXV?$Local@VString@v8@@@v8@@AEBV?$PropertyCallbackInfo@VValue@v8@@@Nan@@@Z 0000000180019f20 f i _nodert_generated.obj
 0001:00018fe0       ?New@?$VectorViewWrapper@PE$AAVString@Platform@@@Collections@NodeRT@@CAXAEBV?$FunctionCallbackInfo@VValue@v8@@@Nan@@@Z 0000000180019fe0 f i _nodert_generated.obj
 0001:00018fe0       ?New@?$IteratorWrapper@PE$AAU?$IKeyValuePair@PE$AAVString@Platform@@PE$AAVObject@2@@Collections@Foundation@Windows@@@Collections@NodeRT@@CAXAEBV?$FunctionCallbackInfo@VValue@v8@@@Nan@@@Z 0000000180019fe0 f i _nodert_generated.obj
 0001:00018fe0       ?New@?$KeyValuePairWrapper@PE$AAVString@Platform@@PE$AAVObject@2@@Collections@NodeRT@@CAXAEBV?$FunctionCallbackInfo@VValue@v8@@@Nan@@@Z 0000000180019fe0 f i _nodert_generated.obj
 0001:00018fe0       ?New@?$MapViewWrapper@PE$AAVString@Platform@@PE$AAVObject@2@@Collections@NodeRT@@CAXAEBV?$FunctionCallbackInfo@VValue@v8@@@Nan@@@Z 0000000180019fe0 f i _nodert_generated.obj
 0001:00018fe0       ?New@?$IteratorWrapper@PE$AAVString@Platform@@@Collections@NodeRT@@CAXAEBV?$FunctionCallbackInfo@VValue@v8@@@Nan@@@Z 0000000180019fe0 f i _nodert_generated.obj
 0001:000190b0       ?HasCurrentGetter@?$IteratorWrapper@PE$AAU?$IKeyValuePair@PE$AAVString@Platform@@PE$AAVObject@2@@Collections@Foundation@Windows@@@Collections@NodeRT@@CAXV?$Local@VString@v8@@@v8@@AEBV?$PropertyCallbackInfo@VValue@v8@@@Nan@@@Z 000000018001a0b0 f i _nodert_generated.obj
 0001:00019160       ?CurrentGetter@?$IteratorWrapper@PE$AAU?$IKeyValuePair@PE$AAVString@Platform@@PE$AAVObject@2@@Collections@Foundation@Windows@@@Collections@NodeRT@@CAXV?$Local@VString@v8@@@v8@@AEBV?$PropertyCallbackInfo@VValue@v8@@@Nan@@@Z 000000018001a160 f i _nodert_generated.obj
 0001:000192a0       ?GetMany@?$VectorViewWrapper@PE$AAVString@Platform@@@Collections@NodeRT@@CAXAEBV?$FunctionCallbackInfo@VValue@v8@@@Nan@@@Z 000000018001a2a0 f i _nodert_generated.obj
 0001:000192a0       ?GetMany@?$IteratorWrapper@PE$AAU?$IKeyValuePair@PE$AAVString@Platform@@PE$AAVObject@2@@Collections@Foundation@Windows@@@Collections@NodeRT@@CAXAEBV?$FunctionCallbackInfo@VValue@v8@@@Nan@@@Z 000000018001a2a0 f i _nodert_generated.obj
 0001:000192a0       ?GetMany@?$IteratorWrapper@PE$AAVString@Platform@@@Collections@NodeRT@@CAXAEBV?$FunctionCallbackInfo@VValue@v8@@@Nan@@@Z 000000018001a2a0 f i _nodert_generated.obj
 0001:00019340       ?MoveNext@?$IteratorWrapper@PE$AAU?$IKeyValuePair@PE$AAVString@Platform@@PE$AAVObject@2@@Collections@Foundation@Windows@@@Collections@NodeRT@@CAXAEBV?$FunctionCallbackInfo@VValue@v8@@@Nan@@@Z 000000018001a340 f i _nodert_generated.obj
 0001:00019470       ?SizeGetter@?$MapViewWrapper@PE$AAVString@Platform@@PE$AAVObject@2@@Collections@NodeRT@@CAXV?$Local@VString@v8@@@v8@@AEBV?$PropertyCallbackInfo@VValue@v8@@@Nan@@@Z 000000018001a470 f i _nodert_generated.obj
 0001:00019570       ?Split@?$MapViewWrapper@PE$AAVString@Platform@@PE$AAVObject@2@@Collections@NodeRT@@CAXAEBV?$FunctionCallbackInfo@VValue@v8@@@Nan@@@Z 000000018001a570 f i _nodert_generated.obj
 0001:00019860       ?Lookup@?$MapViewWrapper@PE$AAVString@Platform@@PE$AAVObject@2@@Collections@NodeRT@@CAXAEBV?$FunctionCallbackInfo@VValue@v8@@@Nan@@@Z 000000018001a860 f i _nodert_generated.obj
 0001:00019aa0       ?First@?$MapViewWrapper@PE$AAVString@Platform@@PE$AAVObject@2@@Collections@NodeRT@@CAXAEBV?$FunctionCallbackInfo@VValue@v8@@@Nan@@@Z 000000018001aaa0 f i _nodert_generated.obj
 0001:00019da0       ?HasKey@?$MapViewWrapper@PE$AAVString@Platform@@PE$AAVObject@2@@Collections@NodeRT@@CAXAEBV?$FunctionCallbackInfo@VValue@v8@@@Nan@@@Z 000000018001ada0 f i _nodert_generated.obj
 0001:00019fb0       ?SizeGetter@?$VectorViewWrapper@PE$AAVString@Platform@@@Collections@NodeRT@@CAXV?$Local@VString@v8@@@v8@@AEBV?$PropertyCallbackInfo@VValue@v8@@@Nan@@@Z 000000018001afb0 f i _nodert_generated.obj
 0001:0001a0b0       ?IndexOf@?$VectorViewWrapper@PE$AAVString@Platform@@@Collections@NodeRT@@CAXAEBV?$FunctionCallbackInfo@VValue@v8@@@Nan@@@Z 000000018001b0b0 f i _nodert_generated.obj
 0001:0001a400       ?First@?$VectorViewWrapper@PE$AAVString@Platform@@@Collections@NodeRT@@CAXAEBV?$FunctionCallbackInfo@VValue@v8@@@Nan@@@Z 000000018001b400 f i _nodert_generated.obj
 0001:0001a5a0       ?GetAt@?$VectorViewWrapper@PE$AAVString@Platform@@@Collections@NodeRT@@CAXAEBV?$FunctionCallbackInfo@VValue@v8@@@Nan@@@Z 000000018001b5a0 f i _nodert_generated.obj
 0001:0001a7c0       ?Get@?$VectorViewWrapper@PE$AAVString@Platform@@@Collections@NodeRT@@CAXIAEBV?$PropertyCallbackInfo@VValue@v8@@@Nan@@@Z 000000018001b7c0 f i _nodert_generated.obj
 0001:0001a900       ?SetObject@?$Agile@PE$AAUIAsyncAction@Foundation@Windows@@$00@Platform@@AEAAXPE$AAUIAsyncAction@Foundation@Windows@@@Z 000000018001b900 f i _nodert_generated.obj
 0001:0001aa60       ?CreateIteratorWrapper@?$IteratorWrapper@PE$AAVString@Platform@@@Collections@NodeRT@@SA?AV?$Local@VValue@v8@@@v8@@PE$AAU?$IIterator@PE$AAVString@Platform@@@2Foundation@Windows@@AEBV?$function@$$A6A?AV?$Local@VValue@v8@@@v8@@PE$AAVString@Platform@@@Z@std@@@Z 000000018001ba60 f i _nodert_generated.obj
 0001:0001abf0       ??R?$_Func_class@V?$Local@VValue@v8@@@v8@@PE$AAVObject@Platform@@@std@@QEBA?AV?$Local@VValue@v8@@@v8@@PE$AAVObject@Platform@@@Z 000000018001bbf0 f i _nodert_generated.obj
 0001:0001abf0       ??R?$_Func_class@V?$Local@VValue@v8@@@v8@@PE$AAU?$IKeyValuePair@PE$AAVString@Platform@@PE$AAVObject@2@@Collections@Foundation@Windows@@@std@@QEBA?AV?$Local@VValue@v8@@@v8@@PE$AAU?$IKeyValuePair@PE$AAVString@Platform@@PE$AAVObject@2@@Collections@Foundation@Windows@@@Z 000000018001bbf0 f i _nodert_generated.obj
 0001:0001ac70       ??R?$_Func_class@PE$AAVString@Platform@@V?$Local@VValue@v8@@@v8@@@std@@QEBAPE$AAVString@Platform@@V?$Local@VValue@v8@@@v8@@@Z 000000018001bc70 f i _nodert_generated.obj
 0001:0001acc0       ??R?$_Func_class@V?$Local@VValue@v8@@@v8@@PE$AAVString@Platform@@@std@@QEBA?AV?$Local@VValue@v8@@@v8@@PE$AAVString@Platform@@@Z 000000018001bcc0 f i _nodert_generated.obj
 0001:0001ad50       ??0?$IteratorWrapper@PE$AAVString@Platform@@@Collections@NodeRT@@AEAA@PE$AAU?$IIterator@PE$AAVString@Platform@@@1Foundation@Windows@@AEBV?$function@$$A6A?AV?$Local@VValue@v8@@@v8@@PE$AAVString@Platform@@@Z@std@@@Z 000000018001bd50 f i _nodert_generated.obj
 0001:0001ade0       ?Init@?$IteratorWrapper@PE$AAVString@Platform@@@Collections@NodeRT@@SAXXZ 000000018001bde0 f i _nodert_generated.obj
 0001:0001aff0       ?HasCurrentGetter@?$IteratorWrapper@PE$AAVString@Platform@@@Collections@NodeRT@@CAXV?$Local@VString@v8@@@v8@@AEBV?$PropertyCallbackInfo@VValue@v8@@@Nan@@@Z 000000018001bff0 f i _nodert_generated.obj
 0001:0001b0a0       ?CurrentGetter@?$IteratorWrapper@PE$AAVString@Platform@@@Collections@NodeRT@@CAXV?$Local@VString@v8@@@v8@@AEBV?$PropertyCallbackInfo@VValue@v8@@@Nan@@@Z 000000018001c0a0 f i _nodert_generated.obj
 0001:0001b1f0       ?MoveNext@?$IteratorWrapper@PE$AAVString@Platform@@@Collections@NodeRT@@CAXAEBV?$FunctionCallbackInfo@VValue@v8@@@Nan@@@Z 000000018001c1f0 f i _nodert_generated.obj
 0001:0001b320       ?get@ErrorCode@IAsyncInfo@Foundation@Windows@@UE$AAA?AVHResult@34@XZ 000000018001c320 f i _nodert_generated.obj
 0001:0001b350       ?Cancel@IAsyncInfo@Foundation@Windows@@UE$AAAXXZ 000000018001c350 f i _nodert_generated.obj
 0001:0001b370       ?get@AdvertisingId@IAdvertisingManagerForUser@UserProfile@System@Windows@@UE$AAAPE$AAVString@Platform@@XZ 000000018001c370 f i _nodert_generated.obj
 0001:0001b370       ?get@Current@?$IIterator@PE$AAVString@Platform@@@Collections@Foundation@Windows@@UE$AAAPE$AAVString@Platform@@XZ 000000018001c370 f i _nodert_generated.obj
 0001:0001b370       ?get@Key@?$IKeyValuePair@PE$AAVString@Platform@@PE$AAVObject@2@@Collections@Foundation@Windows@@UE$AAAPE$AAVString@Platform@@XZ 000000018001c370 f i _nodert_generated.obj
 0001:0001b3e0       ?TrySetLockScreenImageAsync@IUserProfilePersonalizationSettings@UserProfile@System@Windows@@UE$AAAPE$AAU?$IAsyncOperation@_N@Foundation@4@PE$AAVStorageFile@Storage@4@@Z 000000018001c3e0 f i _nodert_generated.obj
 0001:0001b3e0       ?Lookup@?$IMapView@PE$AAVString@Platform@@PE$AAVObject@2@@Collections@Foundation@Windows@@UE$AAAPE$AAVObject@Platform@@PE$AAVString@6@@Z 000000018001c3e0 f i _nodert_generated.obj
 0001:0001b440       ?TrySetWallpaperImageAsync@IUserProfilePersonalizationSettings@UserProfile@System@Windows@@UE$AAAPE$AAU?$IAsyncOperation@_N@Foundation@4@PE$AAVStorageFile@Storage@4@@Z 000000018001c440 f i _nodert_generated.obj
 0001:0001b4a0       ?First@?$IIterable@PE$AAU?$IKeyValuePair@PE$AAVString@Platform@@PE$AAVObject@2@@Collections@Foundation@Windows@@@Collections@Foundation@Windows@@UE$AAAPE$AAU?$IIterator@PE$AAU?$IKeyValuePair@PE$AAVString@Platform@@PE$AAVObject@2@@Collections@Foundation@Windows@@@234@XZ 000000018001c4a0 f i _nodert_generated.obj
 0001:0001b4a0       ?First@?$IIterable@PE$AAVString@Platform@@@Collections@Foundation@Windows@@UE$AAAPE$AAU?$IIterator@PE$AAVString@Platform@@@234@XZ 000000018001c4a0 f i _nodert_generated.obj
 0001:0001b500       ?GetAt@?$IVectorView@PE$AAVString@Platform@@@Collections@Foundation@Windows@@UE$AAAPE$AAVString@Platform@@I@Z 000000018001c500 f i _nodert_generated.obj
 0001:0001b570       ??$Reset@VObject@v8@@@?$Persistent@VObject@v8@@V?$NonCopyablePersistentTraits@VObject@v8@@@2@@Nan@@QEAAXAEBV?$Local@VObject@v8@@@v8@@@Z 000000018001c570 f i _nodert_generated.obj
 0001:0001b5d0       ??$make_shared@U_ExceptionHolder@details@Concurrency@@AEBVexception_ptr@std@@V_TaskCreationCallstack@23@@std@@YA?AV?$shared_ptr@U_ExceptionHolder@details@Concurrency@@@0@AEBVexception_ptr@0@$$QEAV_TaskCreationCallstack@details@Concurrency@@@Z 000000018001c5d0 f i _nodert_generated.obj
 0001:0001b690       ??$?0V<lambda_f25c37099038263181b5186a3fa41b37>@@XX@?$function@$$A6AXXZ@std@@QEAA@V<lambda_f25c37099038263181b5186a3fa41b37>@@@Z 000000018001c690 f i _nodert_generated.obj
 0001:0001b730       ??$?0PE$AAUIAsyncAction@Foundation@Windows@@@?$task@X@Concurrency@@QEAA@PE$AAUIAsyncAction@Foundation@Windows@@AEBVtask_options@1@@Z 000000018001c730 f i _nodert_generated.obj
 0001:0001b950       ??$?4AEAV?$function@$$A6AXXZ@std@@XX@?$function@$$A6AXXZ@std@@QEAAAEAV01@AEAV01@@Z 000000018001c950 f i _nodert_generated.obj
 0001:0001b9e0       ??$SetMethod@VObject@v8@@VLocal@2@@Nan@@YAXV?$Local@VObject@v8@@@v8@@PEBDP6AXAEBV?$FunctionCallbackInfo@VValue@v8@@@0@@Z@Z 000000018001c9e0 f i _nodert_generated.obj
 0001:0001baa0       ??$IsWinRtWrapperOf@PE$AAVAdvertisingManagerForUser@UserProfile@System@Windows@@@Utils@NodeRT@@YA_NV?$Local@VValue@v8@@@v8@@@Z 000000018001caa0 f i _nodert_generated.obj
 0001:0001bc00       ??$Unwrap@VOpaqueWrapper@NodeRT@@@ObjectWrap@Nan@@SAPEAVOpaqueWrapper@NodeRT@@V?$Local@VObject@v8@@@v8@@@Z 000000018001cc00 f i _nodert_generated.obj
 0001:0001bc00       ??$Unwrap@VWrapperBase@NodeRT@@@ObjectWrap@Nan@@SAPEAVWrapperBase@NodeRT@@V?$Local@VObject@v8@@@v8@@@Z 000000018001cc00 f i _nodert_generated.obj
 0001:0001bc00       ??$Unwrap@VFirstSignInSettings@UserProfile@System@Windows@NodeRT@@@ObjectWrap@Nan@@SAPEAVFirstSignInSettings@UserProfile@System@Windows@NodeRT@@V?$Local@VObject@v8@@@v8@@@Z 000000018001cc00 f i _nodert_generated.obj
 0001:0001bc00       ??$Unwrap@V?$VectorViewWrapper@PE$AAVString@Platform@@@Collections@NodeRT@@@ObjectWrap@Nan@@SAPEAV?$VectorViewWrapper@PE$AAVString@Platform@@@Collections@NodeRT@@V?$Local@VObject@v8@@@v8@@@Z 000000018001cc00 f i _nodert_generated.obj
 0001:0001bc00       ??$Unwrap@VAdvertisingManagerForUser@UserProfile@System@Windows@NodeRT@@@ObjectWrap@Nan@@SAPEAVAdvertisingManagerForUser@UserProfile@System@Windows@NodeRT@@V?$Local@VObject@v8@@@v8@@@Z 000000018001cc00 f i _nodert_generated.obj
 0001:0001bc00       ??$Unwrap@V?$MapViewWrapper@PE$AAVString@Platform@@PE$AAVObject@2@@Collections@NodeRT@@@ObjectWrap@Nan@@SAPEAV?$MapViewWrapper@PE$AAVString@Platform@@PE$AAVObject@2@@Collections@NodeRT@@V?$Local@VObject@v8@@@v8@@@Z 000000018001cc00 f i _nodert_generated.obj
 0001:0001bc00       ??$Unwrap@V?$IteratorWrapper@PE$AAVString@Platform@@@Collections@NodeRT@@@ObjectWrap@Nan@@SAPEAV?$IteratorWrapper@PE$AAVString@Platform@@@Collections@NodeRT@@V?$Local@VObject@v8@@@v8@@@Z 000000018001cc00 f i _nodert_generated.obj
 0001:0001bc00       ??$Unwrap@V?$IteratorWrapper@PE$AAU?$IKeyValuePair@PE$AAVString@Platform@@PE$AAVObject@2@@Collections@Foundation@Windows@@@Collections@NodeRT@@@ObjectWrap@Nan@@SAPEAV?$IteratorWrapper@PE$AAU?$IKeyValuePair@PE$AAVString@Platform@@PE$AAVObject@2@@Collections@Foundation@Windows@@@Collections@NodeRT@@V?$Local@VObject@v8@@@v8@@@Z 000000018001cc00 f i _nodert_generated.obj
 0001:0001bc00       ??$Unwrap@VUserProfilePersonalizationSettings@UserProfile@System@Windows@NodeRT@@@ObjectWrap@Nan@@SAPEAVUserProfilePersonalizationSettings@UserProfile@System@Windows@NodeRT@@V?$Local@VObject@v8@@@v8@@@Z 000000018001cc00 f i _nodert_generated.obj
 0001:0001bc00       ??$Unwrap@V?$KeyValuePairWrapper@PE$AAVString@Platform@@PE$AAVObject@2@@Collections@NodeRT@@@ObjectWrap@Nan@@SAPEAV?$KeyValuePairWrapper@PE$AAVString@Platform@@PE$AAVObject@2@@Collections@NodeRT@@V?$Local@VObject@v8@@@v8@@@Z 000000018001cc00 f i _nodert_generated.obj
 0001:0001bc90       ??$IsWinRtWrapperOf@PE$AAVGlobalizationPreferences@UserProfile@System@Windows@@@Utils@NodeRT@@YA_NV?$Local@VValue@v8@@@v8@@@Z 000000018001cc90 f i _nodert_generated.obj
 0001:0001bc90       ??$IsWinRtWrapperOf@PE$AAVAdvertisingManager@UserProfile@System@Windows@@@Utils@NodeRT@@YA_NV?$Local@VValue@v8@@@v8@@@Z 000000018001cc90 f i _nodert_generated.obj
 0001:0001bdf0       ??$IsWinRtWrapperOf@PE$AAVUser@System@Windows@@@Utils@NodeRT@@YA_NV?$Local@VValue@v8@@@v8@@@Z 000000018001cdf0 f i _nodert_generated.obj
 0001:0001bf50       ??$IsWinRtWrapperOf@PE$AAVUserProfilePersonalizationSettings@UserProfile@System@Windows@@@Utils@NodeRT@@YA_NV?$Local@VValue@v8@@@v8@@@Z 000000018001cf50 f i _nodert_generated.obj
 0001:0001c0b0       ??$IsWinRtWrapperOf@PE$AAVStorageFile@Storage@Windows@@@Utils@NodeRT@@YA_NV?$Local@VValue@v8@@@v8@@@Z 000000018001d0b0 f i _nodert_generated.obj
 0001:0001c210       ??$create_task@PE$AAU?$IAsyncOperation@_N@Foundation@Windows@@@Concurrency@@YA?AV?$task@_N@0@PE$AAU?$IAsyncOperation@_N@Foundation@Windows@@Vtask_options@0@@Z 000000018001d210 f i _nodert_generated.obj
 0001:0001c2b0       ??$then@V<lambda_7f4cebe17154362a5bec736b55156997>@@@?$task@_N@Concurrency@@QEBA?AV?$task@X@1@AEBV<lambda_7f4cebe17154362a5bec736b55156997>@@@Z 000000018001d2b0 f i _nodert_generated.obj
 0001:0001c510       ??$then@V<lambda_205294ac9d93e11a49f76c7d4aaeec33>@@@?$task@_N@Concurrency@@QEBA?AV?$task@X@1@AEBV<lambda_205294ac9d93e11a49f76c7d4aaeec33>@@@Z 000000018001d510 f i _nodert_generated.obj
 0001:0001c770       ??$IsWinRtWrapperOf@PE$AAVFirstSignInSettings@UserProfile@System@Windows@@@Utils@NodeRT@@YA_NV?$Local@VValue@v8@@@v8@@@Z 000000018001d770 f i _nodert_generated.obj
 0001:0001c890       ??$IsWinRtWrapperOf@PE$AAVLockScreen@UserProfile@System@Windows@@@Utils@NodeRT@@YA_NV?$Local@VValue@v8@@@v8@@@Z 000000018001d890 f i _nodert_generated.obj
 0001:0001c890       ??$IsWinRtWrapperOf@PE$AAVUserInformation@UserProfile@System@Windows@@@Utils@NodeRT@@YA_NV?$Local@VValue@v8@@@v8@@@Z 000000018001d890 f i _nodert_generated.obj
 0001:0001c9b0       ??$IsWinRtWrapperOf@PE$AAUIStorageFile@Storage@Windows@@@Utils@NodeRT@@YA_NV?$Local@VValue@v8@@@v8@@@Z 000000018001d9b0 f i _nodert_generated.obj
 0001:0001cad0       ??$create_task@PE$AAU?$IAsyncOperation@W4SetAccountPictureResult@UserProfile@System@Windows@@@Foundation@Windows@@@Concurrency@@YA?AV?$task@W4SetAccountPictureResult@UserProfile@System@Windows@@@0@PE$AAU?$IAsyncOperation@W4SetAccountPictureResult@UserProfile@System@Windows@@@Foundation@Windows@@Vtask_options@0@@Z 000000018001dad0 f i _nodert_generated.obj
 0001:0001cb70       ??$then@V<lambda_09e6080208e0b35848a7b34c2a0656fe>@@@?$task@W4SetAccountPictureResult@UserProfile@System@Windows@@@Concurrency@@QEBA?AV?$task@X@1@AEBV<lambda_09e6080208e0b35848a7b34c2a0656fe>@@@Z 000000018001db70 f i _nodert_generated.obj
 0001:0001cdd0       ??$then@V<lambda_33f6d1522ba7a677218c6b9422376f67>@@@?$task@W4SetAccountPictureResult@UserProfile@System@Windows@@@Concurrency@@QEBA?AV?$task@X@1@AEBV<lambda_33f6d1522ba7a677218c6b9422376f67>@@@Z 000000018001ddd0 f i _nodert_generated.obj
 0001:0001d030       ??$IsWinRtWrapperOf@PE$AAUIRandomAccessStream@Streams@Storage@Windows@@@Utils@NodeRT@@YA_NV?$Local@VValue@v8@@@v8@@@Z 000000018001e030 f i _nodert_generated.obj
 0001:0001d150       ??$then@V<lambda_24e96e65de0221e212c62b01719a71c5>@@@?$task@W4SetAccountPictureResult@UserProfile@System@Windows@@@Concurrency@@QEBA?AV?$task@X@1@AEBV<lambda_24e96e65de0221e212c62b01719a71c5>@@@Z 000000018001e150 f i _nodert_generated.obj
 0001:0001d3b0       ??$then@V<lambda_f22ae8650c56c333ae2e36071b93234d>@@@?$task@W4SetAccountPictureResult@UserProfile@System@Windows@@@Concurrency@@QEBA?AV?$task@X@1@AEBV<lambda_f22ae8650c56c333ae2e36071b93234d>@@@Z 000000018001e3b0 f i _nodert_generated.obj
 0001:0001d610       ??$create_task@PE$AAU?$IAsyncOperation@PE$AAVString@Platform@@@Foundation@Windows@@@Concurrency@@YA?AV?$task@PE$AAVString@Platform@@@0@PE$AAU?$IAsyncOperation@PE$AAVString@Platform@@@Foundation@Windows@@Vtask_options@0@@Z 000000018001e610 f i _nodert_generated.obj
 0001:0001d6b0       ??$then@V<lambda_92e205d7db2179ec6d65e88270e1e91c>@@@?$task@PE$AAVString@Platform@@@Concurrency@@QEBA?AV?$task@X@1@AEBV<lambda_92e205d7db2179ec6d65e88270e1e91c>@@@Z 000000018001e6b0 f i _nodert_generated.obj
 0001:0001d910       ??$then@V<lambda_f654db1f4b3763a2796792ed092520e3>@@@?$task@PE$AAVString@Platform@@@Concurrency@@QEBA?AV?$task@X@1@AEBV<lambda_f654db1f4b3763a2796792ed092520e3>@@@Z 000000018001e910 f i _nodert_generated.obj
 0001:0001db70       ??$then@V<lambda_2ade840f8176aa66a6fbfe3c3eead4f6>@@@?$task@PE$AAVString@Platform@@@Concurrency@@QEBA?AV?$task@X@1@AEBV<lambda_2ade840f8176aa66a6fbfe3c3eead4f6>@@@Z 000000018001eb70 f i _nodert_generated.obj
 0001:0001ddd0       ??$then@V<lambda_7fe100d452bfc50bc5609b497b51776a>@@@?$task@PE$AAVString@Platform@@@Concurrency@@QEBA?AV?$task@X@1@AEBV<lambda_7fe100d452bfc50bc5609b497b51776a>@@@Z 000000018001edd0 f i _nodert_generated.obj
 0001:0001e030       ??$create_task@PE$AAU?$IAsyncOperation@PE$AAVUri@Foundation@Windows@@@Foundation@Windows@@@Concurrency@@YA?AV?$task@PE$AAVUri@Foundation@Windows@@@0@PE$AAU?$IAsyncOperation@PE$AAVUri@Foundation@Windows@@@Foundation@Windows@@Vtask_options@0@@Z 000000018001f030 f i _nodert_generated.obj
 0001:0001e0d0       ??$then@V<lambda_d5c67d5179cb9592a8ec5c4f5f4cbd46>@@@?$task@PE$AAVUri@Foundation@Windows@@@Concurrency@@QEBA?AV?$task@X@1@AEBV<lambda_d5c67d5179cb9592a8ec5c4f5f4cbd46>@@@Z 000000018001f0d0 f i _nodert_generated.obj
 0001:0001e350       ??$then@V<lambda_e135d44f95a3367d5ad1b22011e27c85>@@@?$task@PE$AAVString@Platform@@@Concurrency@@QEBA?AV?$task@X@1@AEBV<lambda_e135d44f95a3367d5ad1b22011e27c85>@@@Z 000000018001f350 f i _nodert_generated.obj
 0001:0001e5b0       ??$?0V<lambda_25518ce64e668348e750903f4cd6cc24>@@@?$EventHandler@PE$AAVObject@Platform@@@Foundation@Windows@@QE$AAA@V<lambda_25518ce64e668348e750903f4cd6cc24>@@W4CallbackContext@Platform@@_N@Z 000000018001f5b0 f i _nodert_generated.obj
 0001:0001e6b0       ??$IsWinRtWrapperOf@PE$AAVUri@Foundation@Windows@@@Utils@NodeRT@@YA_NV?$Local@VValue@v8@@@v8@@@Z 000000018001f6b0 f i _nodert_generated.obj
 0001:0001e7d0       ??$create_task@PE$AAU?$IAsyncOperation@W4SetImageFeedResult@UserProfile@System@Windows@@@Foundation@Windows@@@Concurrency@@YA?AV?$task@W4SetImageFeedResult@UserProfile@System@Windows@@@0@PE$AAU?$IAsyncOperation@W4SetImageFeedResult@UserProfile@System@Windows@@@Foundation@Windows@@Vtask_options@0@@Z 000000018001f7d0 f i _nodert_generated.obj
 0001:0001e870       ??$then@V<lambda_81d13eba1fa31f29a54d9486b3b4a8ac>@@@?$task@W4SetImageFeedResult@UserProfile@System@Windows@@@Concurrency@@QEBA?AV?$task@X@1@AEBV<lambda_81d13eba1fa31f29a54d9486b3b4a8ac>@@@Z 000000018001f870 f i _nodert_generated.obj
 0001:0001eaf0       ??$create_task@PE$AAUIAsyncAction@Foundation@Windows@@@Concurrency@@YA?AV?$task@X@0@PE$AAUIAsyncAction@Foundation@Windows@@Vtask_options@0@@Z 000000018001faf0 f i _nodert_generated.obj
 0001:0001eb90       ??$then@V<lambda_77c2d008ad3a4cbef47859d7b5cd645e>@@@?$task@X@Concurrency@@QEBA?AV01@AEBV<lambda_77c2d008ad3a4cbef47859d7b5cd645e>@@Vtask_options@1@@Z 000000018001fb90 f i _nodert_generated.obj
 0001:0001ed70       ??$then@V<lambda_cbae8c6cf33875e01c338a5f99abe71d>@@@?$task@X@Concurrency@@QEBA?AV01@AEBV<lambda_cbae8c6cf33875e01c338a5f99abe71d>@@Vtask_options@1@@Z 000000018001fd70 f i _nodert_generated.obj
 0001:0001ef50       ??$_AsyncInit@EE@_Task_impl_base@details@Concurrency@@SAXAEBV?$shared_ptr@U?$_Task_impl@E@details@Concurrency@@@std@@PE$AAU?$IAsyncOperation@E@Foundation@Windows@@@Z 000000018001ff50 f i _nodert_generated.obj
 0001:0001f1a0       ??$?0V<lambda_af8508c7722addee579d0ffcec46034b>@@@AsyncActionCompletedHandler@Foundation@Windows@@QE$AAA@V<lambda_af8508c7722addee579d0ffcec46034b>@@W4CallbackContext@Platform@@_N@Z 00000001800201a0 f i _nodert_generated.obj
 0001:0001f290       ??$make_shared@U?$_Task_impl@E@details@Concurrency@@AEAPEAV_CancellationTokenState@23@AEAUscheduler_ptr@3@@std@@YA?AV?$shared_ptr@U?$_Task_impl@E@details@Concurrency@@@0@AEAPEAV_CancellationTokenState@details@Concurrency@@AEAUscheduler_ptr@4@@Z 0000000180020290 f i _nodert_generated.obj
 0001:0001f380       ??$IsWinRtWrapperOf@PE$AAU?$IKeyValuePair@PE$AAVString@Platform@@PE$AAVObject@2@@Collections@Foundation@Windows@@@Utils@NodeRT@@YA_NV?$Local@VValue@v8@@@v8@@@Z 0000000180020380 f i _nodert_generated.obj
 0001:0001f4a0       ??$IsWinRtWrapperOf@PE$AAU?$IIterator@PE$AAU?$IKeyValuePair@PE$AAVString@Platform@@PE$AAVObject@2@@Collections@Foundation@Windows@@@Collections@Foundation@Windows@@@Utils@NodeRT@@YA_NV?$Local@VValue@v8@@@v8@@@Z 00000001800204a0 f i _nodert_generated.obj
 0001:0001f5c0       ??$IsWinRtWrapperOf@PE$AAU?$IMapView@PE$AAVString@Platform@@PE$AAVObject@2@@Collections@Foundation@Windows@@@Utils@NodeRT@@YA_NV?$Local@VValue@v8@@@v8@@@Z 00000001800205c0 f i _nodert_generated.obj
 0001:0001f6e0       ??$New@VInteger@v8@@I@Nan@@YA?AV?$Local@VInteger@v8@@@v8@@I@Z 00000001800206e0 f i _nodert_generated.obj
 0001:0001f760       ??$IsWinRtWrapperOf@PE$AAU?$IVectorView@PE$AAVString@Platform@@@Collections@Foundation@Windows@@@Utils@NodeRT@@YA_NV?$Local@VValue@v8@@@v8@@@Z 0000000180020760 f i _nodert_generated.obj
 0001:0001f880       ??$IsWinRtWrapperOf@PE$AAU?$IIterator@PE$AAVString@Platform@@@Collections@Foundation@Windows@@@Utils@NodeRT@@YA_NV?$Local@VValue@v8@@@v8@@@Z 0000000180020880 f i _nodert_generated.obj
 0001:0001f9a0       ?_Delete_this@?$_Ref_count_del@XP6AHPEAX@Z@std@@EEAAXXZ 00000001800209a0 f i _nodert_generated.obj
 0001:0001f9a0       ?_Delete_this@?$_Ref_count_obj@U?$_Task_impl@E@details@Concurrency@@@std@@EEAAXXZ 00000001800209a0 f i _nodert_generated.obj
 0001:0001f9a0       ?_Delete_this@?$_Ref_count_obj@U_ExceptionHolder@details@Concurrency@@@std@@EEAAXXZ 00000001800209a0 f i _nodert_generated.obj
 0001:0001f9a0       ?_Delete_this@?$_Ref_count_obj@U?$_Task_impl@PE$AAVUri@Foundation@Windows@@@details@Concurrency@@@std@@EEAAXXZ 00000001800209a0 f i _nodert_generated.obj
 0001:0001f9a0       ?_Delete_this@?$_Ref_count_obj@U?$_Task_impl@_N@details@Concurrency@@@std@@EEAAXXZ 00000001800209a0 f i _nodert_generated.obj
 0001:0001f9a0       ?_Delete_this@?$_Ref_count_obj@U?$_Task_impl@W4SetImageFeedResult@UserProfile@System@Windows@@@details@Concurrency@@@std@@EEAAXXZ 00000001800209a0 f i _nodert_generated.obj
 0001:0001f9a0       ?_Delete_this@?$_Ref_count_obj@U?$_Task_impl@PE$AAVString@Platform@@@details@Concurrency@@@std@@EEAAXXZ 00000001800209a0 f i _nodert_generated.obj
 0001:0001f9a0       ?_Delete_this@?$_Ref_count_del@V?$Persistent@VObject@v8@@V?$NonCopyablePersistentTraits@VObject@v8@@@2@@Nan@@V<lambda_9a5068aaf379780d6b6b94ab8a1eb0ff>@@@std@@EEAAXXZ 00000001800209a0 f i _nodert_generated.obj
 0001:0001f9a0       ?_Delete_this@?$_Ref_count_obj@U?$_Task_impl@W4SetAccountPictureResult@UserProfile@System@Windows@@@details@Concurrency@@@std@@EEAAXXZ 00000001800209a0 f i _nodert_generated.obj
 0001:0001f9c0       ?_Destroy@?$_Ref_count_obj@U?$_Task_impl@PE$AAVString@Platform@@@details@Concurrency@@@std@@EEAAXXZ 00000001800209c0 f i _nodert_generated.obj
 0001:0001f9c0       ?_Destroy@?$_Ref_count_obj@U?$_Task_impl@W4SetImageFeedResult@UserProfile@System@Windows@@@details@Concurrency@@@std@@EEAAXXZ 00000001800209c0 f i _nodert_generated.obj
 0001:0001f9c0       ?_Destroy@?$_Ref_count_obj@U?$_Task_impl@_N@details@Concurrency@@@std@@EEAAXXZ 00000001800209c0 f i _nodert_generated.obj
 0001:0001f9c0       ?_Destroy@?$_Ref_count_obj@U?$_Task_impl@W4SetAccountPictureResult@UserProfile@System@Windows@@@details@Concurrency@@@std@@EEAAXXZ 00000001800209c0 f i _nodert_generated.obj
 0001:0001f9c0       ?_Destroy@?$_Ref_count_obj@U?$_Task_impl@PE$AAVUri@Foundation@Windows@@@details@Concurrency@@@std@@EEAAXXZ 00000001800209c0 f i _nodert_generated.obj
 0001:0001f9c0       ?_Destroy@?$_Ref_count_obj@U?$_Task_impl@E@details@Concurrency@@@std@@EEAAXXZ 00000001800209c0 f i _nodert_generated.obj
 0001:0001f9d0       ?Invoke@?$__abi_FunctorCapture@V<lambda_af8508c7722addee579d0ffcec46034b>@@XPE$AAUIAsyncAction@Foundation@Windows@@W4AsyncStatus@34@@Details@Platform@@UEAAXPE$AAUIAsyncAction@Foundation@Windows@@W4AsyncStatus@56@@Z 00000001800209d0 f i _nodert_generated.obj
 0001:0001fa20       ??B?$Box@_J@Platform@@QE$AAA_JXZ 0000000180020a20 f i _nodert_generated.obj
 0001:0001fae0       ?Invoke@?$__abi_FunctorCapture@V<lambda_25518ce64e668348e750903f4cd6cc24>@@XPE$AAVObject@Platform@@PE$AAV23@@Details@Platform@@UEAAXPE$AAVObject@3@0@Z 0000000180020ae0 f i _nodert_generated.obj
 0001:0001faf0       ??0?$__abi_FunctorCapture@V<lambda_25518ce64e668348e750903f4cd6cc24>@@XPE$AAVObject@Platform@@PE$AAV23@@Details@Platform@@QEAA@V<lambda_25518ce64e668348e750903f4cd6cc24>@@@Z 0000000180020af0 f i _nodert_generated.obj
 0001:0001fb90       ?_Destroy@?$_Ref_count_obj@U_ExceptionHolder@details@Concurrency@@@std@@EEAAXXZ 0000000180020b90 f i _nodert_generated.obj
 0001:0001fba0       ??1?$function@$$A6AXV?$task@W4SetImageFeedResult@UserProfile@System@Windows@@@Concurrency@@@Z@std@@QEAA@XZ 0000000180020ba0 f i _nodert_generated.obj
 0001:0001fba0       ??1?$_Func_class@XV?$task@W4SetImageFeedResult@UserProfile@System@Windows@@@Concurrency@@@std@@QEAA@XZ 0000000180020ba0 f i _nodert_generated.obj
 0001:0001fc00       ??1?$function@$$A6AXV?$task@PE$AAVUri@Foundation@Windows@@@Concurrency@@@Z@std@@QEAA@XZ 0000000180020c00 f i _nodert_generated.obj
 0001:0001fc00       ??1?$_Func_class@XV?$task@PE$AAVUri@Foundation@Windows@@@Concurrency@@@std@@QEAA@XZ 0000000180020c00 f i _nodert_generated.obj
 0001:0001fc60       ?_SetUnwrappedAsyncOp@?$_Task_impl@E@details@Concurrency@@QEAAXPE$AAU?$IAsyncOperation@E@Foundation@Windows@@@Z 0000000180020c60 f i _nodert_generated.obj
 0001:0001fd90       ??_E?$__abi_FunctorCapture@V<lambda_af8508c7722addee579d0ffcec46034b>@@XPE$AAUIAsyncAction@Foundation@Windows@@W4AsyncStatus@34@@Details@Platform@@UEAAPEAXI@Z 0000000180020d90 f i * CIL library *:* CIL module *
 0001:0001fd90       ??_G?$__abi_FunctorCapture@V<lambda_af8508c7722addee579d0ffcec46034b>@@XPE$AAUIAsyncAction@Foundation@Windows@@W4AsyncStatus@34@@Details@Platform@@UEAAPEAXI@Z 0000000180020d90 f i _nodert_generated.obj
 0001:0001fdf0       ??_E?$__abi_FunctorCapture@V<lambda_70c5370cca94cc9c04a5fde8327df7e8>@@XPE$AAU?$IAsyncOperation@PE$AAVUri@Foundation@Windows@@@Foundation@Windows@@W4AsyncStatus@34@@Details@Platform@@UEAAPEAXI@Z 0000000180020df0 f i * CIL library *:* CIL module *
 0001:0001fdf0       ??_G?$__abi_FunctorCapture@V<lambda_5788598dc246eca24bc8735a696d9b3a>@@XPE$AAU?$IAsyncOperation@PE$AAVString@Platform@@@Foundation@Windows@@W4AsyncStatus@34@@Details@Platform@@UEAAPEAXI@Z 0000000180020df0 f i _nodert_generated.obj
 0001:0001fdf0       ??_E?$__abi_FunctorCapture@V<lambda_e0cba0e0128fb4af122087e68d5a5f3f>@@XPE$AAU?$IAsyncOperation@W4SetImageFeedResult@UserProfile@System@Windows@@@Foundation@Windows@@W4AsyncStatus@34@@Details@Platform@@UEAAPEAXI@Z 0000000180020df0 f i * CIL library *:* CIL module *
 0001:0001fdf0       ??_E?$__abi_FunctorCapture@V<lambda_9c267cdafd8e064f323ec4e1c7ae30d4>@@XPE$AAU?$IAsyncOperation@_N@Foundation@Windows@@W4AsyncStatus@34@@Details@Platform@@UEAAPEAXI@Z 0000000180020df0 f i * CIL library *:* CIL module *
 0001:0001fdf0       ??_G?$__abi_FunctorCapture@V<lambda_9c267cdafd8e064f323ec4e1c7ae30d4>@@XPE$AAU?$IAsyncOperation@_N@Foundation@Windows@@W4AsyncStatus@34@@Details@Platform@@UEAAPEAXI@Z 0000000180020df0 f i _nodert_generated.obj
 0001:0001fdf0       ??_G?$__abi_FunctorCapture@V<lambda_db80035d952e9a216ce91aaae9489895>@@XPE$AAU?$IAsyncOperation@E@Foundation@Windows@@W4AsyncStatus@34@@Details@Platform@@UEAAPEAXI@Z 0000000180020df0 f i _nodert_generated.obj
 0001:0001fdf0       ??_E?$__abi_FunctorCapture@V<lambda_25518ce64e668348e750903f4cd6cc24>@@XPE$AAVObject@Platform@@PE$AAV23@@Details@Platform@@UEAAPEAXI@Z 0000000180020df0 f i * CIL library *:* CIL module *
 0001:0001fdf0       ??_E?$__abi_FunctorCapture@V<lambda_db80035d952e9a216ce91aaae9489895>@@XPE$AAU?$IAsyncOperation@E@Foundation@Windows@@W4AsyncStatus@34@@Details@Platform@@UEAAPEAXI@Z 0000000180020df0 f i * CIL library *:* CIL module *
 0001:0001fdf0       ??_E?$__abi_FunctorCapture@V<lambda_fb67dae22ed10e0de1c659f623c67076>@@XPE$AAU?$IAsyncOperation@W4SetAccountPictureResult@UserProfile@System@Windows@@@Foundation@Windows@@W4AsyncStatus@34@@Details@Platform@@UEAAPEAXI@Z 0000000180020df0 f i * CIL library *:* CIL module *
 0001:0001fdf0       ??_G?$__abi_FunctorCapture@V<lambda_e0cba0e0128fb4af122087e68d5a5f3f>@@XPE$AAU?$IAsyncOperation@W4SetImageFeedResult@UserProfile@System@Windows@@@Foundation@Windows@@W4AsyncStatus@34@@Details@Platform@@UEAAPEAXI@Z 0000000180020df0 f i _nodert_generated.obj
 0001:0001fdf0       ??_E?$__abi_FunctorCapture@V<lambda_5788598dc246eca24bc8735a696d9b3a>@@XPE$AAU?$IAsyncOperation@PE$AAVString@Platform@@@Foundation@Windows@@W4AsyncStatus@34@@Details@Platform@@UEAAPEAXI@Z 0000000180020df0 f i * CIL library *:* CIL module *
 0001:0001fdf0       ??_G?$__abi_FunctorCapture@V<lambda_fb67dae22ed10e0de1c659f623c67076>@@XPE$AAU?$IAsyncOperation@W4SetAccountPictureResult@UserProfile@System@Windows@@@Foundation@Windows@@W4AsyncStatus@34@@Details@Platform@@UEAAPEAXI@Z 0000000180020df0 f i _nodert_generated.obj
 0001:0001fdf0       ??_G?$__abi_FunctorCapture@V<lambda_70c5370cca94cc9c04a5fde8327df7e8>@@XPE$AAU?$IAsyncOperation@PE$AAVUri@Foundation@Windows@@@Foundation@Windows@@W4AsyncStatus@34@@Details@Platform@@UEAAPEAXI@Z 0000000180020df0 f i _nodert_generated.obj
 0001:0001fdf0       ??_G?$__abi_FunctorCapture@V<lambda_25518ce64e668348e750903f4cd6cc24>@@XPE$AAVObject@Platform@@PE$AAV23@@Details@Platform@@UEAAPEAXI@Z 0000000180020df0 f i _nodert_generated.obj
 0001:0001fe30       ??1?$__abi_FunctorCapture@V<lambda_fb67dae22ed10e0de1c659f623c67076>@@XPE$AAU?$IAsyncOperation@W4SetAccountPictureResult@UserProfile@System@Windows@@@Foundation@Windows@@W4AsyncStatus@34@@Details@Platform@@UEAA@XZ 0000000180020e30 f i _nodert_generated.obj
 0001:0001fe30       ??1?$__abi_FunctorCapture@V<lambda_25518ce64e668348e750903f4cd6cc24>@@XPE$AAVObject@Platform@@PE$AAV23@@Details@Platform@@UEAA@XZ 0000000180020e30 f i _nodert_generated.obj
 0001:0001fe30       ??1?$__abi_FunctorCapture@V<lambda_9c267cdafd8e064f323ec4e1c7ae30d4>@@XPE$AAU?$IAsyncOperation@_N@Foundation@Windows@@W4AsyncStatus@34@@Details@Platform@@UEAA@XZ 0000000180020e30 f i _nodert_generated.obj
 0001:0001fe30       ??1?$__abi_FunctorCapture@V<lambda_e0cba0e0128fb4af122087e68d5a5f3f>@@XPE$AAU?$IAsyncOperation@W4SetImageFeedResult@UserProfile@System@Windows@@@Foundation@Windows@@W4AsyncStatus@34@@Details@Platform@@UEAA@XZ 0000000180020e30 f i _nodert_generated.obj
 0001:0001fe30       ??1?$__abi_FunctorCapture@V<lambda_db80035d952e9a216ce91aaae9489895>@@XPE$AAU?$IAsyncOperation@E@Foundation@Windows@@W4AsyncStatus@34@@Details@Platform@@UEAA@XZ 0000000180020e30 f i _nodert_generated.obj
 0001:0001fe30       ??1?$__abi_FunctorCapture@V<lambda_5788598dc246eca24bc8735a696d9b3a>@@XPE$AAU?$IAsyncOperation@PE$AAVString@Platform@@@Foundation@Windows@@W4AsyncStatus@34@@Details@Platform@@UEAA@XZ 0000000180020e30 f i _nodert_generated.obj
 0001:0001fe30       ??1?$__abi_FunctorCapture@V<lambda_70c5370cca94cc9c04a5fde8327df7e8>@@XPE$AAU?$IAsyncOperation@PE$AAVUri@Foundation@Windows@@@Foundation@Windows@@W4AsyncStatus@34@@Details@Platform@@UEAA@XZ 0000000180020e30 f i _nodert_generated.obj
 0001:0001feb0       ?_Reset0@?$_Ptr_base@U?$_Task_impl@_N@details@Concurrency@@@std@@QEAAXPEAU?$_Task_impl@_N@details@Concurrency@@PEAV_Ref_count_base@2@@Z 0000000180020eb0 f i _nodert_generated.obj
 0001:0001feb0       ?_Reset0@?$_Ptr_base@U?$_Task_impl@PE$AAVString@Platform@@@details@Concurrency@@@std@@QEAAXPEAU?$_Task_impl@PE$AAVString@Platform@@@details@Concurrency@@PEAV_Ref_count_base@2@@Z 0000000180020eb0 f i _nodert_generated.obj
 0001:0001feb0       ?_Reset0@?$_Ptr_base@U?$_Task_impl@W4SetImageFeedResult@UserProfile@System@Windows@@@details@Concurrency@@@std@@QEAAXPEAU?$_Task_impl@W4SetImageFeedResult@UserProfile@System@Windows@@@details@Concurrency@@PEAV_Ref_count_base@2@@Z 0000000180020eb0 f i _nodert_generated.obj
 0001:0001feb0       ?_Reset0@?$_Ptr_base@U?$_Task_impl@E@details@Concurrency@@@std@@QEAAXPEAU?$_Task_impl@E@details@Concurrency@@PEAV_Ref_count_base@2@@Z 0000000180020eb0 f i _nodert_generated.obj
 0001:0001feb0       ?_Reset0@?$_Ptr_base@V?$Persistent@VObject@v8@@V?$NonCopyablePersistentTraits@VObject@v8@@@2@@Nan@@@std@@QEAAXPEAV?$Persistent@VObject@v8@@V?$NonCopyablePersistentTraits@VObject@v8@@@2@@Nan@@PEAV_Ref_count_base@2@@Z 0000000180020eb0 f i _nodert_generated.obj
 0001:0001feb0       ?_Reset0@?$_Ptr_base@U?$_Task_impl@W4SetAccountPictureResult@UserProfile@System@Windows@@@details@Concurrency@@@std@@QEAAXPEAU?$_Task_impl@W4SetAccountPictureResult@UserProfile@System@Windows@@@details@Concurrency@@PEAV_Ref_count_base@2@@Z 0000000180020eb0 f i _nodert_generated.obj
 0001:0001feb0       ?_Reset0@?$_Ptr_base@U?$_Task_impl@PE$AAVUri@Foundation@Windows@@@details@Concurrency@@@std@@QEAAXPEAU?$_Task_impl@PE$AAVUri@Foundation@Windows@@@details@Concurrency@@PEAV_Ref_count_base@2@@Z 0000000180020eb0 f i _nodert_generated.obj
 0001:0001feb0       ?_Reset0@?$_Ptr_base@Uscheduler_interface@Concurrency@@@std@@QEAAXPEAUscheduler_interface@Concurrency@@PEAV_Ref_count_base@2@@Z 0000000180020eb0 f i _nodert_generated.obj
 0001:0001feb0       ?_Reset0@?$_Ptr_base@U_ExceptionHolder@details@Concurrency@@@std@@QEAAXPEAU_ExceptionHolder@details@Concurrency@@PEAV_Ref_count_base@2@@Z 0000000180020eb0 f i _nodert_generated.obj
 0001:0001feb0       ?_Reset0@?$_Ptr_base@U_Task_impl_base@details@Concurrency@@@std@@QEAAXPEAU_Task_impl_base@details@Concurrency@@PEAV_Ref_count_base@2@@Z 0000000180020eb0 f i _nodert_generated.obj
 0001:0001ff40       ?_Swap@?$_Func_class@X$$V@std@@IEAAXAEAV12@@Z 0000000180020f40 f i _nodert_generated.obj
 0001:00020080       ??$_ThenImpl@XV?$function@$$A6AXV?$task@X@Concurrency@@@Z@std@@@?$task@E@Concurrency@@AEBA?AV?$task@X@1@AEBV?$function@$$A6AXV?$task@X@Concurrency@@@Z@std@@AEAU_ThenImplOptions@details@1@@Z 0000000180021080 f i _nodert_generated.obj
 0001:000201a0       ??$SetMethodAux@V?$Local@VObject@v8@@@v8@@@imp@Nan@@YAXV?$Local@VObject@v8@@@v8@@V?$Local@VString@v8@@@3@V?$Local@VFunctionTemplate@v8@@@3@ZZ 00000001800211a0 f i _nodert_generated.obj
 0001:00020210       ??$?0PE$AAU?$IAsyncOperation@_N@Foundation@Windows@@@?$task@_N@Concurrency@@QEAA@PE$AAU?$IAsyncOperation@_N@Foundation@Windows@@AEBVtask_options@1@@Z 0000000180021210 f i _nodert_generated.obj
 0001:000203e0       ??$_ThenImpl@_NV?$function@$$A6AXV?$task@_N@Concurrency@@@Z@std@@@?$task@_N@Concurrency@@AEBA?AV?$task@X@1@AEBV?$function@$$A6AXV?$task@_N@Concurrency@@@Z@std@@AEAU_ThenImplOptions@details@1@@Z 00000001800213e0 f i _nodert_generated.obj
 0001:00020500       ??$?0PE$AAU?$IAsyncOperation@W4SetAccountPictureResult@UserProfile@System@Windows@@@Foundation@Windows@@@?$task@W4SetAccountPictureResult@UserProfile@System@Windows@@@Concurrency@@QEAA@PE$AAU?$IAsyncOperation@W4SetAccountPictureResult@UserProfile@System@Windows@@@Foundation@Windows@@AEBVtask_options@1@@Z 0000000180021500 f i _nodert_generated.obj
 0001:000206d0       ??$_ThenImpl@W4SetAccountPictureResult@UserProfile@System@Windows@@V?$function@$$A6AXV?$task@W4SetAccountPictureResult@UserProfile@System@Windows@@@Concurrency@@@Z@std@@@?$task@W4SetAccountPictureResult@UserProfile@System@Windows@@@Concurrency@@AEBA?AV?$task@X@1@AEBV?$function@$$A6AXV?$task@W4SetAccountPictureResult@UserProfile@System@Windows@@@Concurrency@@@Z@std@@AEAU_ThenImplOptions@details@1@@Z 00000001800216d0 f i _nodert_generated.obj
 0001:000207f0       ??$?0PE$AAU?$IAsyncOperation@PE$AAVString@Platform@@@Foundation@Windows@@@?$task@PE$AAVString@Platform@@@Concurrency@@QEAA@PE$AAU?$IAsyncOperation@PE$AAVString@Platform@@@Foundation@Windows@@AEBVtask_options@1@@Z 00000001800217f0 f i _nodert_generated.obj
 0001:000209c0       ??$_ThenImpl@PE$AAVString@Platform@@V?$function@$$A6AXV?$task@PE$AAVString@Platform@@@Concurrency@@@Z@std@@@?$task@PE$AAVString@Platform@@@Concurrency@@AEBA?AV?$task@X@1@AEBV?$function@$$A6AXV?$task@PE$AAVString@Platform@@@Concurrency@@@Z@std@@AEAU_ThenImplOptions@details@1@@Z 00000001800219c0 f i _nodert_generated.obj
 0001:00020ae0       ??$?0PE$AAU?$IAsyncOperation@PE$AAVUri@Foundation@Windows@@@Foundation@Windows@@@?$task@PE$AAVUri@Foundation@Windows@@@Concurrency@@QEAA@PE$AAU?$IAsyncOperation@PE$AAVUri@Foundation@Windows@@@Foundation@Windows@@AEBVtask_options@1@@Z 0000000180021ae0 f i _nodert_generated.obj
 0001:00020cb0       ??$_ThenImpl@PE$AAVUri@Foundation@Windows@@V?$function@$$A6AXV?$task@PE$AAVUri@Foundation@Windows@@@Concurrency@@@Z@std@@@?$task@PE$AAVUri@Foundation@Windows@@@Concurrency@@AEBA?AV?$task@X@1@AEBV?$function@$$A6AXV?$task@PE$AAVUri@Foundation@Windows@@@Concurrency@@@Z@std@@AEAU_ThenImplOptions@details@1@@Z 0000000180021cb0 f i _nodert_generated.obj
 0001:00020dd0       ??$?0PE$AAU?$IAsyncOperation@W4SetImageFeedResult@UserProfile@System@Windows@@@Foundation@Windows@@@?$task@W4SetImageFeedResult@UserProfile@System@Windows@@@Concurrency@@QEAA@PE$AAU?$IAsyncOperation@W4SetImageFeedResult@UserProfile@System@Windows@@@Foundation@Windows@@AEBVtask_options@1@@Z 0000000180021dd0 f i _nodert_generated.obj
 0001:00020fa0       ??$_ThenImpl@W4SetImageFeedResult@UserProfile@System@Windows@@V?$function@$$A6AXV?$task@W4SetImageFeedResult@UserProfile@System@Windows@@@Concurrency@@@Z@std@@@?$task@W4SetImageFeedResult@UserProfile@System@Windows@@@Concurrency@@AEBA?AV?$task@X@1@AEBV?$function@$$A6AXV?$task@W4SetImageFeedResult@UserProfile@System@Windows@@@Concurrency@@@Z@std@@AEAU_ThenImplOptions@details@1@@Z 0000000180021fa0 f i _nodert_generated.obj
 0001:000210c0       ??$make_exception_ptr@PE$AAVException@Platform@@@std@@YA?AVexception_ptr@0@PE$AAVException@Platform@@@Z 00000001800220c0 f i _nodert_generated.obj
 0001:00021120       ??$?0V<lambda_db80035d952e9a216ce91aaae9489895>@@@?$AsyncOperationCompletedHandler@E@Foundation@Windows@@QE$AAA@V<lambda_db80035d952e9a216ce91aaae9489895>@@W4CallbackContext@Platform@@_N@Z 0000000180022120 f i _nodert_generated.obj
 0001:00021220       ??$?4V<lambda_fcddfbb588d6d178324b6e9cbb1f8253>@@XX@?$function@$$A6AXXZ@std@@QEAAAEAV01@$$QEAV<lambda_fcddfbb588d6d178324b6e9cbb1f8253>@@@Z 0000000180022220 f i _nodert_generated.obj
 0001:000212f0       ??_E?$_Ref_count_obj@U_ExceptionHolder@details@Concurrency@@@std@@UEAAPEAXI@Z 00000001800222f0 f i * CIL library *:* CIL module *
 0001:000212f0       ??_G?$_Ref_count_obj@U_ExceptionHolder@details@Concurrency@@@std@@UEAAPEAXI@Z 00000001800222f0 f i _nodert_generated.obj
 0001:00021320       ??_G?$_Ref_count_obj@U?$_Task_impl@PE$AAVUri@Foundation@Windows@@@details@Concurrency@@@std@@UEAAPEAXI@Z 0000000180022320 f i _nodert_generated.obj
 0001:00021320       ??_E?$_Ref_count_obj@U?$_Task_impl@PE$AAVString@Platform@@@details@Concurrency@@@std@@UEAAPEAXI@Z 0000000180022320 f i * CIL library *:* CIL module *
 0001:00021320       ??_G?$_Ref_count_obj@U?$_Task_impl@E@details@Concurrency@@@std@@UEAAPEAXI@Z 0000000180022320 f i _nodert_generated.obj
 0001:00021320       ??_E?$_Ref_count_obj@U?$_Task_impl@_N@details@Concurrency@@@std@@UEAAPEAXI@Z 0000000180022320 f i * CIL library *:* CIL module *
 0001:00021320       ??_G?$_Ref_count_obj@U?$_Task_impl@W4SetAccountPictureResult@UserProfile@System@Windows@@@details@Concurrency@@@std@@UEAAPEAXI@Z 0000000180022320 f i _nodert_generated.obj
 0001:00021320       ??_E?$_Ref_count_obj@U?$_Task_impl@E@details@Concurrency@@@std@@UEAAPEAXI@Z 0000000180022320 f i * CIL library *:* CIL module *
 0001:00021320       ??_E?$_Ref_count_obj@U?$_Task_impl@W4SetAccountPictureResult@UserProfile@System@Windows@@@details@Concurrency@@@std@@UEAAPEAXI@Z 0000000180022320 f i * CIL library *:* CIL module *
 0001:00021320       ??_G?$_Ref_count_obj@U?$_Task_impl@_N@details@Concurrency@@@std@@UEAAPEAXI@Z 0000000180022320 f i _nodert_generated.obj
 0001:00021320       ??_E?$_Ref_count_obj@U?$_Task_impl@PE$AAVUri@Foundation@Windows@@@details@Concurrency@@@std@@UEAAPEAXI@Z 0000000180022320 f i * CIL library *:* CIL module *
 0001:00021320       ??_G?$_Ref_count_obj@U?$_Task_impl@W4SetImageFeedResult@UserProfile@System@Windows@@@details@Concurrency@@@std@@UEAAPEAXI@Z 0000000180022320 f i _nodert_generated.obj
 0001:00021320       ??_E?$_Ref_count_obj@U?$_Task_impl@W4SetImageFeedResult@UserProfile@System@Windows@@@details@Concurrency@@@std@@UEAAPEAXI@Z 0000000180022320 f i * CIL library *:* CIL module *
 0001:00021320       ??_G?$_Ref_count_obj@U?$_Task_impl@PE$AAVString@Platform@@@details@Concurrency@@@std@@UEAAPEAXI@Z 0000000180022320 f i _nodert_generated.obj
 0001:00021350       ?Invoke@?$__abi_FunctorCapture@V<lambda_db80035d952e9a216ce91aaae9489895>@@XPE$AAU?$IAsyncOperation@E@Foundation@Windows@@W4AsyncStatus@34@@Details@Platform@@UEAAXPE$AAU?$IAsyncOperation@E@Foundation@Windows@@W4AsyncStatus@56@@Z 0000000180022350 f i _nodert_generated.obj
 0001:00021350       ?Invoke@?$__abi_FunctorCapture@V<lambda_9c267cdafd8e064f323ec4e1c7ae30d4>@@XPE$AAU?$IAsyncOperation@_N@Foundation@Windows@@W4AsyncStatus@34@@Details@Platform@@UEAAXPE$AAU?$IAsyncOperation@_N@Foundation@Windows@@W4AsyncStatus@56@@Z 0000000180022350 f i _nodert_generated.obj
 0001:00021360       ??0?$__abi_FunctorCapture@V<lambda_db80035d952e9a216ce91aaae9489895>@@XPE$AAU?$IAsyncOperation@E@Foundation@Windows@@W4AsyncStatus@34@@Details@Platform@@QEAA@V<lambda_db80035d952e9a216ce91aaae9489895>@@@Z 0000000180022360 f i _nodert_generated.obj
 0001:00021400       ?_GetTaskImplBase@?$_PPLTaskHandle@EU?$_ContinuationTaskHandle@XXV?$function@$$A6AXV?$task@X@Concurrency@@@Z@std@@U?$integral_constant@_N$00@2@U_TypeSelectorNoAsync@details@Concurrency@@@?$task@E@Concurrency@@U_ContinuationTaskHandleBase@details@3@@details@Concurrency@@UEBA?AV?$shared_ptr@U_Task_impl_base@details@Concurrency@@@std@@XZ 0000000180022400 f i _nodert_generated.obj
 0001:00021400       ?_GetTaskImplBase@?$_PPLTaskHandle@EU?$_ContinuationTaskHandle@W4SetAccountPictureResult@UserProfile@System@Windows@@XV?$function@$$A6AXV?$task@W4SetAccountPictureResult@UserProfile@System@Windows@@@Concurrency@@@Z@std@@U?$integral_constant@_N$00@6@U_TypeSelectorNoAsync@details@Concurrency@@@?$task@W4SetAccountPictureResult@UserProfile@System@Windows@@@Concurrency@@U_ContinuationTaskHandleBase@details@3@@details@Concurrency@@UEBA?AV?$shared_ptr@U_Task_impl_base@details@Concurrency@@@std@@XZ 0000000180022400 f i _nodert_generated.obj
 0001:00021400       ?_GetTaskImplBase@?$_PPLTaskHandle@EU?$_ContinuationTaskHandle@PE$AAVUri@Foundation@Windows@@XV?$function@$$A6AXV?$task@PE$AAVUri@Foundation@Windows@@@Concurrency@@@Z@std@@U?$integral_constant@_N$00@5@U_TypeSelectorNoAsync@details@Concurrency@@@?$task@PE$AAVUri@Foundation@Windows@@@Concurrency@@U_ContinuationTaskHandleBase@details@3@@details@Concurrency@@UEBA?AV?$shared_ptr@U_Task_impl_base@details@Concurrency@@@std@@XZ 0000000180022400 f i _nodert_generated.obj
 0001:00021400       ?_GetTaskImplBase@?$_PPLTaskHandle@EU?$_ContinuationTaskHandle@W4SetImageFeedResult@UserProfile@System@Windows@@XV?$function@$$A6AXV?$task@W4SetImageFeedResult@UserProfile@System@Windows@@@Concurrency@@@Z@std@@U?$integral_constant@_N$00@6@U_TypeSelectorNoAsync@details@Concurrency@@@?$task@W4SetImageFeedResult@UserProfile@System@Windows@@@Concurrency@@U_ContinuationTaskHandleBase@details@3@@details@Concurrency@@UEBA?AV?$shared_ptr@U_Task_impl_base@details@Concurrency@@@std@@XZ 0000000180022400 f i _nodert_generated.obj
 0001:00021400       ?_GetTaskImplBase@?$_PPLTaskHandle@EU?$_ContinuationTaskHandle@_NXV?$function@$$A6AXV?$task@_N@Concurrency@@@Z@std@@U?$integral_constant@_N$00@2@U_TypeSelectorNoAsync@details@Concurrency@@@?$task@_N@Concurrency@@U_ContinuationTaskHandleBase@details@3@@details@Concurrency@@UEBA?AV?$shared_ptr@U_Task_impl_base@details@Concurrency@@@std@@XZ 0000000180022400 f i _nodert_generated.obj
 0001:00021400       ?_GetTaskImplBase@?$_PPLTaskHandle@EU?$_ContinuationTaskHandle@PE$AAVString@Platform@@XV?$function@$$A6AXV?$task@PE$AAVString@Platform@@@Concurrency@@@Z@std@@U?$integral_constant@_N$00@4@U_TypeSelectorNoAsync@details@Concurrency@@@?$task@PE$AAVString@Platform@@@Concurrency@@U_ContinuationTaskHandleBase@details@3@@details@Concurrency@@UEBA?AV?$shared_ptr@U_Task_impl_base@details@Concurrency@@@std@@XZ 0000000180022400 f i _nodert_generated.obj
 0001:00021440       ?invoke@?$_PPLTaskHandle@EU?$_ContinuationTaskHandle@W4SetImageFeedResult@UserProfile@System@Windows@@XV?$function@$$A6AXV?$task@W4SetImageFeedResult@UserProfile@System@Windows@@@Concurrency@@@Z@std@@U?$integral_constant@_N$00@6@U_TypeSelectorNoAsync@details@Concurrency@@@?$task@W4SetImageFeedResult@UserProfile@System@Windows@@@Concurrency@@U_ContinuationTaskHandleBase@details@3@@details@Concurrency@@UEBAXXZ 0000000180022440 f i _nodert_generated.obj
 0001:00021530       ??1?$_PPLTaskHandle@EU?$_ContinuationTaskHandle@W4SetImageFeedResult@UserProfile@System@Windows@@XV?$function@$$A6AXV?$task@W4SetImageFeedResult@UserProfile@System@Windows@@@Concurrency@@@Z@std@@U?$integral_constant@_N$00@6@U_TypeSelectorNoAsync@details@Concurrency@@@?$task@W4SetImageFeedResult@UserProfile@System@Windows@@@Concurrency@@U_ContinuationTaskHandleBase@details@3@@details@Concurrency@@UEAA@XZ 0000000180022530 f i _nodert_generated.obj
 0001:000215d0       ??1?$_ContinuationTaskHandle@W4SetImageFeedResult@UserProfile@System@Windows@@XV?$function@$$A6AXV?$task@W4SetImageFeedResult@UserProfile@System@Windows@@@Concurrency@@@Z@std@@U?$integral_constant@_N$00@6@U_TypeSelectorNoAsync@details@Concurrency@@@?$task@W4SetImageFeedResult@UserProfile@System@Windows@@@Concurrency@@UEAA@XZ 00000001800225d0 f i _nodert_generated.obj
 0001:00021690       ??0?$_ContinuationTaskHandle@W4SetImageFeedResult@UserProfile@System@Windows@@XV?$function@$$A6AXV?$task@W4SetImageFeedResult@UserProfile@System@Windows@@@Concurrency@@@Z@std@@U?$integral_constant@_N$00@6@U_TypeSelectorNoAsync@details@Concurrency@@@?$task@W4SetImageFeedResult@UserProfile@System@Windows@@@Concurrency@@QEAA@AEBV?$shared_ptr@U?$_Task_impl@W4SetImageFeedResult@UserProfile@System@Windows@@@details@Concurrency@@@std@@AEBV?$shared_ptr@U?$_Task_impl@E@details@Concurrency@@@4@AEBV?$function@$$A6AXV?$task@W4SetImageFeedResult@UserProfile@System@Windows@@@Concurrency@@@Z@4@AEBVtask_continuation_context@2@W4_TaskInliningMode@details@2@@Z 0000000180022690 f i _nodert_generated.obj
 0001:000217b0       ?_Destroy@?$_Ref_count_del@V?$Persistent@VObject@v8@@V?$NonCopyablePersistentTraits@VObject@v8@@@2@@Nan@@V<lambda_9a5068aaf379780d6b6b94ab8a1eb0ff>@@@std@@EEAAXXZ 00000001800227b0 f i _nodert_generated.obj
 0001:000217f0       ?_Get_deleter@?$_Ref_count_del@V?$Persistent@VObject@v8@@V?$NonCopyablePersistentTraits@VObject@v8@@@2@@Nan@@V<lambda_9a5068aaf379780d6b6b94ab8a1eb0ff>@@@std@@UEBAPEAXAEBVtype_info@@@Z 00000001800227f0 f i _nodert_generated.obj
 0001:00021820       ?invoke@?$_PPLTaskHandle@EU?$_ContinuationTaskHandle@PE$AAVUri@Foundation@Windows@@XV?$function@$$A6AXV?$task@PE$AAVUri@Foundation@Windows@@@Concurrency@@@Z@std@@U?$integral_constant@_N$00@5@U_TypeSelectorNoAsync@details@Concurrency@@@?$task@PE$AAVUri@Foundation@Windows@@@Concurrency@@U_ContinuationTaskHandleBase@details@3@@details@Concurrency@@UEBAXXZ 0000000180022820 f i _nodert_generated.obj
 0001:00021910       ??1?$_PPLTaskHandle@EU?$_ContinuationTaskHandle@PE$AAVUri@Foundation@Windows@@XV?$function@$$A6AXV?$task@PE$AAVUri@Foundation@Windows@@@Concurrency@@@Z@std@@U?$integral_constant@_N$00@5@U_TypeSelectorNoAsync@details@Concurrency@@@?$task@PE$AAVUri@Foundation@Windows@@@Concurrency@@U_ContinuationTaskHandleBase@details@3@@details@Concurrency@@UEAA@XZ 0000000180022910 f i _nodert_generated.obj
 0001:000219b0       ??1?$_ContinuationTaskHandle@PE$AAVUri@Foundation@Windows@@XV?$function@$$A6AXV?$task@PE$AAVUri@Foundation@Windows@@@Concurrency@@@Z@std@@U?$integral_constant@_N$00@5@U_TypeSelectorNoAsync@details@Concurrency@@@?$task@PE$AAVUri@Foundation@Windows@@@Concurrency@@UEAA@XZ 00000001800229b0 f i _nodert_generated.obj
 0001:00021a70       ??0?$_ContinuationTaskHandle@PE$AAVUri@Foundation@Windows@@XV?$function@$$A6AXV?$task@PE$AAVUri@Foundation@Windows@@@Concurrency@@@Z@std@@U?$integral_constant@_N$00@5@U_TypeSelectorNoAsync@details@Concurrency@@@?$task@PE$AAVUri@Foundation@Windows@@@Concurrency@@QEAA@AEBV?$shared_ptr@U?$_Task_impl@PE$AAVUri@Foundation@Windows@@@details@Concurrency@@@std@@AEBV?$shared_ptr@U?$_Task_impl@E@details@Concurrency@@@4@AEBV?$function@$$A6AXV?$task@PE$AAVUri@Foundation@Windows@@@Concurrency@@@Z@4@AEBVtask_continuation_context@2@W4_TaskInliningMode@details@2@@Z 0000000180022a70 f i _nodert_generated.obj
 0001:00021b90       ?invoke@?$_PPLTaskHandle@EU?$_ContinuationTaskHandle@PE$AAVString@Platform@@XV?$function@$$A6AXV?$task@PE$AAVString@Platform@@@Concurrency@@@Z@std@@U?$integral_constant@_N$00@4@U_TypeSelectorNoAsync@details@Concurrency@@@?$task@PE$AAVString@Platform@@@Concurrency@@U_ContinuationTaskHandleBase@details@3@@details@Concurrency@@UEBAXXZ 0000000180022b90 f i _nodert_generated.obj
 0001:00021c80       ??1?$_PPLTaskHandle@EU?$_ContinuationTaskHandle@PE$AAVString@Platform@@XV?$function@$$A6AXV?$task@PE$AAVString@Platform@@@Concurrency@@@Z@std@@U?$integral_constant@_N$00@4@U_TypeSelectorNoAsync@details@Concurrency@@@?$task@PE$AAVString@Platform@@@Concurrency@@U_ContinuationTaskHandleBase@details@3@@details@Concurrency@@UEAA@XZ 0000000180022c80 f i _nodert_generated.obj
 0001:00021d20       ??1?$_ContinuationTaskHandle@PE$AAVString@Platform@@XV?$function@$$A6AXV?$task@PE$AAVString@Platform@@@Concurrency@@@Z@std@@U?$integral_constant@_N$00@4@U_TypeSelectorNoAsync@details@Concurrency@@@?$task@PE$AAVString@Platform@@@Concurrency@@UEAA@XZ 0000000180022d20 f i _nodert_generated.obj
 0001:00021dc0       ??0?$_ContinuationTaskHandle@PE$AAVString@Platform@@XV?$function@$$A6AXV?$task@PE$AAVString@Platform@@@Concurrency@@@Z@std@@U?$integral_constant@_N$00@4@U_TypeSelectorNoAsync@details@Concurrency@@@?$task@PE$AAVString@Platform@@@Concurrency@@QEAA@AEBV?$shared_ptr@U?$_Task_impl@PE$AAVString@Platform@@@details@Concurrency@@@std@@AEBV?$shared_ptr@U?$_Task_impl@E@details@Concurrency@@@4@AEBV?$function@$$A6AXV?$task@PE$AAVString@Platform@@@Concurrency@@@Z@4@AEBVtask_continuation_context@2@W4_TaskInliningMode@details@2@@Z 0000000180022dc0 f i _nodert_generated.obj
 0001:00021ec0       ?invoke@?$_PPLTaskHandle@EU?$_ContinuationTaskHandle@W4SetAccountPictureResult@UserProfile@System@Windows@@XV?$function@$$A6AXV?$task@W4SetAccountPictureResult@UserProfile@System@Windows@@@Concurrency@@@Z@std@@U?$integral_constant@_N$00@6@U_TypeSelectorNoAsync@details@Concurrency@@@?$task@W4SetAccountPictureResult@UserProfile@System@Windows@@@Concurrency@@U_ContinuationTaskHandleBase@details@3@@details@Concurrency@@UEBAXXZ 0000000180022ec0 f i _nodert_generated.obj
 0001:00021fb0       ??1?$_PPLTaskHandle@EU?$_ContinuationTaskHandle@W4SetAccountPictureResult@UserProfile@System@Windows@@XV?$function@$$A6AXV?$task@W4SetAccountPictureResult@UserProfile@System@Windows@@@Concurrency@@@Z@std@@U?$integral_constant@_N$00@6@U_TypeSelectorNoAsync@details@Concurrency@@@?$task@W4SetAccountPictureResult@UserProfile@System@Windows@@@Concurrency@@U_ContinuationTaskHandleBase@details@3@@details@Concurrency@@UEAA@XZ 0000000180022fb0 f i _nodert_generated.obj
 0001:00022050       ??1?$_ContinuationTaskHandle@W4SetAccountPictureResult@UserProfile@System@Windows@@XV?$function@$$A6AXV?$task@W4SetAccountPictureResult@UserProfile@System@Windows@@@Concurrency@@@Z@std@@U?$integral_constant@_N$00@6@U_TypeSelectorNoAsync@details@Concurrency@@@?$task@W4SetAccountPictureResult@UserProfile@System@Windows@@@Concurrency@@UEAA@XZ 0000000180023050 f i _nodert_generated.obj
 0001:000220f0       ??0?$_ContinuationTaskHandle@W4SetAccountPictureResult@UserProfile@System@Windows@@XV?$function@$$A6AXV?$task@W4SetAccountPictureResult@UserProfile@System@Windows@@@Concurrency@@@Z@std@@U?$integral_constant@_N$00@6@U_TypeSelectorNoAsync@details@Concurrency@@@?$task@W4SetAccountPictureResult@UserProfile@System@Windows@@@Concurrency@@QEAA@AEBV?$shared_ptr@U?$_Task_impl@W4SetAccountPictureResult@UserProfile@System@Windows@@@details@Concurrency@@@std@@AEBV?$shared_ptr@U?$_Task_impl@E@details@Concurrency@@@4@AEBV?$function@$$A6AXV?$task@W4SetAccountPictureResult@UserProfile@System@Windows@@@Concurrency@@@Z@4@AEBVtask_continuation_context@2@W4_TaskInliningMode@details@2@@Z 00000001800230f0 f i _nodert_generated.obj
 0001:000221f0       ?invoke@?$_PPLTaskHandle@EU?$_ContinuationTaskHandle@_NXV?$function@$$A6AXV?$task@_N@Concurrency@@@Z@std@@U?$integral_constant@_N$00@2@U_TypeSelectorNoAsync@details@Concurrency@@@?$task@_N@Concurrency@@U_ContinuationTaskHandleBase@details@3@@details@Concurrency@@UEBAXXZ 00000001800231f0 f i _nodert_generated.obj
 0001:000222e0       ??1?$_PPLTaskHandle@EU?$_ContinuationTaskHandle@_NXV?$function@$$A6AXV?$task@_N@Concurrency@@@Z@std@@U?$integral_constant@_N$00@2@U_TypeSelectorNoAsync@details@Concurrency@@@?$task@_N@Concurrency@@U_ContinuationTaskHandleBase@details@3@@details@Concurrency@@UEAA@XZ 00000001800232e0 f i _nodert_generated.obj
 0001:00022380       ??1?$_ContinuationTaskHandle@_NXV?$function@$$A6AXV?$task@_N@Concurrency@@@Z@std@@U?$integral_constant@_N$00@2@U_TypeSelectorNoAsync@details@Concurrency@@@?$task@_N@Concurrency@@UEAA@XZ 0000000180023380 f i _nodert_generated.obj
 0001:00022420       ??0?$_ContinuationTaskHandle@_NXV?$function@$$A6AXV?$task@_N@Concurrency@@@Z@std@@U?$integral_constant@_N$00@2@U_TypeSelectorNoAsync@details@Concurrency@@@?$task@_N@Concurrency@@QEAA@AEBV?$shared_ptr@U?$_Task_impl@_N@details@Concurrency@@@std@@AEBV?$shared_ptr@U?$_Task_impl@E@details@Concurrency@@@4@AEBV?$function@$$A6AXV?$task@_N@Concurrency@@@Z@4@AEBVtask_continuation_context@2@W4_TaskInliningMode@details@2@@Z 0000000180023420 f i _nodert_generated.obj
 0001:00022520       ?_Destroy@?$_Ref_count_del@XP6AHPEAX@Z@std@@EEAAXXZ 0000000180023520 f i _nodert_generated.obj
 0001:00022530       ?_Get_deleter@?$_Ref_count_del@XP6AHPEAX@Z@std@@UEBAPEAXAEBVtype_info@@@Z 0000000180023530 f i _nodert_generated.obj
 0001:00022560       ?invoke@?$_PPLTaskHandle@EU?$_ContinuationTaskHandle@XXV?$function@$$A6AXV?$task@X@Concurrency@@@Z@std@@U?$integral_constant@_N$00@2@U_TypeSelectorNoAsync@details@Concurrency@@@?$task@E@Concurrency@@U_ContinuationTaskHandleBase@details@3@@details@Concurrency@@UEBAXXZ 0000000180023560 f i _nodert_generated.obj
 0001:00022650       ??1?$_PPLTaskHandle@EU?$_ContinuationTaskHandle@XXV?$function@$$A6AXV?$task@X@Concurrency@@@Z@std@@U?$integral_constant@_N$00@2@U_TypeSelectorNoAsync@details@Concurrency@@@?$task@E@Concurrency@@U_ContinuationTaskHandleBase@details@3@@details@Concurrency@@UEAA@XZ 0000000180023650 f i _nodert_generated.obj
 0001:000226f0       ??1?$_ContinuationTaskHandle@XXV?$function@$$A6AXV?$task@X@Concurrency@@@Z@std@@U?$integral_constant@_N$00@2@U_TypeSelectorNoAsync@details@Concurrency@@@?$task@E@Concurrency@@UEAA@XZ 00000001800236f0 f i _nodert_generated.obj
 0001:00022790       ??0?$_ContinuationTaskHandle@XXV?$function@$$A6AXV?$task@X@Concurrency@@@Z@std@@U?$integral_constant@_N$00@2@U_TypeSelectorNoAsync@details@Concurrency@@@?$task@E@Concurrency@@QEAA@AEBV?$shared_ptr@U?$_Task_impl@E@details@Concurrency@@@std@@0AEBV?$function@$$A6AXV?$task@X@Concurrency@@@Z@4@AEBVtask_continuation_context@2@W4_TaskInliningMode@details@2@@Z 0000000180023790 f i _nodert_generated.obj
 0001:00022890       ?_CreateImpl@?$task@W4SetImageFeedResult@UserProfile@System@Windows@@@Concurrency@@QEAAXPEAV_CancellationTokenState@details@2@Uscheduler_ptr@2@@Z 0000000180023890 f i _nodert_generated.obj
 0001:000229d0       ?_CreateImpl@?$task@PE$AAVUri@Foundation@Windows@@@Concurrency@@QEAAXPEAV_CancellationTokenState@details@2@Uscheduler_ptr@2@@Z 00000001800239d0 f i _nodert_generated.obj
 0001:00022b10       ?_CreateImpl@?$task@PE$AAVString@Platform@@@Concurrency@@QEAAXPEAV_CancellationTokenState@details@2@Uscheduler_ptr@2@@Z 0000000180023b10 f i _nodert_generated.obj
 0001:00022c50       ?_CreateImpl@?$task@W4SetAccountPictureResult@UserProfile@System@Windows@@@Concurrency@@QEAAXPEAV_CancellationTokenState@details@2@Uscheduler_ptr@2@@Z 0000000180023c50 f i _nodert_generated.obj
 0001:00022d90       ?_CreateImpl@?$task@_N@Concurrency@@QEAAXPEAV_CancellationTokenState@details@2@Uscheduler_ptr@2@@Z 0000000180023d90 f i _nodert_generated.obj
 0001:00022ed0       ??0?$_Task_impl@E@details@Concurrency@@QEAA@PEAV_CancellationTokenState@12@Uscheduler_ptr@2@@Z 0000000180023ed0 f i _nodert_generated.obj
 0001:00022f80       ??_G?$_PPLTaskHandle@EU?$_ContinuationTaskHandle@W4SetImageFeedResult@UserProfile@System@Windows@@XV?$function@$$A6AXV?$task@W4SetImageFeedResult@UserProfile@System@Windows@@@Concurrency@@@Z@std@@U?$integral_constant@_N$00@6@U_TypeSelectorNoAsync@details@Concurrency@@@?$task@W4SetImageFeedResult@UserProfile@System@Windows@@@Concurrency@@U_ContinuationTaskHandleBase@details@3@@details@Concurrency@@UEAAPEAXI@Z 0000000180023f80 f i _nodert_generated.obj
 0001:00022f80       ??_E?$_PPLTaskHandle@EU?$_ContinuationTaskHandle@W4SetImageFeedResult@UserProfile@System@Windows@@XV?$function@$$A6AXV?$task@W4SetImageFeedResult@UserProfile@System@Windows@@@Concurrency@@@Z@std@@U?$integral_constant@_N$00@6@U_TypeSelectorNoAsync@details@Concurrency@@@?$task@W4SetImageFeedResult@UserProfile@System@Windows@@@Concurrency@@U_ContinuationTaskHandleBase@details@3@@details@Concurrency@@UEAAPEAXI@Z 0000000180023f80 f i * CIL library *:* CIL module *
 0001:00022fc0       ??_E?$_ContinuationTaskHandle@W4SetImageFeedResult@UserProfile@System@Windows@@XV?$function@$$A6AXV?$task@W4SetImageFeedResult@UserProfile@System@Windows@@@Concurrency@@@Z@std@@U?$integral_constant@_N$00@6@U_TypeSelectorNoAsync@details@Concurrency@@@?$task@W4SetImageFeedResult@UserProfile@System@Windows@@@Concurrency@@UEAAPEAXI@Z 0000000180023fc0 f i * CIL library *:* CIL module *
 0001:00022fc0       ??_G?$_ContinuationTaskHandle@W4SetImageFeedResult@UserProfile@System@Windows@@XV?$function@$$A6AXV?$task@W4SetImageFeedResult@UserProfile@System@Windows@@@Concurrency@@@Z@std@@U?$integral_constant@_N$00@6@U_TypeSelectorNoAsync@details@Concurrency@@@?$task@W4SetImageFeedResult@UserProfile@System@Windows@@@Concurrency@@UEAAPEAXI@Z 0000000180023fc0 f i _nodert_generated.obj
 0001:00023000       ??_G?$_Ref_count_del@V?$Persistent@VObject@v8@@V?$NonCopyablePersistentTraits@VObject@v8@@@2@@Nan@@V<lambda_9a5068aaf379780d6b6b94ab8a1eb0ff>@@@std@@UEAAPEAXI@Z 0000000180024000 f i _nodert_generated.obj
 0001:00023000       ??_E?$_Ref_count_del@V?$Persistent@VObject@v8@@V?$NonCopyablePersistentTraits@VObject@v8@@@2@@Nan@@V<lambda_9a5068aaf379780d6b6b94ab8a1eb0ff>@@@std@@UEAAPEAXI@Z 0000000180024000 f i * CIL library *:* CIL module *
 0001:00023030       ??_E?$_PPLTaskHandle@EU?$_ContinuationTaskHandle@PE$AAVUri@Foundation@Windows@@XV?$function@$$A6AXV?$task@PE$AAVUri@Foundation@Windows@@@Concurrency@@@Z@std@@U?$integral_constant@_N$00@5@U_TypeSelectorNoAsync@details@Concurrency@@@?$task@PE$AAVUri@Foundation@Windows@@@Concurrency@@U_ContinuationTaskHandleBase@details@3@@details@Concurrency@@UEAAPEAXI@Z 0000000180024030 f i * CIL library *:* CIL module *
 0001:00023030       ??_G?$_PPLTaskHandle@EU?$_ContinuationTaskHandle@PE$AAVUri@Foundation@Windows@@XV?$function@$$A6AXV?$task@PE$AAVUri@Foundation@Windows@@@Concurrency@@@Z@std@@U?$integral_constant@_N$00@5@U_TypeSelectorNoAsync@details@Concurrency@@@?$task@PE$AAVUri@Foundation@Windows@@@Concurrency@@U_ContinuationTaskHandleBase@details@3@@details@Concurrency@@UEAAPEAXI@Z 0000000180024030 f i _nodert_generated.obj
 0001:00023070       ??_G?$_ContinuationTaskHandle@PE$AAVUri@Foundation@Windows@@XV?$function@$$A6AXV?$task@PE$AAVUri@Foundation@Windows@@@Concurrency@@@Z@std@@U?$integral_constant@_N$00@5@U_TypeSelectorNoAsync@details@Concurrency@@@?$task@PE$AAVUri@Foundation@Windows@@@Concurrency@@UEAAPEAXI@Z 0000000180024070 f i _nodert_generated.obj
 0001:00023070       ??_E?$_ContinuationTaskHandle@PE$AAVUri@Foundation@Windows@@XV?$function@$$A6AXV?$task@PE$AAVUri@Foundation@Windows@@@Concurrency@@@Z@std@@U?$integral_constant@_N$00@5@U_TypeSelectorNoAsync@details@Concurrency@@@?$task@PE$AAVUri@Foundation@Windows@@@Concurrency@@UEAAPEAXI@Z 0000000180024070 f i * CIL library *:* CIL module *
 0001:000230b0       ??_G?$_PPLTaskHandle@EU?$_ContinuationTaskHandle@PE$AAVString@Platform@@XV?$function@$$A6AXV?$task@PE$AAVString@Platform@@@Concurrency@@@Z@std@@U?$integral_constant@_N$00@4@U_TypeSelectorNoAsync@details@Concurrency@@@?$task@PE$AAVString@Platform@@@Concurrency@@U_ContinuationTaskHandleBase@details@3@@details@Concurrency@@UEAAPEAXI@Z 00000001800240b0 f i _nodert_generated.obj
 0001:000230b0       ??_E?$_PPLTaskHandle@EU?$_ContinuationTaskHandle@PE$AAVString@Platform@@XV?$function@$$A6AXV?$task@PE$AAVString@Platform@@@Concurrency@@@Z@std@@U?$integral_constant@_N$00@4@U_TypeSelectorNoAsync@details@Concurrency@@@?$task@PE$AAVString@Platform@@@Concurrency@@U_ContinuationTaskHandleBase@details@3@@details@Concurrency@@UEAAPEAXI@Z 00000001800240b0 f i * CIL library *:* CIL module *
 0001:000230f0       ??_G?$_ContinuationTaskHandle@PE$AAVString@Platform@@XV?$function@$$A6AXV?$task@PE$AAVString@Platform@@@Concurrency@@@Z@std@@U?$integral_constant@_N$00@4@U_TypeSelectorNoAsync@details@Concurrency@@@?$task@PE$AAVString@Platform@@@Concurrency@@UEAAPEAXI@Z 00000001800240f0 f i _nodert_generated.obj
 0001:000230f0       ??_E?$_ContinuationTaskHandle@PE$AAVString@Platform@@XV?$function@$$A6AXV?$task@PE$AAVString@Platform@@@Concurrency@@@Z@std@@U?$integral_constant@_N$00@4@U_TypeSelectorNoAsync@details@Concurrency@@@?$task@PE$AAVString@Platform@@@Concurrency@@UEAAPEAXI@Z 00000001800240f0 f i * CIL library *:* CIL module *
 0001:00023130       ??_E?$_PPLTaskHandle@EU?$_ContinuationTaskHandle@W4SetAccountPictureResult@UserProfile@System@Windows@@XV?$function@$$A6AXV?$task@W4SetAccountPictureResult@UserProfile@System@Windows@@@Concurrency@@@Z@std@@U?$integral_constant@_N$00@6@U_TypeSelectorNoAsync@details@Concurrency@@@?$task@W4SetAccountPictureResult@UserProfile@System@Windows@@@Concurrency@@U_ContinuationTaskHandleBase@details@3@@details@Concurrency@@UEAAPEAXI@Z 0000000180024130 f i * CIL library *:* CIL module *
 0001:00023130       ??_G?$_PPLTaskHandle@EU?$_ContinuationTaskHandle@W4SetAccountPictureResult@UserProfile@System@Windows@@XV?$function@$$A6AXV?$task@W4SetAccountPictureResult@UserProfile@System@Windows@@@Concurrency@@@Z@std@@U?$integral_constant@_N$00@6@U_TypeSelectorNoAsync@details@Concurrency@@@?$task@W4SetAccountPictureResult@UserProfile@System@Windows@@@Concurrency@@U_ContinuationTaskHandleBase@details@3@@details@Concurrency@@UEAAPEAXI@Z 0000000180024130 f i _nodert_generated.obj
 0001:00023170       ??_E?$_ContinuationTaskHandle@W4SetAccountPictureResult@UserProfile@System@Windows@@XV?$function@$$A6AXV?$task@W4SetAccountPictureResult@UserProfile@System@Windows@@@Concurrency@@@Z@std@@U?$integral_constant@_N$00@6@U_TypeSelectorNoAsync@details@Concurrency@@@?$task@W4SetAccountPictureResult@UserProfile@System@Windows@@@Concurrency@@UEAAPEAXI@Z 0000000180024170 f i * CIL library *:* CIL module *
 0001:00023170       ??_G?$_ContinuationTaskHandle@W4SetAccountPictureResult@UserProfile@System@Windows@@XV?$function@$$A6AXV?$task@W4SetAccountPictureResult@UserProfile@System@Windows@@@Concurrency@@@Z@std@@U?$integral_constant@_N$00@6@U_TypeSelectorNoAsync@details@Concurrency@@@?$task@W4SetAccountPictureResult@UserProfile@System@Windows@@@Concurrency@@UEAAPEAXI@Z 0000000180024170 f i _nodert_generated.obj
 0001:000231b0       ??_G?$_PPLTaskHandle@EU?$_ContinuationTaskHandle@_NXV?$function@$$A6AXV?$task@_N@Concurrency@@@Z@std@@U?$integral_constant@_N$00@2@U_TypeSelectorNoAsync@details@Concurrency@@@?$task@_N@Concurrency@@U_ContinuationTaskHandleBase@details@3@@details@Concurrency@@UEAAPEAXI@Z 00000001800241b0 f i _nodert_generated.obj
 0001:000231b0       ??_E?$_PPLTaskHandle@EU?$_ContinuationTaskHandle@_NXV?$function@$$A6AXV?$task@_N@Concurrency@@@Z@std@@U?$integral_constant@_N$00@2@U_TypeSelectorNoAsync@details@Concurrency@@@?$task@_N@Concurrency@@U_ContinuationTaskHandleBase@details@3@@details@Concurrency@@UEAAPEAXI@Z 00000001800241b0 f i * CIL library *:* CIL module *
 0001:000231f0       ??_E?$_ContinuationTaskHandle@_NXV?$function@$$A6AXV?$task@_N@Concurrency@@@Z@std@@U?$integral_constant@_N$00@2@U_TypeSelectorNoAsync@details@Concurrency@@@?$task@_N@Concurrency@@UEAAPEAXI@Z 00000001800241f0 f i * CIL library *:* CIL module *
 0001:000231f0       ??_G?$_ContinuationTaskHandle@_NXV?$function@$$A6AXV?$task@_N@Concurrency@@@Z@std@@U?$integral_constant@_N$00@2@U_TypeSelectorNoAsync@details@Concurrency@@@?$task@_N@Concurrency@@UEAAPEAXI@Z 00000001800241f0 f i _nodert_generated.obj
 0001:00023230       ??_E?$_Ref_count_del@XP6AHPEAX@Z@std@@UEAAPEAXI@Z 0000000180024230 f i * CIL library *:* CIL module *
 0001:00023230       ??_G?$_Ref_count_del@XP6AHPEAX@Z@std@@UEAAPEAXI@Z 0000000180024230 f i _nodert_generated.obj
 0001:00023260       ??_E?$_PPLTaskHandle@EU?$_ContinuationTaskHandle@XXV?$function@$$A6AXV?$task@X@Concurrency@@@Z@std@@U?$integral_constant@_N$00@2@U_TypeSelectorNoAsync@details@Concurrency@@@?$task@E@Concurrency@@U_ContinuationTaskHandleBase@details@3@@details@Concurrency@@UEAAPEAXI@Z 0000000180024260 f i * CIL library *:* CIL module *
 0001:00023260       ??_G?$_PPLTaskHandle@EU?$_ContinuationTaskHandle@XXV?$function@$$A6AXV?$task@X@Concurrency@@@Z@std@@U?$integral_constant@_N$00@2@U_TypeSelectorNoAsync@details@Concurrency@@@?$task@E@Concurrency@@U_ContinuationTaskHandleBase@details@3@@details@Concurrency@@UEAAPEAXI@Z 0000000180024260 f i _nodert_generated.obj
 0001:000232a0       ??_G?$_ContinuationTaskHandle@XXV?$function@$$A6AXV?$task@X@Concurrency@@@Z@std@@U?$integral_constant@_N$00@2@U_TypeSelectorNoAsync@details@Concurrency@@@?$task@E@Concurrency@@UEAAPEAXI@Z 00000001800242a0 f i _nodert_generated.obj
 0001:000232a0       ??_E?$_ContinuationTaskHandle@XXV?$function@$$A6AXV?$task@X@Concurrency@@@Z@std@@U?$integral_constant@_N$00@2@U_TypeSelectorNoAsync@details@Concurrency@@@?$task@E@Concurrency@@UEAAPEAXI@Z 00000001800242a0 f i * CIL library *:* CIL module *
 0001:000232e0       ??0?$_PPLTaskHandle@EU?$_ContinuationTaskHandle@W4SetImageFeedResult@UserProfile@System@Windows@@XV?$function@$$A6AXV?$task@W4SetImageFeedResult@UserProfile@System@Windows@@@Concurrency@@@Z@std@@U?$integral_constant@_N$00@6@U_TypeSelectorNoAsync@details@Concurrency@@@?$task@W4SetImageFeedResult@UserProfile@System@Windows@@@Concurrency@@U_ContinuationTaskHandleBase@details@3@@details@Concurrency@@QEAA@AEBV?$shared_ptr@U?$_Task_impl@E@details@Concurrency@@@std@@@Z 00000001800242e0 f i _nodert_generated.obj
 0001:00023370       ??0?$_PPLTaskHandle@EU?$_ContinuationTaskHandle@PE$AAVUri@Foundation@Windows@@XV?$function@$$A6AXV?$task@PE$AAVUri@Foundation@Windows@@@Concurrency@@@Z@std@@U?$integral_constant@_N$00@5@U_TypeSelectorNoAsync@details@Concurrency@@@?$task@PE$AAVUri@Foundation@Windows@@@Concurrency@@U_ContinuationTaskHandleBase@details@3@@details@Concurrency@@QEAA@AEBV?$shared_ptr@U?$_Task_impl@E@details@Concurrency@@@std@@@Z 0000000180024370 f i _nodert_generated.obj
 0001:00023400       ??0?$_PPLTaskHandle@EU?$_ContinuationTaskHandle@PE$AAVString@Platform@@XV?$function@$$A6AXV?$task@PE$AAVString@Platform@@@Concurrency@@@Z@std@@U?$integral_constant@_N$00@4@U_TypeSelectorNoAsync@details@Concurrency@@@?$task@PE$AAVString@Platform@@@Concurrency@@U_ContinuationTaskHandleBase@details@3@@details@Concurrency@@QEAA@AEBV?$shared_ptr@U?$_Task_impl@E@details@Concurrency@@@std@@@Z 0000000180024400 f i _nodert_generated.obj
 0001:00023490       ??0?$_PPLTaskHandle@EU?$_ContinuationTaskHandle@W4SetAccountPictureResult@UserProfile@System@Windows@@XV?$function@$$A6AXV?$task@W4SetAccountPictureResult@UserProfile@System@Windows@@@Concurrency@@@Z@std@@U?$integral_constant@_N$00@6@U_TypeSelectorNoAsync@details@Concurrency@@@?$task@W4SetAccountPictureResult@UserProfile@System@Windows@@@Concurrency@@U_ContinuationTaskHandleBase@details@3@@details@Concurrency@@QEAA@AEBV?$shared_ptr@U?$_Task_impl@E@details@Concurrency@@@std@@@Z 0000000180024490 f i _nodert_generated.obj
 0001:00023520       ??0?$_PPLTaskHandle@EU?$_ContinuationTaskHandle@_NXV?$function@$$A6AXV?$task@_N@Concurrency@@@Z@std@@U?$integral_constant@_N$00@2@U_TypeSelectorNoAsync@details@Concurrency@@@?$task@_N@Concurrency@@U_ContinuationTaskHandleBase@details@3@@details@Concurrency@@QEAA@AEBV?$shared_ptr@U?$_Task_impl@E@details@Concurrency@@@std@@@Z 0000000180024520 f i _nodert_generated.obj
 0001:000235b0       ??0?$_PPLTaskHandle@EU?$_ContinuationTaskHandle@XXV?$function@$$A6AXV?$task@X@Concurrency@@@Z@std@@U?$integral_constant@_N$00@2@U_TypeSelectorNoAsync@details@Concurrency@@@?$task@E@Concurrency@@U_ContinuationTaskHandleBase@details@3@@details@Concurrency@@QEAA@AEBV?$shared_ptr@U?$_Task_impl@E@details@Concurrency@@@std@@@Z 00000001800245b0 f i _nodert_generated.obj
 0001:00023640       ?_Make@?$_Task_ptr@W4SetImageFeedResult@UserProfile@System@Windows@@@details@Concurrency@@SA?AV?$shared_ptr@U?$_Task_impl@W4SetImageFeedResult@UserProfile@System@Windows@@@details@Concurrency@@@std@@PEAV_CancellationTokenState@23@Uscheduler_ptr@3@@Z 0000000180024640 f i _nodert_generated.obj
 0001:000236d0       ?_Make@?$_Task_ptr@PE$AAVUri@Foundation@Windows@@@details@Concurrency@@SA?AV?$shared_ptr@U?$_Task_impl@PE$AAVUri@Foundation@Windows@@@details@Concurrency@@@std@@PEAV_CancellationTokenState@23@Uscheduler_ptr@3@@Z 00000001800246d0 f i _nodert_generated.obj
 0001:00023760       ?_Make@?$_Task_ptr@PE$AAVString@Platform@@@details@Concurrency@@SA?AV?$shared_ptr@U?$_Task_impl@PE$AAVString@Platform@@@details@Concurrency@@@std@@PEAV_CancellationTokenState@23@Uscheduler_ptr@3@@Z 0000000180024760 f i _nodert_generated.obj
 0001:000237f0       ?_Make@?$_Task_ptr@W4SetAccountPictureResult@UserProfile@System@Windows@@@details@Concurrency@@SA?AV?$shared_ptr@U?$_Task_impl@W4SetAccountPictureResult@UserProfile@System@Windows@@@details@Concurrency@@@std@@PEAV_CancellationTokenState@23@Uscheduler_ptr@3@@Z 00000001800247f0 f i _nodert_generated.obj
 0001:00023880       ?_Make@?$_Task_ptr@_N@details@Concurrency@@SA?AV?$shared_ptr@U?$_Task_impl@_N@details@Concurrency@@@std@@PEAV_CancellationTokenState@23@Uscheduler_ptr@3@@Z 0000000180024880 f i _nodert_generated.obj
 0001:00023910       ?_Continue@?$_ContinuationTaskHandle@W4SetImageFeedResult@UserProfile@System@Windows@@XV?$function@$$A6AXV?$task@W4SetImageFeedResult@UserProfile@System@Windows@@@Concurrency@@@Z@std@@U?$integral_constant@_N$00@6@U_TypeSelectorNoAsync@details@Concurrency@@@?$task@W4SetImageFeedResult@UserProfile@System@Windows@@@Concurrency@@QEBAXU?$integral_constant@_N$00@std@@U_TypeSelectorNoAsync@details@3@@Z 0000000180024910 f i _nodert_generated.obj
 0001:00023a70       ?_Continue@?$_ContinuationTaskHandle@PE$AAVUri@Foundation@Windows@@XV?$function@$$A6AXV?$task@PE$AAVUri@Foundation@Windows@@@Concurrency@@@Z@std@@U?$integral_constant@_N$00@5@U_TypeSelectorNoAsync@details@Concurrency@@@?$task@PE$AAVUri@Foundation@Windows@@@Concurrency@@QEBAXU?$integral_constant@_N$00@std@@U_TypeSelectorNoAsync@details@3@@Z 0000000180024a70 f i _nodert_generated.obj
 0001:00023bd0       ?_Continue@?$_ContinuationTaskHandle@PE$AAVString@Platform@@XV?$function@$$A6AXV?$task@PE$AAVString@Platform@@@Concurrency@@@Z@std@@U?$integral_constant@_N$00@4@U_TypeSelectorNoAsync@details@Concurrency@@@?$task@PE$AAVString@Platform@@@Concurrency@@QEBAXU?$integral_constant@_N$00@std@@U_TypeSelectorNoAsync@details@3@@Z 0000000180024bd0 f i _nodert_generated.obj
 0001:00023d40       ?_Continue@?$_ContinuationTaskHandle@W4SetAccountPictureResult@UserProfile@System@Windows@@XV?$function@$$A6AXV?$task@W4SetAccountPictureResult@UserProfile@System@Windows@@@Concurrency@@@Z@std@@U?$integral_constant@_N$00@6@U_TypeSelectorNoAsync@details@Concurrency@@@?$task@W4SetAccountPictureResult@UserProfile@System@Windows@@@Concurrency@@QEBAXU?$integral_constant@_N$00@std@@U_TypeSelectorNoAsync@details@3@@Z 0000000180024d40 f i _nodert_generated.obj
 0001:00023eb0       ?_Continue@?$_ContinuationTaskHandle@_NXV?$function@$$A6AXV?$task@_N@Concurrency@@@Z@std@@U?$integral_constant@_N$00@2@U_TypeSelectorNoAsync@details@Concurrency@@@?$task@_N@Concurrency@@QEBAXU?$integral_constant@_N$00@std@@U_TypeSelectorNoAsync@details@3@@Z 0000000180024eb0 f i _nodert_generated.obj
 0001:00024020       ?_Continue@?$_ContinuationTaskHandle@XXV?$function@$$A6AXV?$task@X@Concurrency@@@Z@std@@U?$integral_constant@_N$00@2@U_TypeSelectorNoAsync@details@Concurrency@@@?$task@E@Concurrency@@QEBAXU?$integral_constant@_N$00@std@@U_TypeSelectorNoAsync@details@3@@Z 0000000180025020 f i _nodert_generated.obj
 0001:00024190       ??1?$function@$$A6AEV?$task@X@Concurrency@@@Z@std@@QEAA@XZ 0000000180025190 f i _nodert_generated.obj
 0001:00024190       ??1?$_Func_class@EV?$task@X@Concurrency@@@std@@QEAA@XZ 0000000180025190 f i _nodert_generated.obj
 0001:000241a0       ?_Perform@?$_Continuation_func_transformer@V?$task@X@Concurrency@@X@Concurrency@@SA?AV?$function@$$A6AEV?$task@X@Concurrency@@@Z@std@@V?$function@$$A6AXV?$task@X@Concurrency@@@Z@4@@Z 00000001800251a0 f i _nodert_generated.obj
 0001:00024200       ??1?$_Func_class@EV?$task@_N@Concurrency@@@std@@QEAA@XZ 0000000180025200 f i _nodert_generated.obj
 0001:00024200       ??1?$function@$$A6AEV?$task@_N@Concurrency@@@Z@std@@QEAA@XZ 0000000180025200 f i _nodert_generated.obj
 0001:00024210       ?_Perform@?$_Continuation_func_transformer@V?$task@_N@Concurrency@@X@Concurrency@@SA?AV?$function@$$A6AEV?$task@_N@Concurrency@@@Z@std@@V?$function@$$A6AXV?$task@_N@Concurrency@@@Z@4@@Z 0000000180025210 f i _nodert_generated.obj
 0001:00024270       ??1?$function@$$A6AEV?$task@W4SetAccountPictureResult@UserProfile@System@Windows@@@Concurrency@@@Z@std@@QEAA@XZ 0000000180025270 f i _nodert_generated.obj
 0001:00024270       ??1?$_Func_class@EV?$task@W4SetAccountPictureResult@UserProfile@System@Windows@@@Concurrency@@@std@@QEAA@XZ 0000000180025270 f i _nodert_generated.obj
 0001:00024280       ?_Perform@?$_Continuation_func_transformer@V?$task@W4SetAccountPictureResult@UserProfile@System@Windows@@@Concurrency@@X@Concurrency@@SA?AV?$function@$$A6AEV?$task@W4SetAccountPictureResult@UserProfile@System@Windows@@@Concurrency@@@Z@std@@V?$function@$$A6AXV?$task@W4SetAccountPictureResult@UserProfile@System@Windows@@@Concurrency@@@Z@4@@Z 0000000180025280 f i _nodert_generated.obj
 0001:000242e0       ??1?$_Func_class@EV?$task@PE$AAVString@Platform@@@Concurrency@@@std@@QEAA@XZ 00000001800252e0 f i _nodert_generated.obj
 0001:000242e0       ??1?$function@$$A6AEV?$task@PE$AAVString@Platform@@@Concurrency@@@Z@std@@QEAA@XZ 00000001800252e0 f i _nodert_generated.obj
 0001:000242f0       ?_Perform@?$_Continuation_func_transformer@V?$task@PE$AAVString@Platform@@@Concurrency@@X@Concurrency@@SA?AV?$function@$$A6AEV?$task@PE$AAVString@Platform@@@Concurrency@@@Z@std@@V?$function@$$A6AXV?$task@PE$AAVString@Platform@@@Concurrency@@@Z@4@@Z 00000001800252f0 f i _nodert_generated.obj
 0001:00024350       ??1?$_Func_class@EV?$task@PE$AAVUri@Foundation@Windows@@@Concurrency@@@std@@QEAA@XZ 0000000180025350 f i _nodert_generated.obj
 0001:00024350       ??1?$function@$$A6AEV?$task@PE$AAVUri@Foundation@Windows@@@Concurrency@@@Z@std@@QEAA@XZ 0000000180025350 f i _nodert_generated.obj
 0001:00024390       ?_Perform@?$_Continuation_func_transformer@V?$task@PE$AAVUri@Foundation@Windows@@@Concurrency@@X@Concurrency@@SA?AV?$function@$$A6AEV?$task@PE$AAVUri@Foundation@Windows@@@Concurrency@@@Z@std@@V?$function@$$A6AXV?$task@PE$AAVUri@Foundation@Windows@@@Concurrency@@@Z@4@@Z 0000000180025390 f i _nodert_generated.obj
 0001:00024410       ??1?$_Func_class@EV?$task@W4SetImageFeedResult@UserProfile@System@Windows@@@Concurrency@@@std@@QEAA@XZ 0000000180025410 f i _nodert_generated.obj
 0001:00024410       ??1?$function@$$A6AEV?$task@W4SetImageFeedResult@UserProfile@System@Windows@@@Concurrency@@@Z@std@@QEAA@XZ 0000000180025410 f i _nodert_generated.obj
 0001:00024450       ?_Perform@?$_Continuation_func_transformer@V?$task@W4SetImageFeedResult@UserProfile@System@Windows@@@Concurrency@@X@Concurrency@@SA?AV?$function@$$A6AEV?$task@W4SetImageFeedResult@UserProfile@System@Windows@@@Concurrency@@@Z@std@@V?$function@$$A6AXV?$task@W4SetImageFeedResult@UserProfile@System@Windows@@@Concurrency@@@Z@4@@Z 0000000180025450 f i _nodert_generated.obj
 0001:000244d0       ?_Tidy@?$_Func_class@EV?$task@X@Concurrency@@@std@@IEAAXXZ 00000001800254d0 f i _nodert_generated.obj
 0001:00024550       ?_Tidy@?$_Func_class@EV?$task@_N@Concurrency@@@std@@IEAAXXZ 0000000180025550 f i _nodert_generated.obj
 0001:000245d0       ?_Tidy@?$_Func_class@EV?$task@W4SetAccountPictureResult@UserProfile@System@Windows@@@Concurrency@@@std@@IEAAXXZ 00000001800255d0 f i _nodert_generated.obj
 0001:00024650       ?_Tidy@?$_Func_class@EV?$task@PE$AAVString@Platform@@@Concurrency@@@std@@IEAAXXZ 0000000180025650 f i _nodert_generated.obj
 0001:000246d0       ??$make_shared@U?$_Task_impl@W4SetImageFeedResult@UserProfile@System@Windows@@@details@Concurrency@@AEAPEAV_CancellationTokenState@23@AEAUscheduler_ptr@3@@std@@YA?AV?$shared_ptr@U?$_Task_impl@W4SetImageFeedResult@UserProfile@System@Windows@@@details@Concurrency@@@0@AEAPEAV_CancellationTokenState@details@Concurrency@@AEAUscheduler_ptr@4@@Z 00000001800256d0 f i _nodert_generated.obj
 0001:000247c0       ??$make_shared@U?$_Task_impl@PE$AAVUri@Foundation@Windows@@@details@Concurrency@@AEAPEAV_CancellationTokenState@23@AEAUscheduler_ptr@3@@std@@YA?AV?$shared_ptr@U?$_Task_impl@PE$AAVUri@Foundation@Windows@@@details@Concurrency@@@0@AEAPEAV_CancellationTokenState@details@Concurrency@@AEAUscheduler_ptr@4@@Z 00000001800257c0 f i _nodert_generated.obj
 0001:000248b0       ??$make_shared@U?$_Task_impl@PE$AAVString@Platform@@@details@Concurrency@@AEAPEAV_CancellationTokenState@23@AEAUscheduler_ptr@3@@std@@YA?AV?$shared_ptr@U?$_Task_impl@PE$AAVString@Platform@@@details@Concurrency@@@0@AEAPEAV_CancellationTokenState@details@Concurrency@@AEAUscheduler_ptr@4@@Z 00000001800258b0 f i _nodert_generated.obj
 0001:000249a0       ??$make_shared@U?$_Task_impl@W4SetAccountPictureResult@UserProfile@System@Windows@@@details@Concurrency@@AEAPEAV_CancellationTokenState@23@AEAUscheduler_ptr@3@@std@@YA?AV?$shared_ptr@U?$_Task_impl@W4SetAccountPictureResult@UserProfile@System@Windows@@@details@Concurrency@@@0@AEAPEAV_CancellationTokenState@details@Concurrency@@AEAUscheduler_ptr@4@@Z 00000001800259a0 f i _nodert_generated.obj
 0001:00024a90       ??$make_shared@U?$_Task_impl@_N@details@Concurrency@@AEAPEAV_CancellationTokenState@23@AEAUscheduler_ptr@3@@std@@YA?AV?$shared_ptr@U?$_Task_impl@_N@details@Concurrency@@@0@AEAPEAV_CancellationTokenState@details@Concurrency@@AEAUscheduler_ptr@4@@Z 0000000180025a90 f i _nodert_generated.obj
 0001:00024b80       ??$_MakeTToUnitFunc@V?$task@W4SetImageFeedResult@UserProfile@System@Windows@@@Concurrency@@@details@Concurrency@@YA?AV?$function@$$A6AEV?$task@W4SetImageFeedResult@UserProfile@System@Windows@@@Concurrency@@@Z@std@@AEBV?$function@$$A6AXV?$task@W4SetImageFeedResult@UserProfile@System@Windows@@@Concurrency@@@Z@3@@Z 0000000180025b80 f i _nodert_generated.obj
 0001:00024ca0       ??$_MakeTToUnitFunc@V?$task@PE$AAVUri@Foundation@Windows@@@Concurrency@@@details@Concurrency@@YA?AV?$function@$$A6AEV?$task@PE$AAVUri@Foundation@Windows@@@Concurrency@@@Z@std@@AEBV?$function@$$A6AXV?$task@PE$AAVUri@Foundation@Windows@@@Concurrency@@@Z@3@@Z 0000000180025ca0 f i _nodert_generated.obj
 0001:00024dc0       ??$_MakeTToUnitFunc@V?$task@PE$AAVString@Platform@@@Concurrency@@@details@Concurrency@@YA?AV?$function@$$A6AEV?$task@PE$AAVString@Platform@@@Concurrency@@@Z@std@@AEBV?$function@$$A6AXV?$task@PE$AAVString@Platform@@@Concurrency@@@Z@3@@Z 0000000180025dc0 f i _nodert_generated.obj
 0001:00024f40       ??$_MakeTToUnitFunc@V?$task@W4SetAccountPictureResult@UserProfile@System@Windows@@@Concurrency@@@details@Concurrency@@YA?AV?$function@$$A6AEV?$task@W4SetAccountPictureResult@UserProfile@System@Windows@@@Concurrency@@@Z@std@@AEBV?$function@$$A6AXV?$task@W4SetAccountPictureResult@UserProfile@System@Windows@@@Concurrency@@@Z@3@@Z 0000000180025f40 f i _nodert_generated.obj
 0001:00024fd0       ??$_MakeTToUnitFunc@V?$task@_N@Concurrency@@@details@Concurrency@@YA?AV?$function@$$A6AEV?$task@_N@Concurrency@@@Z@std@@AEBV?$function@$$A6AXV?$task@_N@Concurrency@@@Z@3@@Z 0000000180025fd0 f i _nodert_generated.obj
 0001:00025060       ??$_MakeTToUnitFunc@V?$task@X@Concurrency@@@details@Concurrency@@YA?AV?$function@$$A6AEV?$task@X@Concurrency@@@Z@std@@AEBV?$function@$$A6AXV?$task@X@Concurrency@@@Z@3@@Z 0000000180026060 f i _nodert_generated.obj
 0001:000251f0       ?_Delete_this@?$_Func_impl@V<lambda_7c85cdcc7b722a73124a4747dd95cece>@@V?$allocator@H@std@@V?$Local@VValue@v8@@@v8@@PE$AAU?$IKeyValuePair@PE$AAVString@Platform@@PE$AAVObject@2@@Collections@Foundation@Windows@@@std@@EEAAX_N@Z 00000001800261f0 f i _nodert_generated.obj
 0001:00025220       ?_Get@?$_Func_impl@V<lambda_83d3d7b70820dd48fe4cc6e62c961ea6>@@V?$allocator@H@std@@XV?$function@$$A6AXHPEAV?$Local@VValue@v8@@@v8@@@Z@3@@std@@EEBAPEBXXZ 0000000180026220 f i _nodert_generated.obj
 0001:00025220       ?_Get@?$_Func_impl@V<lambda_e9925fcb3d885ef5d135703b17266fe6>@@V?$allocator@H@std@@EV?$task@W4SetAccountPictureResult@UserProfile@System@Windows@@@Concurrency@@@std@@EEBAPEBXXZ 0000000180026220 f i _nodert_generated.obj
 0001:00025220       ?_Get@?$_Func_impl@V<lambda_24e96e65de0221e212c62b01719a71c5>@@V?$allocator@H@std@@XV?$task@W4SetAccountPictureResult@UserProfile@System@Windows@@@Concurrency@@@std@@EEBAPEBXXZ 0000000180026220 f i _nodert_generated.obj
 0001:00025220       ?_Get@?$_Func_impl@V<lambda_18b2633ead7fc6f6e4469ed3eeb4e6fa>@@V?$allocator@H@std@@XV?$function@$$A6AXHPEAV?$Local@VValue@v8@@@v8@@@Z@3@@std@@EEBAPEBXXZ 0000000180026220 f i _nodert_generated.obj
 0001:00025220       ?_Get@?$_Func_impl@V<lambda_90b09dac011223b89e660207ea92210b>@@V?$allocator@H@std@@XV?$function@$$A6AXHPEAV?$Local@VValue@v8@@@v8@@@Z@3@@std@@EEBAPEBXXZ 0000000180026220 f i _nodert_generated.obj
 0001:00025220       ?_Get@?$_Func_impl@V<lambda_7fe100d452bfc50bc5609b497b51776a>@@V?$allocator@H@std@@XV?$task@PE$AAVString@Platform@@@Concurrency@@@std@@EEBAPEBXXZ 0000000180026220 f i _nodert_generated.obj
 0001:00025220       ?_Get@?$_Func_impl@V<lambda_92e205d7db2179ec6d65e88270e1e91c>@@V?$allocator@H@std@@XV?$task@PE$AAVString@Platform@@@Concurrency@@@std@@EEBAPEBXXZ 0000000180026220 f i _nodert_generated.obj
 0001:00025220       ?_Get@?$_Func_impl@V<lambda_587670df7112283a5c24be1cf3e10d12>@@V?$allocator@H@std@@V?$Local@VValue@v8@@@v8@@PE$AAVObject@Platform@@@std@@EEBAPEBXXZ 0000000180026220 f i _nodert_generated.obj
 0001:00025220       ?_Get@?$_Func_impl@V<lambda_77c2d008ad3a4cbef47859d7b5cd645e>@@V?$allocator@H@std@@XV?$task@X@Concurrency@@@std@@EEBAPEBXXZ 0000000180026220 f i _nodert_generated.obj
 0001:00025220       ?_Get@?$_Func_impl@V<lambda_5cd250c4e6f910ea43081ee63870250a>@@V?$allocator@H@std@@XV?$function@$$A6AXHPEAV?$Local@VValue@v8@@@v8@@@Z@3@@std@@EEBAPEBXXZ 0000000180026220 f i _nodert_generated.obj
 0001:00025220       ?_Get@?$_Func_impl@V<lambda_8beb44cf918d84b3ab274f7936494749>@@V?$allocator@H@std@@XV?$function@$$A6AXHPEAV?$Local@VValue@v8@@@v8@@@Z@3@@std@@EEBAPEBXXZ 0000000180026220 f i _nodert_generated.obj
 0001:00025220       ?_Get@?$_Func_impl@V<lambda_18fe36498142698896b2505f11ad50c3>@@V?$allocator@H@std@@_NV?$Local@VValue@v8@@@v8@@@std@@EEBAPEBXXZ 0000000180026220 f i _nodert_generated.obj
 0001:00025220       ?_Get@?$_Func_impl@V<lambda_ac0fbf381b812e535c5187d22631972a>@@V?$allocator@H@std@@X$$V@std@@EEBAPEBXXZ 0000000180026220 f i _nodert_generated.obj
 0001:00025220       ?_Get@?$_Func_impl@V<lambda_f3af825ce7732aca5e01be2fe411dff0>@@V?$allocator@H@std@@PE$AAVString@Platform@@V?$Local@VValue@v8@@@v8@@@std@@EEBAPEBXXZ 0000000180026220 f i _nodert_generated.obj
 0001:00025220       ?_Get@?$_Func_impl@V<lambda_05094e775daa4fff3e8cfe85cffce6d0>@@V?$allocator@H@std@@XV?$function@$$A6AXHPEAV?$Local@VValue@v8@@@v8@@@Z@3@@std@@EEBAPEBXXZ 0000000180026220 f i _nodert_generated.obj
 0001:00025220       ?_Get@?$_Func_impl@V<lambda_14a9c0ba59923c0da6a7a331b40a12a7>@@V?$allocator@H@std@@XV?$function@$$A6AXHPEAV?$Local@VValue@v8@@@v8@@@Z@3@@std@@EEBAPEBXXZ 0000000180026220 f i _nodert_generated.obj
 0001:00025220       ?_Get@?$_Func_impl@V<lambda_bb3ea35c7a129712676a4a6472ecdc6a>@@V?$allocator@H@std@@X$$V@std@@EEBAPEBXXZ 0000000180026220 f i _nodert_generated.obj
 0001:00025220       ?_Get@?$_Func_impl@V<lambda_e135d44f95a3367d5ad1b22011e27c85>@@V?$allocator@H@std@@XV?$task@PE$AAVString@Platform@@@Concurrency@@@std@@EEBAPEBXXZ 0000000180026220 f i _nodert_generated.obj
 0001:00025220       ?_Get@?$_Func_impl@V<lambda_790fb16f6c871e6c2624916e0240bd11>@@V?$allocator@H@std@@XV?$function@$$A6AXHPEAV?$Local@VValue@v8@@@v8@@@Z@3@@std@@EEBAPEBXXZ 0000000180026220 f i _nodert_generated.obj
 0001:00025220       ?_Get@?$_Func_impl@V<lambda_0a4cdb8f1c9e05c22050feac4901f75f>@@V?$allocator@H@std@@V?$Local@VValue@v8@@@v8@@PE$AAVString@Platform@@@std@@EEBAPEBXXZ 0000000180026220 f i _nodert_generated.obj
 0001:00025220       ?_Get@?$_Func_impl@V<lambda_897d889871fbdfd64b4d57af573b0f8b>@@V?$allocator@H@std@@X$$V@std@@EEBAPEBXXZ 0000000180026220 f i _nodert_generated.obj
 0001:00025220       ?_Get@?$_Func_impl@V<lambda_10c4459c2f81eb5b686592d24c9f1c09>@@V?$allocator@H@std@@PE$AAVString@Platform@@V?$Local@VValue@v8@@@v8@@@std@@EEBAPEBXXZ 0000000180026220 f i _nodert_generated.obj
 0001:00025220       ?_Get@?$_Func_impl@V<lambda_713d43ab4c57f2fa914cada6953956e0>@@V?$allocator@H@std@@XV?$function@$$A6AXHPEAV?$Local@VValue@v8@@@v8@@@Z@3@@std@@EEBAPEBXXZ 0000000180026220 f i _nodert_generated.obj
 0001:00025220       ?_Get@?$_Func_impl@V<lambda_dcad5dba0a743a99876a5c6849440f1f>@@V?$allocator@H@std@@XV?$function@$$A6AXHPEAV?$Local@VValue@v8@@@v8@@@Z@3@@std@@EEBAPEBXXZ 0000000180026220 f i _nodert_generated.obj
 0001:00025220       ?_Get@?$_Func_impl@V<lambda_b0459761a89b1478eff3530a12ff80c5>@@V?$allocator@H@std@@XV?$function@$$A6AXHPEAV?$Local@VValue@v8@@@v8@@@Z@3@@std@@EEBAPEBXXZ 0000000180026220 f i _nodert_generated.obj
 0001:00025220       ?_Get@?$_Func_impl@V<lambda_fcddfbb588d6d178324b6e9cbb1f8253>@@V?$allocator@H@std@@X$$V@std@@EEBAPEBXXZ 0000000180026220 f i _nodert_generated.obj
 0001:00025220       ?_Get@?$_Func_impl@V<lambda_fc55a96778b695da9907353a9fdacbca>@@V?$allocator@H@std@@X$$V@std@@EEBAPEBXXZ 0000000180026220 f i _nodert_generated.obj
 0001:00025220       ?_Get@?$_Func_impl@V<lambda_b360fbdf5b4ffbfcd8c64068c8670886>@@V?$allocator@H@std@@V?$Local@VValue@v8@@@v8@@PE$AAVString@Platform@@@std@@EEBAPEBXXZ 0000000180026220 f i _nodert_generated.obj
 0001:00025220       ?_Get@?$_Func_impl@V<lambda_1af583cf6945007177c61d87505abd8e>@@V?$allocator@H@std@@XHPEAV?$Local@VValue@v8@@@v8@@@std@@EEBAPEBXXZ 0000000180026220 f i _nodert_generated.obj
 0001:00025220       ?_Get@?$_Func_impl@V<lambda_5a6aa9a858230c5449dfcdc2049eeb97>@@V?$allocator@H@std@@EV?$task@PE$AAVUri@Foundation@Windows@@@Concurrency@@@std@@EEBAPEBXXZ 0000000180026220 f i _nodert_generated.obj
 0001:00025220       ?_Get@?$_Func_impl@V<lambda_34316d8807e26dc07711d920bbc983e2>@@V?$allocator@H@std@@XV?$function@$$A6AXHPEAV?$Local@VValue@v8@@@v8@@@Z@3@@std@@EEBAPEBXXZ 0000000180026220 f i _nodert_generated.obj
 0001:00025220       ?_Get@?$_Func_impl@V<lambda_621e08f071ba6e5d5373417c49677dca>@@V?$allocator@H@std@@XV?$function@$$A6AXHPEAV?$Local@VValue@v8@@@v8@@@Z@3@@std@@EEBAPEBXXZ 0000000180026220 f i _nodert_generated.obj
 0001:00025220       ?_Get@?$_Func_impl@V<lambda_f22ae8650c56c333ae2e36071b93234d>@@V?$allocator@H@std@@XV?$task@W4SetAccountPictureResult@UserProfile@System@Windows@@@Concurrency@@@std@@EEBAPEBXXZ 0000000180026220 f i _nodert_generated.obj
 0001:00025220       ?_Get@?$_Func_impl@V<lambda_eb54b70ebb75077bd41b4b5eb7f9699c>@@V?$allocator@H@std@@PE$AAVString@Platform@@V?$Local@VValue@v8@@@v8@@@std@@EEBAPEBXXZ 0000000180026220 f i _nodert_generated.obj
 0001:00025220       ?_Get@?$_Func_impl@V<lambda_eb246f27357fe68214346abbac0891b9>@@V?$allocator@H@std@@XV?$function@$$A6AXHPEAV?$Local@VValue@v8@@@v8@@@Z@3@@std@@EEBAPEBXXZ 0000000180026220 f i _nodert_generated.obj
 0001:00025220       ?_Get@?$_Func_impl@V<lambda_fc0d6554ea59c755c55dae328d38f34b>@@V?$allocator@H@std@@X$$V@std@@EEBAPEBXXZ 0000000180026220 f i _nodert_generated.obj
 0001:00025220       ?_Get@?$_Func_impl@V<lambda_d8c8bc66ae64912877885a1264c60903>@@V?$allocator@H@std@@_NV?$Local@VValue@v8@@@v8@@@std@@EEBAPEBXXZ 0000000180026220 f i _nodert_generated.obj
 0001:00025220       ?_Get@?$_Func_impl@V<lambda_824e81c3567191544e8b6219b1196035>@@V?$allocator@H@std@@X$$V@std@@EEBAPEBXXZ 0000000180026220 f i _nodert_generated.obj
 0001:00025220       ?_Get@?$_Func_impl@V<lambda_4ccdb47b7f1ffbf2ccf188975fda679b>@@V?$allocator@H@std@@XV?$function@$$A6AXHPEAV?$Local@VValue@v8@@@v8@@@Z@3@@std@@EEBAPEBXXZ 0000000180026220 f i _nodert_generated.obj
 0001:00025220       ?_Get@?$_Func_impl@V<lambda_d4a8bb1d3b7ec2bea7766c2745f0ce11>@@V?$allocator@H@std@@EV?$task@X@Concurrency@@@std@@EEBAPEBXXZ 0000000180026220 f i _nodert_generated.obj
 0001:00025220       ?_Get@?$_Func_impl@V<lambda_cbae8c6cf33875e01c338a5f99abe71d>@@V?$allocator@H@std@@XV?$task@X@Concurrency@@@std@@EEBAPEBXXZ 0000000180026220 f i _nodert_generated.obj
 0001:00025220       ?_Get@?$_Func_impl@V<lambda_d3f551485d104f6ae14b804d71843104>@@V?$allocator@H@std@@XV?$function@$$A6AXHPEAV?$Local@VValue@v8@@@v8@@@Z@3@@std@@EEBAPEBXXZ 0000000180026220 f i _nodert_generated.obj
 0001:00025220       ?_Get@?$_Func_impl@V<lambda_49d40b44faff285b2ab5bf950335b63e>@@V?$allocator@H@std@@V?$Local@VValue@v8@@@v8@@PE$AAU?$IKeyValuePair@PE$AAVString@Platform@@PE$AAVObject@2@@Collections@Foundation@Windows@@@std@@EEBAPEBXXZ 0000000180026220 f i _nodert_generated.obj
 0001:00025220       ?_Get@?$_Func_impl@V<lambda_58626b52514f991d8245102f56304a1b>@@V?$allocator@H@std@@X$$V@std@@EEBAPEBXXZ 0000000180026220 f i _nodert_generated.obj
 0001:00025220       ?_Get@?$_Func_impl@V<lambda_7c85cdcc7b722a73124a4747dd95cece>@@V?$allocator@H@std@@V?$Local@VValue@v8@@@v8@@PE$AAU?$IKeyValuePair@PE$AAVString@Platform@@PE$AAVObject@2@@Collections@Foundation@Windows@@@std@@EEBAPEBXXZ 0000000180026220 f i _nodert_generated.obj
 0001:00025220       ?_Get@?$_Func_impl@V<lambda_09e6080208e0b35848a7b34c2a0656fe>@@V?$allocator@H@std@@XV?$task@W4SetAccountPictureResult@UserProfile@System@Windows@@@Concurrency@@@std@@EEBAPEBXXZ 0000000180026220 f i _nodert_generated.obj
 0001:00025220       ?_Get@?$_Func_impl@V<lambda_326f6c7fd35a5e479c8f23ef8a4cb891>@@V?$allocator@H@std@@XV?$function@$$A6AXHPEAV?$Local@VValue@v8@@@v8@@@Z@3@@std@@EEBAPEBXXZ 0000000180026220 f i _nodert_generated.obj
 0001:00025220       ?_Get@?$_Func_impl@V<lambda_560709c181b7cb4e9c377fd68c191fda>@@V?$allocator@H@std@@_NV?$Local@VValue@v8@@@v8@@@std@@EEBAPEBXXZ 0000000180026220 f i _nodert_generated.obj
 0001:00025220       ?_Get@?$_Func_impl@V<lambda_2acd1b0984ddbf84da226d7169f8db72>@@V?$allocator@H@std@@XV?$function@$$A6AXHPEAV?$Local@VValue@v8@@@v8@@@Z@3@@std@@EEBAPEBXXZ 0000000180026220 f i _nodert_generated.obj
 0001:00025220       ?_Get@?$_Func_impl@V<lambda_a17e3eb8892ab9825149c4ba725890fa>@@V?$allocator@H@std@@XV?$function@$$A6AXHPEAV?$Local@VValue@v8@@@v8@@@Z@3@@std@@EEBAPEBXXZ 0000000180026220 f i _nodert_generated.obj
 0001:00025220       ?_Get@?$_Func_impl@V<lambda_d5c67d5179cb9592a8ec5c4f5f4cbd46>@@V?$allocator@H@std@@XV?$task@PE$AAVUri@Foundation@Windows@@@Concurrency@@@std@@EEBAPEBXXZ 0000000180026220 f i _nodert_generated.obj
 0001:00025220       ?_Get@?$_Func_impl@V<lambda_de0b6cb514951d25629a6327c06abf7c>@@V?$allocator@H@std@@_NV?$Local@VValue@v8@@@v8@@@std@@EEBAPEBXXZ 0000000180026220 f i _nodert_generated.obj
 0001:00025220       ?_Get@?$_Func_impl@V<lambda_f670e7edba470851bf82d4b0912a66c9>@@V?$allocator@H@std@@PE$AAVString@Platform@@V?$Local@VValue@v8@@@v8@@@std@@EEBAPEBXXZ 0000000180026220 f i _nodert_generated.obj
 0001:00025220       ?_Get@?$_Func_impl@V<lambda_14342bb0fc1a34e7de91090c40164206>@@V?$allocator@H@std@@V?$Local@VValue@v8@@@v8@@PE$AAVString@Platform@@@std@@EEBAPEBXXZ 0000000180026220 f i _nodert_generated.obj
 0001:00025220       ?_Get@?$_Func_impl@V<lambda_0c35f08fa008bd0bd75f4471027a7740>@@V?$allocator@H@std@@X$$V@std@@EEBAPEBXXZ 0000000180026220 f i _nodert_generated.obj
 0001:00025220       ?_Get@?$_Func_impl@V<lambda_8b9caa19dc40ec7419aa4be5d662b6a6>@@V?$allocator@H@std@@XV?$function@$$A6AXHPEAV?$Local@VValue@v8@@@v8@@@Z@3@@std@@EEBAPEBXXZ 0000000180026220 f i _nodert_generated.obj
 0001:00025220       ?_Get@?$_Func_impl@V<lambda_2ade840f8176aa66a6fbfe3c3eead4f6>@@V?$allocator@H@std@@XV?$task@PE$AAVString@Platform@@@Concurrency@@@std@@EEBAPEBXXZ 0000000180026220 f i _nodert_generated.obj
 0001:00025220       ?_Get@?$_Func_impl@V<lambda_34d5782f3f5521aea81e3edfb7162e5f>@@V?$allocator@H@std@@XV?$function@$$A6AXHPEAV?$Local@VValue@v8@@@v8@@@Z@3@@std@@EEBAPEBXXZ 0000000180026220 f i _nodert_generated.obj
 0001:00025220       ?_Get@?$_Func_impl@V<lambda_81d13eba1fa31f29a54d9486b3b4a8ac>@@V?$allocator@H@std@@XV?$task@W4SetImageFeedResult@UserProfile@System@Windows@@@Concurrency@@@std@@EEBAPEBXXZ 0000000180026220 f i _nodert_generated.obj
 0001:00025220       ?_Get@?$_Func_impl@V<lambda_30ce2cebd3e1f6a190e64ff404c2202a>@@V?$allocator@H@std@@XV?$function@$$A6AXHPEAV?$Local@VValue@v8@@@v8@@@Z@3@@std@@EEBAPEBXXZ 0000000180026220 f i _nodert_generated.obj
 0001:00025220       ?_Get@?$_Func_impl@V<lambda_252a23a4c4e06e57aa01918ce60919db>@@V?$allocator@H@std@@EV?$task@PE$AAVString@Platform@@@Concurrency@@@std@@EEBAPEBXXZ 0000000180026220 f i _nodert_generated.obj
 0001:00025220       ?_Get@?$_Func_impl@V<lambda_4b6c9b9cdf3bd454ea74273f1cd1ed83>@@V?$allocator@H@std@@X$$V@std@@EEBAPEBXXZ 0000000180026220 f i _nodert_generated.obj
 0001:00025220       ?_Get@?$_Func_impl@V<lambda_4531d86c204c1c2cbe2cef4be8195a23>@@V?$allocator@H@std@@XV?$function@$$A6AXHPEAV?$Local@VValue@v8@@@v8@@@Z@3@@std@@EEBAPEBXXZ 0000000180026220 f i _nodert_generated.obj
 0001:00025220       ?_Get@?$_Func_impl@V<lambda_dcb12585ed824e6d01e61282120cf55e>@@V?$allocator@H@std@@XV?$function@$$A6AXHPEAV?$Local@VValue@v8@@@v8@@@Z@3@@std@@EEBAPEBXXZ 0000000180026220 f i _nodert_generated.obj
 0001:00025220       ?_Get@?$_Func_impl@V<lambda_00dae82a930d63f88c9fd3675f67fbee>@@V?$allocator@H@std@@_NV?$Local@VValue@v8@@@v8@@@std@@EEBAPEBXXZ 0000000180026220 f i _nodert_generated.obj
 0001:00025220       ?_Get@?$_Func_impl@V<lambda_07dd6612f4a3f3115d9ecc964b8ae3dc>@@V?$allocator@H@std@@_NV?$Local@VValue@v8@@@v8@@@std@@EEBAPEBXXZ 0000000180026220 f i _nodert_generated.obj
 0001:00025220       ?_Get@?$_Func_impl@V<lambda_8215ac15cdc9e56d811858647c76cf66>@@V?$allocator@H@std@@V?$Local@VValue@v8@@@v8@@PE$AAVObject@Platform@@@std@@EEBAPEBXXZ 0000000180026220 f i _nodert_generated.obj
 0001:00025220       ?_Get@?$_Func_impl@V<lambda_b8357930ac6bf88aeb68092f05f6b942>@@V?$allocator@H@std@@V?$Local@VValue@v8@@@v8@@PE$AAVString@Platform@@@std@@EEBAPEBXXZ 0000000180026220 f i _nodert_generated.obj
 0001:00025220       ?_Get@?$_Func_impl@V<lambda_231b748b8da94b7eb54bd82ce5de0e20>@@V?$allocator@H@std@@X$$V@std@@EEBAPEBXXZ 0000000180026220 f i _nodert_generated.obj
 0001:00025220       ?_Get@?$_Func_impl@V<lambda_ee2800ccd2b011420c5de0c63356449b>@@V?$allocator@H@std@@X$$V@std@@EEBAPEBXXZ 0000000180026220 f i _nodert_generated.obj
 0001:00025220       ?_Get@?$_Func_impl@V<lambda_cc72383f0805d59c97333d5cd58436ef>@@V?$allocator@H@std@@V?$Local@VValue@v8@@@v8@@PE$AAVString@Platform@@@std@@EEBAPEBXXZ 0000000180026220 f i _nodert_generated.obj
 0001:00025220       ?_Get@?$_Func_impl@V<lambda_b0e3d2bdc7554e03e713ca9347ec6901>@@V?$allocator@H@std@@XV?$function@$$A6AXHPEAV?$Local@VValue@v8@@@v8@@@Z@3@@std@@EEBAPEBXXZ 0000000180026220 f i _nodert_generated.obj
 0001:00025220       ?_Get@?$_Func_impl@V<lambda_88a6fc8dc694f47ad77b7fd720085f6f>@@V?$allocator@H@std@@EV?$task@W4SetImageFeedResult@UserProfile@System@Windows@@@Concurrency@@@std@@EEBAPEBXXZ 0000000180026220 f i _nodert_generated.obj
 0001:00025220       ?_Get@?$_Func_impl@V<lambda_368464cdf42a21fb3463ea12bcbd2820>@@V?$allocator@H@std@@X$$V@std@@EEBAPEBXXZ 0000000180026220 f i _nodert_generated.obj
 0001:00025220       ?_Get@?$_Func_impl@V<lambda_19fd5fc6a920c979b743ae35727eef78>@@V?$allocator@H@std@@_NV?$Local@VValue@v8@@@v8@@@std@@EEBAPEBXXZ 0000000180026220 f i _nodert_generated.obj
 0001:00025220       ?_Get@?$_Func_impl@V<lambda_41c33d0cb9f9b5c0b079696186e35e5b>@@V?$allocator@H@std@@PE$AAVString@Platform@@V?$Local@VValue@v8@@@v8@@@std@@EEBAPEBXXZ 0000000180026220 f i _nodert_generated.obj
 0001:00025220       ?_Get@?$_Func_impl@V<lambda_33f6d1522ba7a677218c6b9422376f67>@@V?$allocator@H@std@@XV?$task@W4SetAccountPictureResult@UserProfile@System@Windows@@@Concurrency@@@std@@EEBAPEBXXZ 0000000180026220 f i _nodert_generated.obj
 0001:00025220       ?_Get@?$_Func_impl@V<lambda_849986207adba1f7efb90e156e6a7b76>@@V?$allocator@H@std@@XV?$function@$$A6AXHPEAV?$Local@VValue@v8@@@v8@@@Z@3@@std@@EEBAPEBXXZ 0000000180026220 f i _nodert_generated.obj
 0001:00025220       ?_Get@?$_Func_impl@V<lambda_8c935bb9b796b248181a9d1da9394bdb>@@V?$allocator@H@std@@X$$V@std@@EEBAPEBXXZ 0000000180026220 f i _nodert_generated.obj
 0001:00025220       ?_Get@?$_Func_impl@V<lambda_39b061c4dcc493158582a0e51eceb8d8>@@V?$allocator@H@std@@PE$AAVString@Platform@@V?$Local@VValue@v8@@@v8@@@std@@EEBAPEBXXZ 0000000180026220 f i _nodert_generated.obj
 0001:00025220       ?_Get@?$_Func_impl@V<lambda_f654db1f4b3763a2796792ed092520e3>@@V?$allocator@H@std@@XV?$task@PE$AAVString@Platform@@@Concurrency@@@std@@EEBAPEBXXZ 0000000180026220 f i _nodert_generated.obj
 0001:00025220       ?_Get@?$_Func_impl@V<lambda_09190bd06ab069a832e2523f3781087c>@@V?$allocator@H@std@@XV?$function@$$A6AXHPEAV?$Local@VValue@v8@@@v8@@@Z@3@@std@@EEBAPEBXXZ 0000000180026220 f i _nodert_generated.obj
 0001:00025220       ?_Get@?$_Func_impl@V<lambda_29689827c0425fd227f4adf15f3a4534>@@V?$allocator@H@std@@V?$Local@VValue@v8@@@v8@@PE$AAVString@Platform@@@std@@EEBAPEBXXZ 0000000180026220 f i _nodert_generated.obj
 0001:00025220       ?_Get@?$_Func_impl@V<lambda_f690099ae625f80b95a1d81ffb1845cf>@@V?$allocator@H@std@@XV?$function@$$A6AXHPEAV?$Local@VValue@v8@@@v8@@@Z@3@@std@@EEBAPEBXXZ 0000000180026220 f i _nodert_generated.obj
 0001:00025220       ?_Get@?$_Func_impl@V<lambda_4574c27cff692f6a20728303ac3ff8b2>@@V?$allocator@H@std@@XV?$function@$$A6AXHPEAV?$Local@VValue@v8@@@v8@@@Z@3@@std@@EEBAPEBXXZ 0000000180026220 f i _nodert_generated.obj
 0001:00025220       ?_Get@?$_Func_impl@V<lambda_cc078ed2b0c8209a59551d1a1c4abe97>@@V?$allocator@H@std@@XV?$function@$$A6AXHPEAV?$Local@VValue@v8@@@v8@@@Z@3@@std@@EEBAPEBXXZ 0000000180026220 f i _nodert_generated.obj
 0001:00025220       ?_Get@?$_Func_impl@V<lambda_f09785eba58e50f096cc8fed22f3cc63>@@V?$allocator@H@std@@V?$Local@VValue@v8@@@v8@@PE$AAVString@Platform@@@std@@EEBAPEBXXZ 0000000180026220 f i _nodert_generated.obj
 0001:00025220       ?_Get@?$_Func_impl@V<lambda_763529b0c7473cbc215a52d189ac9b18>@@V?$allocator@H@std@@X$$V@std@@EEBAPEBXXZ 0000000180026220 f i _nodert_generated.obj
 0001:00025220       ?_Get@?$_Func_impl@V<lambda_9933a21befe6e47ae479e016e2f1250c>@@V?$allocator@H@std@@X$$V@std@@EEBAPEBXXZ 0000000180026220 f i _nodert_generated.obj
 0001:00025220       ?_Get@?$_Func_impl@V<lambda_7f4cebe17154362a5bec736b55156997>@@V?$allocator@H@std@@XV?$task@_N@Concurrency@@@std@@EEBAPEBXXZ 0000000180026220 f i _nodert_generated.obj
 0001:00025220       ?_Get@?$_Func_impl@V<lambda_f25c37099038263181b5186a3fa41b37>@@V?$allocator@H@std@@X$$V@std@@EEBAPEBXXZ 0000000180026220 f i _nodert_generated.obj
 0001:00025220       ?_Get@?$_Func_impl@V<lambda_5a1c437f17fa466aabaf7b0153a0ecc3>@@V?$allocator@H@std@@EV?$task@_N@Concurrency@@@std@@EEBAPEBXXZ 0000000180026220 f i _nodert_generated.obj
 0001:00025220       ?_Get@?$_Func_impl@V<lambda_205294ac9d93e11a49f76c7d4aaeec33>@@V?$allocator@H@std@@XV?$task@_N@Concurrency@@@std@@EEBAPEBXXZ 0000000180026220 f i _nodert_generated.obj
 0001:00025220       ?_Get@?$_Func_impl@V<lambda_91b301a193aeb16ed51fb62a7ad09106>@@V?$allocator@H@std@@V?$Local@VValue@v8@@@v8@@PE$AAVObject@Platform@@@std@@EEBAPEBXXZ 0000000180026220 f i _nodert_generated.obj
 0001:00025230       ?_Target_type@?$_Func_impl@V<lambda_7c85cdcc7b722a73124a4747dd95cece>@@V?$allocator@H@std@@V?$Local@VValue@v8@@@v8@@PE$AAU?$IKeyValuePair@PE$AAVString@Platform@@PE$AAVObject@2@@Collections@Foundation@Windows@@@std@@EEBAAEBVtype_info@@XZ 0000000180026230 f i _nodert_generated.obj
 0001:00025240       ?_Do_call@?$_Func_impl@V<lambda_7c85cdcc7b722a73124a4747dd95cece>@@V?$allocator@H@std@@V?$Local@VValue@v8@@@v8@@PE$AAU?$IKeyValuePair@PE$AAVString@Platform@@PE$AAVObject@2@@Collections@Foundation@Windows@@@std@@EEAA?AV?$Local@VValue@v8@@@v8@@$$QEAPE$AAU?$IKeyValuePair@PE$AAVString@Platform@@PE$AAVObject@2@@Collections@Foundation@Windows@@@Z 0000000180026240 f i _nodert_generated.obj
 0001:00025270       ?_Move@?$_Func_impl@V<lambda_7c85cdcc7b722a73124a4747dd95cece>@@V?$allocator@H@std@@V?$Local@VValue@v8@@@v8@@PE$AAU?$IKeyValuePair@PE$AAVString@Platform@@PE$AAVObject@2@@Collections@Foundation@Windows@@@std@@EEAAPEAV?$_Func_base@V?$Local@VValue@v8@@@v8@@PE$AAU?$IKeyValuePair@PE$AAVString@Platform@@PE$AAVObject@2@@Collections@Foundation@Windows@@@2@PEAX@Z 0000000180026270 f i _nodert_generated.obj
 0001:000252c0       ?_Copy@?$_Func_impl@V<lambda_7c85cdcc7b722a73124a4747dd95cece>@@V?$allocator@H@std@@V?$Local@VValue@v8@@@v8@@PE$AAU?$IKeyValuePair@PE$AAVString@Platform@@PE$AAVObject@2@@Collections@Foundation@Windows@@@std@@EEBAPEAV?$_Func_base@V?$Local@VValue@v8@@@v8@@PE$AAU?$IKeyValuePair@PE$AAVString@Platform@@PE$AAVObject@2@@Collections@Foundation@Windows@@@2@PEAX@Z 00000001800262c0 f i _nodert_generated.obj
 0001:00025320       ?_Delete_this@?$_Func_impl@V<lambda_ee2800ccd2b011420c5de0c63356449b>@@V?$allocator@H@std@@X$$V@std@@EEAAX_N@Z 0000000180026320 f i _nodert_generated.obj
 0001:00025320       ?_Delete_this@?$_Func_impl@V<lambda_bb3ea35c7a129712676a4a6472ecdc6a>@@V?$allocator@H@std@@X$$V@std@@EEAAX_N@Z 0000000180026320 f i _nodert_generated.obj
 0001:00025320       ?_Delete_this@?$_Func_impl@V<lambda_4b6c9b9cdf3bd454ea74273f1cd1ed83>@@V?$allocator@H@std@@X$$V@std@@EEAAX_N@Z 0000000180026320 f i _nodert_generated.obj
 0001:00025320       ?_Delete_this@?$_Func_impl@V<lambda_368464cdf42a21fb3463ea12bcbd2820>@@V?$allocator@H@std@@X$$V@std@@EEAAX_N@Z 0000000180026320 f i _nodert_generated.obj
 0001:00025320       ?_Delete_this@?$_Func_impl@V<lambda_824e81c3567191544e8b6219b1196035>@@V?$allocator@H@std@@X$$V@std@@EEAAX_N@Z 0000000180026320 f i _nodert_generated.obj
 0001:00025320       ?_Delete_this@?$_Func_impl@V<lambda_58626b52514f991d8245102f56304a1b>@@V?$allocator@H@std@@X$$V@std@@EEAAX_N@Z 0000000180026320 f i _nodert_generated.obj
 0001:00025320       ?_Delete_this@?$_Func_impl@V<lambda_231b748b8da94b7eb54bd82ce5de0e20>@@V?$allocator@H@std@@X$$V@std@@EEAAX_N@Z 0000000180026320 f i _nodert_generated.obj
 0001:00025320       ?_Delete_this@?$_Func_impl@V<lambda_763529b0c7473cbc215a52d189ac9b18>@@V?$allocator@H@std@@X$$V@std@@EEAAX_N@Z 0000000180026320 f i _nodert_generated.obj
 0001:00025340       ?_Target_type@?$_Func_impl@V<lambda_bb3ea35c7a129712676a4a6472ecdc6a>@@V?$allocator@H@std@@X$$V@std@@EEBAAEBVtype_info@@XZ 0000000180026340 f i _nodert_generated.obj
 0001:00025350       ?_Do_call@?$_Func_impl@V<lambda_368464cdf42a21fb3463ea12bcbd2820>@@V?$allocator@H@std@@X$$V@std@@EEAAXXZ 0000000180026350 f i _nodert_generated.obj
 0001:00025350       ?_Do_call@?$_Func_impl@V<lambda_824e81c3567191544e8b6219b1196035>@@V?$allocator@H@std@@X$$V@std@@EEAAXXZ 0000000180026350 f i _nodert_generated.obj
 0001:00025350       ?_Do_call@?$_Func_impl@V<lambda_bb3ea35c7a129712676a4a6472ecdc6a>@@V?$allocator@H@std@@X$$V@std@@EEAAXXZ 0000000180026350 f i _nodert_generated.obj
 0001:00025350       ?_Do_call@?$_Func_impl@V<lambda_231b748b8da94b7eb54bd82ce5de0e20>@@V?$allocator@H@std@@X$$V@std@@EEAAXXZ 0000000180026350 f i _nodert_generated.obj
 0001:00025350       ?_Do_call@?$_Func_impl@V<lambda_58626b52514f991d8245102f56304a1b>@@V?$allocator@H@std@@X$$V@std@@EEAAXXZ 0000000180026350 f i _nodert_generated.obj
 0001:00025350       ?_Do_call@?$_Func_impl@V<lambda_763529b0c7473cbc215a52d189ac9b18>@@V?$allocator@H@std@@X$$V@std@@EEAAXXZ 0000000180026350 f i _nodert_generated.obj
 0001:00025360       ?_Copy@?$_Func_impl@V<lambda_bb3ea35c7a129712676a4a6472ecdc6a>@@V?$allocator@H@std@@X$$V@std@@EEBAPEAV?$_Func_base@X$$V@2@PEAX@Z 0000000180026360 f i _nodert_generated.obj
 0001:00025360       ?_Move@?$_Func_impl@V<lambda_bb3ea35c7a129712676a4a6472ecdc6a>@@V?$allocator@H@std@@X$$V@std@@EEAAPEAV?$_Func_base@X$$V@2@PEAX@Z 0000000180026360 f i _nodert_generated.obj
 0001:00025380       ?_Target_type@?$_Func_impl@V<lambda_824e81c3567191544e8b6219b1196035>@@V?$allocator@H@std@@X$$V@std@@EEBAAEBVtype_info@@XZ 0000000180026380 f i _nodert_generated.obj
 0001:00025390       ?_Move@?$_Func_impl@V<lambda_824e81c3567191544e8b6219b1196035>@@V?$allocator@H@std@@X$$V@std@@EEAAPEAV?$_Func_base@X$$V@2@PEAX@Z 0000000180026390 f i _nodert_generated.obj
 0001:00025390       ?_Copy@?$_Func_impl@V<lambda_824e81c3567191544e8b6219b1196035>@@V?$allocator@H@std@@X$$V@std@@EEBAPEAV?$_Func_base@X$$V@2@PEAX@Z 0000000180026390 f i _nodert_generated.obj
 0001:000253b0       ?_Target_type@?$_Func_impl@V<lambda_231b748b8da94b7eb54bd82ce5de0e20>@@V?$allocator@H@std@@X$$V@std@@EEBAAEBVtype_info@@XZ 00000001800263b0 f i _nodert_generated.obj
 0001:000253c0       ?_Move@?$_Func_impl@V<lambda_231b748b8da94b7eb54bd82ce5de0e20>@@V?$allocator@H@std@@X$$V@std@@EEAAPEAV?$_Func_base@X$$V@2@PEAX@Z 00000001800263c0 f i _nodert_generated.obj
 0001:000253c0       ?_Copy@?$_Func_impl@V<lambda_231b748b8da94b7eb54bd82ce5de0e20>@@V?$allocator@H@std@@X$$V@std@@EEBAPEAV?$_Func_base@X$$V@2@PEAX@Z 00000001800263c0 f i _nodert_generated.obj
 0001:000253e0       ?_Target_type@?$_Func_impl@V<lambda_58626b52514f991d8245102f56304a1b>@@V?$allocator@H@std@@X$$V@std@@EEBAAEBVtype_info@@XZ 00000001800263e0 f i _nodert_generated.obj
 0001:000253f0       ?_Move@?$_Func_impl@V<lambda_58626b52514f991d8245102f56304a1b>@@V?$allocator@H@std@@X$$V@std@@EEAAPEAV?$_Func_base@X$$V@2@PEAX@Z 00000001800263f0 f i _nodert_generated.obj
 0001:000253f0       ?_Copy@?$_Func_impl@V<lambda_58626b52514f991d8245102f56304a1b>@@V?$allocator@H@std@@X$$V@std@@EEBAPEAV?$_Func_base@X$$V@2@PEAX@Z 00000001800263f0 f i _nodert_generated.obj
 0001:00025410       ?_Target_type@?$_Func_impl@V<lambda_368464cdf42a21fb3463ea12bcbd2820>@@V?$allocator@H@std@@X$$V@std@@EEBAAEBVtype_info@@XZ 0000000180026410 f i _nodert_generated.obj
 0001:00025420       ?_Move@?$_Func_impl@V<lambda_368464cdf42a21fb3463ea12bcbd2820>@@V?$allocator@H@std@@X$$V@std@@EEAAPEAV?$_Func_base@X$$V@2@PEAX@Z 0000000180026420 f i _nodert_generated.obj
 0001:00025420       ?_Copy@?$_Func_impl@V<lambda_368464cdf42a21fb3463ea12bcbd2820>@@V?$allocator@H@std@@X$$V@std@@EEBAPEAV?$_Func_base@X$$V@2@PEAX@Z 0000000180026420 f i _nodert_generated.obj
 0001:00025440       ?_Target_type@?$_Func_impl@V<lambda_763529b0c7473cbc215a52d189ac9b18>@@V?$allocator@H@std@@X$$V@std@@EEBAAEBVtype_info@@XZ 0000000180026440 f i _nodert_generated.obj
 0001:00025450       ?_Move@?$_Func_impl@V<lambda_763529b0c7473cbc215a52d189ac9b18>@@V?$allocator@H@std@@X$$V@std@@EEAAPEAV?$_Func_base@X$$V@2@PEAX@Z 0000000180026450 f i _nodert_generated.obj
 0001:00025450       ?_Copy@?$_Func_impl@V<lambda_763529b0c7473cbc215a52d189ac9b18>@@V?$allocator@H@std@@X$$V@std@@EEBAPEAV?$_Func_base@X$$V@2@PEAX@Z 0000000180026450 f i _nodert_generated.obj
 0001:00025470       ?_Delete_this@?$_Func_impl@V<lambda_8b9caa19dc40ec7419aa4be5d662b6a6>@@V?$allocator@H@std@@XV?$function@$$A6AXHPEAV?$Local@VValue@v8@@@v8@@@Z@3@@std@@EEAAX_N@Z 0000000180026470 f i _nodert_generated.obj
 0001:000254d0       ?_Target_type@?$_Func_impl@V<lambda_8b9caa19dc40ec7419aa4be5d662b6a6>@@V?$allocator@H@std@@XV?$function@$$A6AXHPEAV?$Local@VValue@v8@@@v8@@@Z@3@@std@@EEBAAEBVtype_info@@XZ 00000001800264d0 f i _nodert_generated.obj
 0001:000254e0       ?_Do_call@?$_Func_impl@V<lambda_a17e3eb8892ab9825149c4ba725890fa>@@V?$allocator@H@std@@XV?$function@$$A6AXHPEAV?$Local@VValue@v8@@@v8@@@Z@3@@std@@EEAAX$$QEAV?$function@$$A6AXHPEAV?$Local@VValue@v8@@@v8@@@Z@2@@Z 00000001800264e0 f i _nodert_generated.obj
 0001:000254e0       ?_Do_call@?$_Func_impl@V<lambda_34316d8807e26dc07711d920bbc983e2>@@V?$allocator@H@std@@XV?$function@$$A6AXHPEAV?$Local@VValue@v8@@@v8@@@Z@3@@std@@EEAAX$$QEAV?$function@$$A6AXHPEAV?$Local@VValue@v8@@@v8@@@Z@2@@Z 00000001800264e0 f i _nodert_generated.obj
 0001:000254e0       ?_Do_call@?$_Func_impl@V<lambda_18b2633ead7fc6f6e4469ed3eeb4e6fa>@@V?$allocator@H@std@@XV?$function@$$A6AXHPEAV?$Local@VValue@v8@@@v8@@@Z@3@@std@@EEAAX$$QEAV?$function@$$A6AXHPEAV?$Local@VValue@v8@@@v8@@@Z@2@@Z 00000001800264e0 f i _nodert_generated.obj
 0001:000254e0       ?_Do_call@?$_Func_impl@V<lambda_713d43ab4c57f2fa914cada6953956e0>@@V?$allocator@H@std@@XV?$function@$$A6AXHPEAV?$Local@VValue@v8@@@v8@@@Z@3@@std@@EEAAX$$QEAV?$function@$$A6AXHPEAV?$Local@VValue@v8@@@v8@@@Z@2@@Z 00000001800264e0 f i _nodert_generated.obj
 0001:000254e0       ?_Do_call@?$_Func_impl@V<lambda_8b9caa19dc40ec7419aa4be5d662b6a6>@@V?$allocator@H@std@@XV?$function@$$A6AXHPEAV?$Local@VValue@v8@@@v8@@@Z@3@@std@@EEAAX$$QEAV?$function@$$A6AXHPEAV?$Local@VValue@v8@@@v8@@@Z@2@@Z 00000001800264e0 f i _nodert_generated.obj
 0001:000254e0       ?_Do_call@?$_Func_impl@V<lambda_dcb12585ed824e6d01e61282120cf55e>@@V?$allocator@H@std@@XV?$function@$$A6AXHPEAV?$Local@VValue@v8@@@v8@@@Z@3@@std@@EEAAX$$QEAV?$function@$$A6AXHPEAV?$Local@VValue@v8@@@v8@@@Z@2@@Z 00000001800264e0 f i _nodert_generated.obj
 0001:000254e0       ?_Do_call@?$_Func_impl@V<lambda_34d5782f3f5521aea81e3edfb7162e5f>@@V?$allocator@H@std@@XV?$function@$$A6AXHPEAV?$Local@VValue@v8@@@v8@@@Z@3@@std@@EEAAX$$QEAV?$function@$$A6AXHPEAV?$Local@VValue@v8@@@v8@@@Z@2@@Z 00000001800264e0 f i _nodert_generated.obj
 0001:000254e0       ?_Do_call@?$_Func_impl@V<lambda_90b09dac011223b89e660207ea92210b>@@V?$allocator@H@std@@XV?$function@$$A6AXHPEAV?$Local@VValue@v8@@@v8@@@Z@3@@std@@EEAAX$$QEAV?$function@$$A6AXHPEAV?$Local@VValue@v8@@@v8@@@Z@2@@Z 00000001800264e0 f i _nodert_generated.obj
 0001:000254e0       ?_Do_call@?$_Func_impl@V<lambda_621e08f071ba6e5d5373417c49677dca>@@V?$allocator@H@std@@XV?$function@$$A6AXHPEAV?$Local@VValue@v8@@@v8@@@Z@3@@std@@EEAAX$$QEAV?$function@$$A6AXHPEAV?$Local@VValue@v8@@@v8@@@Z@2@@Z 00000001800264e0 f i _nodert_generated.obj
 0001:000254e0       ?_Do_call@?$_Func_impl@V<lambda_30ce2cebd3e1f6a190e64ff404c2202a>@@V?$allocator@H@std@@XV?$function@$$A6AXHPEAV?$Local@VValue@v8@@@v8@@@Z@3@@std@@EEAAX$$QEAV?$function@$$A6AXHPEAV?$Local@VValue@v8@@@v8@@@Z@2@@Z 00000001800264e0 f i _nodert_generated.obj
 0001:000254e0       ?_Do_call@?$_Func_impl@V<lambda_b0459761a89b1478eff3530a12ff80c5>@@V?$allocator@H@std@@XV?$function@$$A6AXHPEAV?$Local@VValue@v8@@@v8@@@Z@3@@std@@EEAAX$$QEAV?$function@$$A6AXHPEAV?$Local@VValue@v8@@@v8@@@Z@2@@Z 00000001800264e0 f i _nodert_generated.obj
 0001:000254e0       ?_Do_call@?$_Func_impl@V<lambda_dcad5dba0a743a99876a5c6849440f1f>@@V?$allocator@H@std@@XV?$function@$$A6AXHPEAV?$Local@VValue@v8@@@v8@@@Z@3@@std@@EEAAX$$QEAV?$function@$$A6AXHPEAV?$Local@VValue@v8@@@v8@@@Z@2@@Z 00000001800264e0 f i _nodert_generated.obj
 0001:000254e0       ?_Do_call@?$_Func_impl@V<lambda_05094e775daa4fff3e8cfe85cffce6d0>@@V?$allocator@H@std@@XV?$function@$$A6AXHPEAV?$Local@VValue@v8@@@v8@@@Z@3@@std@@EEAAX$$QEAV?$function@$$A6AXHPEAV?$Local@VValue@v8@@@v8@@@Z@2@@Z 00000001800264e0 f i _nodert_generated.obj
 0001:000254e0       ?_Do_call@?$_Func_impl@V<lambda_83d3d7b70820dd48fe4cc6e62c961ea6>@@V?$allocator@H@std@@XV?$function@$$A6AXHPEAV?$Local@VValue@v8@@@v8@@@Z@3@@std@@EEAAX$$QEAV?$function@$$A6AXHPEAV?$Local@VValue@v8@@@v8@@@Z@2@@Z 00000001800264e0 f i _nodert_generated.obj
 0001:000254e0       ?_Do_call@?$_Func_impl@V<lambda_cc078ed2b0c8209a59551d1a1c4abe97>@@V?$allocator@H@std@@XV?$function@$$A6AXHPEAV?$Local@VValue@v8@@@v8@@@Z@3@@std@@EEAAX$$QEAV?$function@$$A6AXHPEAV?$Local@VValue@v8@@@v8@@@Z@2@@Z 00000001800264e0 f i _nodert_generated.obj
 0001:00025510       ?_Copy@?$_Func_impl@V<lambda_8b9caa19dc40ec7419aa4be5d662b6a6>@@V?$allocator@H@std@@XV?$function@$$A6AXHPEAV?$Local@VValue@v8@@@v8@@@Z@3@@std@@EEBAPEAV?$_Func_base@XV?$function@$$A6AXHPEAV?$Local@VValue@v8@@@v8@@@Z@std@@@2@PEAX@Z 0000000180026510 f i _nodert_generated.obj
 0001:00025510       ?_Move@?$_Func_impl@V<lambda_8b9caa19dc40ec7419aa4be5d662b6a6>@@V?$allocator@H@std@@XV?$function@$$A6AXHPEAV?$Local@VValue@v8@@@v8@@@Z@3@@std@@EEAAPEAV?$_Func_base@XV?$function@$$A6AXHPEAV?$Local@VValue@v8@@@v8@@@Z@std@@@2@PEAX@Z 0000000180026510 f i _nodert_generated.obj
 0001:00025560       ?_Delete_this@?$_Func_impl@V<lambda_d3f551485d104f6ae14b804d71843104>@@V?$allocator@H@std@@XV?$function@$$A6AXHPEAV?$Local@VValue@v8@@@v8@@@Z@3@@std@@EEAAX_N@Z 0000000180026560 f i _nodert_generated.obj
 0001:00025560       ?_Delete_this@?$_Func_impl@V<lambda_f690099ae625f80b95a1d81ffb1845cf>@@V?$allocator@H@std@@XV?$function@$$A6AXHPEAV?$Local@VValue@v8@@@v8@@@Z@3@@std@@EEAAX_N@Z 0000000180026560 f i _nodert_generated.obj
 0001:00025560       ?_Delete_this@?$_Func_impl@V<lambda_4574c27cff692f6a20728303ac3ff8b2>@@V?$allocator@H@std@@XV?$function@$$A6AXHPEAV?$Local@VValue@v8@@@v8@@@Z@3@@std@@EEAAX_N@Z 0000000180026560 f i _nodert_generated.obj
 0001:00025560       ?_Delete_this@?$_Func_impl@V<lambda_5cd250c4e6f910ea43081ee63870250a>@@V?$allocator@H@std@@XV?$function@$$A6AXHPEAV?$Local@VValue@v8@@@v8@@@Z@3@@std@@EEAAX_N@Z 0000000180026560 f i _nodert_generated.obj
 0001:00025560       ?_Delete_this@?$_Func_impl@V<lambda_2acd1b0984ddbf84da226d7169f8db72>@@V?$allocator@H@std@@XV?$function@$$A6AXHPEAV?$Local@VValue@v8@@@v8@@@Z@3@@std@@EEAAX_N@Z 0000000180026560 f i _nodert_generated.obj
 0001:00025560       ?_Delete_this@?$_Func_impl@V<lambda_4531d86c204c1c2cbe2cef4be8195a23>@@V?$allocator@H@std@@XV?$function@$$A6AXHPEAV?$Local@VValue@v8@@@v8@@@Z@3@@std@@EEAAX_N@Z 0000000180026560 f i _nodert_generated.obj
 0001:00025560       ?_Delete_this@?$_Func_impl@V<lambda_09190bd06ab069a832e2523f3781087c>@@V?$allocator@H@std@@XV?$function@$$A6AXHPEAV?$Local@VValue@v8@@@v8@@@Z@3@@std@@EEAAX_N@Z 0000000180026560 f i _nodert_generated.obj
 0001:00025560       ?_Delete_this@?$_Func_impl@V<lambda_8beb44cf918d84b3ab274f7936494749>@@V?$allocator@H@std@@XV?$function@$$A6AXHPEAV?$Local@VValue@v8@@@v8@@@Z@3@@std@@EEAAX_N@Z 0000000180026560 f i _nodert_generated.obj
 0001:00025560       ?_Delete_this@?$_Func_impl@V<lambda_326f6c7fd35a5e479c8f23ef8a4cb891>@@V?$allocator@H@std@@XV?$function@$$A6AXHPEAV?$Local@VValue@v8@@@v8@@@Z@3@@std@@EEAAX_N@Z 0000000180026560 f i _nodert_generated.obj
 0001:00025580       ?_Target_type@?$_Func_impl@V<lambda_4574c27cff692f6a20728303ac3ff8b2>@@V?$allocator@H@std@@XV?$function@$$A6AXHPEAV?$Local@VValue@v8@@@v8@@@Z@3@@std@@EEBAAEBVtype_info@@XZ 0000000180026580 f i _nodert_generated.obj
 0001:00025590       ?_Do_call@?$_Func_impl@V<lambda_d3f551485d104f6ae14b804d71843104>@@V?$allocator@H@std@@XV?$function@$$A6AXHPEAV?$Local@VValue@v8@@@v8@@@Z@3@@std@@EEAAX$$QEAV?$function@$$A6AXHPEAV?$Local@VValue@v8@@@v8@@@Z@2@@Z 0000000180026590 f i _nodert_generated.obj
 0001:00025590       ?_Do_call@?$_Func_impl@V<lambda_4574c27cff692f6a20728303ac3ff8b2>@@V?$allocator@H@std@@XV?$function@$$A6AXHPEAV?$Local@VValue@v8@@@v8@@@Z@3@@std@@EEAAX$$QEAV?$function@$$A6AXHPEAV?$Local@VValue@v8@@@v8@@@Z@2@@Z 0000000180026590 f i _nodert_generated.obj
 0001:000255b0       ?_Copy@?$_Func_impl@V<lambda_4574c27cff692f6a20728303ac3ff8b2>@@V?$allocator@H@std@@XV?$function@$$A6AXHPEAV?$Local@VValue@v8@@@v8@@@Z@3@@std@@EEBAPEAV?$_Func_base@XV?$function@$$A6AXHPEAV?$Local@VValue@v8@@@v8@@@Z@std@@@2@PEAX@Z 00000001800265b0 f i _nodert_generated.obj
 0001:000255b0       ?_Move@?$_Func_impl@V<lambda_4574c27cff692f6a20728303ac3ff8b2>@@V?$allocator@H@std@@XV?$function@$$A6AXHPEAV?$Local@VValue@v8@@@v8@@@Z@3@@std@@EEAAPEAV?$_Func_base@XV?$function@$$A6AXHPEAV?$Local@VValue@v8@@@v8@@@Z@std@@@2@PEAX@Z 00000001800265b0 f i _nodert_generated.obj
 0001:000255d0       ?_Delete_this@?$_Func_impl@V<lambda_b0459761a89b1478eff3530a12ff80c5>@@V?$allocator@H@std@@XV?$function@$$A6AXHPEAV?$Local@VValue@v8@@@v8@@@Z@3@@std@@EEAAX_N@Z 00000001800265d0 f i _nodert_generated.obj
 0001:00025630       ?_Target_type@?$_Func_impl@V<lambda_b0459761a89b1478eff3530a12ff80c5>@@V?$allocator@H@std@@XV?$function@$$A6AXHPEAV?$Local@VValue@v8@@@v8@@@Z@3@@std@@EEBAAEBVtype_info@@XZ 0000000180026630 f i _nodert_generated.obj
 0001:00025640       ?_Move@?$_Func_impl@V<lambda_b0459761a89b1478eff3530a12ff80c5>@@V?$allocator@H@std@@XV?$function@$$A6AXHPEAV?$Local@VValue@v8@@@v8@@@Z@3@@std@@EEAAPEAV?$_Func_base@XV?$function@$$A6AXHPEAV?$Local@VValue@v8@@@v8@@@Z@std@@@2@PEAX@Z 0000000180026640 f i _nodert_generated.obj
 0001:00025640       ?_Copy@?$_Func_impl@V<lambda_b0459761a89b1478eff3530a12ff80c5>@@V?$allocator@H@std@@XV?$function@$$A6AXHPEAV?$Local@VValue@v8@@@v8@@@Z@3@@std@@EEBAPEAV?$_Func_base@XV?$function@$$A6AXHPEAV?$Local@VValue@v8@@@v8@@@Z@std@@@2@PEAX@Z 0000000180026640 f i _nodert_generated.obj
 0001:00025690       ?_Target_type@?$_Func_impl@V<lambda_d3f551485d104f6ae14b804d71843104>@@V?$allocator@H@std@@XV?$function@$$A6AXHPEAV?$Local@VValue@v8@@@v8@@@Z@3@@std@@EEBAAEBVtype_info@@XZ 0000000180026690 f i _nodert_generated.obj
 0001:000256a0       ?_Move@?$_Func_impl@V<lambda_d3f551485d104f6ae14b804d71843104>@@V?$allocator@H@std@@XV?$function@$$A6AXHPEAV?$Local@VValue@v8@@@v8@@@Z@3@@std@@EEAAPEAV?$_Func_base@XV?$function@$$A6AXHPEAV?$Local@VValue@v8@@@v8@@@Z@std@@@2@PEAX@Z 00000001800266a0 f i _nodert_generated.obj
 0001:000256a0       ?_Copy@?$_Func_impl@V<lambda_d3f551485d104f6ae14b804d71843104>@@V?$allocator@H@std@@XV?$function@$$A6AXHPEAV?$Local@VValue@v8@@@v8@@@Z@3@@std@@EEBAPEAV?$_Func_base@XV?$function@$$A6AXHPEAV?$Local@VValue@v8@@@v8@@@Z@std@@@2@PEAX@Z 00000001800266a0 f i _nodert_generated.obj
 0001:000256c0       ?_Delete_this@?$_Func_impl@V<lambda_dcad5dba0a743a99876a5c6849440f1f>@@V?$allocator@H@std@@XV?$function@$$A6AXHPEAV?$Local@VValue@v8@@@v8@@@Z@3@@std@@EEAAX_N@Z 00000001800266c0 f i _nodert_generated.obj
 0001:00025720       ?_Target_type@?$_Func_impl@V<lambda_dcad5dba0a743a99876a5c6849440f1f>@@V?$allocator@H@std@@XV?$function@$$A6AXHPEAV?$Local@VValue@v8@@@v8@@@Z@3@@std@@EEBAAEBVtype_info@@XZ 0000000180026720 f i _nodert_generated.obj
 0001:00025730       ?_Copy@?$_Func_impl@V<lambda_dcad5dba0a743a99876a5c6849440f1f>@@V?$allocator@H@std@@XV?$function@$$A6AXHPEAV?$Local@VValue@v8@@@v8@@@Z@3@@std@@EEBAPEAV?$_Func_base@XV?$function@$$A6AXHPEAV?$Local@VValue@v8@@@v8@@@Z@std@@@2@PEAX@Z 0000000180026730 f i _nodert_generated.obj
 0001:00025730       ?_Move@?$_Func_impl@V<lambda_dcad5dba0a743a99876a5c6849440f1f>@@V?$allocator@H@std@@XV?$function@$$A6AXHPEAV?$Local@VValue@v8@@@v8@@@Z@3@@std@@EEAAPEAV?$_Func_base@XV?$function@$$A6AXHPEAV?$Local@VValue@v8@@@v8@@@Z@std@@@2@PEAX@Z 0000000180026730 f i _nodert_generated.obj
 0001:00025780       ?_Target_type@?$_Func_impl@V<lambda_2acd1b0984ddbf84da226d7169f8db72>@@V?$allocator@H@std@@XV?$function@$$A6AXHPEAV?$Local@VValue@v8@@@v8@@@Z@3@@std@@EEBAAEBVtype_info@@XZ 0000000180026780 f i _nodert_generated.obj
 0001:00025790       ?_Do_call@?$_Func_impl@V<lambda_f690099ae625f80b95a1d81ffb1845cf>@@V?$allocator@H@std@@XV?$function@$$A6AXHPEAV?$Local@VValue@v8@@@v8@@@Z@3@@std@@EEAAX$$QEAV?$function@$$A6AXHPEAV?$Local@VValue@v8@@@v8@@@Z@2@@Z 0000000180026790 f i _nodert_generated.obj
 0001:00025790       ?_Do_call@?$_Func_impl@V<lambda_326f6c7fd35a5e479c8f23ef8a4cb891>@@V?$allocator@H@std@@XV?$function@$$A6AXHPEAV?$Local@VValue@v8@@@v8@@@Z@3@@std@@EEAAX$$QEAV?$function@$$A6AXHPEAV?$Local@VValue@v8@@@v8@@@Z@2@@Z 0000000180026790 f i _nodert_generated.obj
 0001:00025790       ?_Do_call@?$_Func_impl@V<lambda_5cd250c4e6f910ea43081ee63870250a>@@V?$allocator@H@std@@XV?$function@$$A6AXHPEAV?$Local@VValue@v8@@@v8@@@Z@3@@std@@EEAAX$$QEAV?$function@$$A6AXHPEAV?$Local@VValue@v8@@@v8@@@Z@2@@Z 0000000180026790 f i _nodert_generated.obj
 0001:00025790       ?_Do_call@?$_Func_impl@V<lambda_09190bd06ab069a832e2523f3781087c>@@V?$allocator@H@std@@XV?$function@$$A6AXHPEAV?$Local@VValue@v8@@@v8@@@Z@3@@std@@EEAAX$$QEAV?$function@$$A6AXHPEAV?$Local@VValue@v8@@@v8@@@Z@2@@Z 0000000180026790 f i _nodert_generated.obj
 0001:00025790       ?_Do_call@?$_Func_impl@V<lambda_2acd1b0984ddbf84da226d7169f8db72>@@V?$allocator@H@std@@XV?$function@$$A6AXHPEAV?$Local@VValue@v8@@@v8@@@Z@3@@std@@EEAAX$$QEAV?$function@$$A6AXHPEAV?$Local@VValue@v8@@@v8@@@Z@2@@Z 0000000180026790 f i _nodert_generated.obj
 0001:000257c0       ?_Copy@?$_Func_impl@V<lambda_2acd1b0984ddbf84da226d7169f8db72>@@V?$allocator@H@std@@XV?$function@$$A6AXHPEAV?$Local@VValue@v8@@@v8@@@Z@3@@std@@EEBAPEAV?$_Func_base@XV?$function@$$A6AXHPEAV?$Local@VValue@v8@@@v8@@@Z@std@@@2@PEAX@Z 00000001800267c0 f i _nodert_generated.obj
 0001:000257c0       ?_Move@?$_Func_impl@V<lambda_2acd1b0984ddbf84da226d7169f8db72>@@V?$allocator@H@std@@XV?$function@$$A6AXHPEAV?$Local@VValue@v8@@@v8@@@Z@3@@std@@EEAAPEAV?$_Func_base@XV?$function@$$A6AXHPEAV?$Local@VValue@v8@@@v8@@@Z@std@@@2@PEAX@Z 00000001800267c0 f i _nodert_generated.obj
 0001:000257e0       ?_Delete_this@?$_Func_impl@V<lambda_ac0fbf381b812e535c5187d22631972a>@@V?$allocator@H@std@@X$$V@std@@EEAAX_N@Z 00000001800267e0 f i _nodert_generated.obj
 0001:00025830       ?_Target_type@?$_Func_impl@V<lambda_ac0fbf381b812e535c5187d22631972a>@@V?$allocator@H@std@@X$$V@std@@EEBAAEBVtype_info@@XZ 0000000180026830 f i _nodert_generated.obj
 0001:00025840       ?_Do_call@?$_Func_impl@V<lambda_ac0fbf381b812e535c5187d22631972a>@@V?$allocator@H@std@@X$$V@std@@EEAAXXZ 0000000180026840 f i _nodert_generated.obj
 0001:00025850       ?_Move@?$_Func_impl@V<lambda_ac0fbf381b812e535c5187d22631972a>@@V?$allocator@H@std@@X$$V@std@@EEAAPEAV?$_Func_base@X$$V@2@PEAX@Z 0000000180026850 f i _nodert_generated.obj
 0001:00025880       ?_Copy@?$_Func_impl@V<lambda_ac0fbf381b812e535c5187d22631972a>@@V?$allocator@H@std@@X$$V@std@@EEBAPEAV?$_Func_base@X$$V@2@PEAX@Z 0000000180026880 f i _nodert_generated.obj
 0001:000258b0       ?_Target_type@?$_Func_impl@V<lambda_4b6c9b9cdf3bd454ea74273f1cd1ed83>@@V?$allocator@H@std@@X$$V@std@@EEBAAEBVtype_info@@XZ 00000001800268b0 f i _nodert_generated.obj
 0001:000258c0       ?_Do_call@?$_Func_impl@V<lambda_4b6c9b9cdf3bd454ea74273f1cd1ed83>@@V?$allocator@H@std@@X$$V@std@@EEAAXXZ 00000001800268c0 f i _nodert_generated.obj
 0001:00025910       ?_Copy@?$_Func_impl@V<lambda_4b6c9b9cdf3bd454ea74273f1cd1ed83>@@V?$allocator@H@std@@X$$V@std@@EEBAPEAV?$_Func_base@X$$V@2@PEAX@Z 0000000180026910 f i _nodert_generated.obj
 0001:00025910       ?_Move@?$_Func_impl@V<lambda_4b6c9b9cdf3bd454ea74273f1cd1ed83>@@V?$allocator@H@std@@X$$V@std@@EEAAPEAV?$_Func_base@X$$V@2@PEAX@Z 0000000180026910 f i _nodert_generated.obj
 0001:00025930       ?_Delete_this@?$_Func_impl@V<lambda_83d3d7b70820dd48fe4cc6e62c961ea6>@@V?$allocator@H@std@@XV?$function@$$A6AXHPEAV?$Local@VValue@v8@@@v8@@@Z@3@@std@@EEAAX_N@Z 0000000180026930 f i _nodert_generated.obj
 0001:00025990       ?_Target_type@?$_Func_impl@V<lambda_83d3d7b70820dd48fe4cc6e62c961ea6>@@V?$allocator@H@std@@XV?$function@$$A6AXHPEAV?$Local@VValue@v8@@@v8@@@Z@3@@std@@EEBAAEBVtype_info@@XZ 0000000180026990 f i _nodert_generated.obj
 0001:000259a0       ?_Move@?$_Func_impl@V<lambda_83d3d7b70820dd48fe4cc6e62c961ea6>@@V?$allocator@H@std@@XV?$function@$$A6AXHPEAV?$Local@VValue@v8@@@v8@@@Z@3@@std@@EEAAPEAV?$_Func_base@XV?$function@$$A6AXHPEAV?$Local@VValue@v8@@@v8@@@Z@std@@@2@PEAX@Z 00000001800269a0 f i _nodert_generated.obj
 0001:000259a0       ?_Copy@?$_Func_impl@V<lambda_83d3d7b70820dd48fe4cc6e62c961ea6>@@V?$allocator@H@std@@XV?$function@$$A6AXHPEAV?$Local@VValue@v8@@@v8@@@Z@3@@std@@EEBAPEAV?$_Func_base@XV?$function@$$A6AXHPEAV?$Local@VValue@v8@@@v8@@@Z@std@@@2@PEAX@Z 00000001800269a0 f i _nodert_generated.obj
 0001:000259f0       ?_Delete_this@?$_Func_impl@V<lambda_14a9c0ba59923c0da6a7a331b40a12a7>@@V?$allocator@H@std@@XV?$function@$$A6AXHPEAV?$Local@VValue@v8@@@v8@@@Z@3@@std@@EEAAX_N@Z 00000001800269f0 f i _nodert_generated.obj
 0001:00025a40       ?_Target_type@?$_Func_impl@V<lambda_14a9c0ba59923c0da6a7a331b40a12a7>@@V?$allocator@H@std@@XV?$function@$$A6AXHPEAV?$Local@VValue@v8@@@v8@@@Z@3@@std@@EEBAAEBVtype_info@@XZ 0000000180026a40 f i _nodert_generated.obj
 0001:00025a50       ?_Do_call@?$_Func_impl@V<lambda_4ccdb47b7f1ffbf2ccf188975fda679b>@@V?$allocator@H@std@@XV?$function@$$A6AXHPEAV?$Local@VValue@v8@@@v8@@@Z@3@@std@@EEAAX$$QEAV?$function@$$A6AXHPEAV?$Local@VValue@v8@@@v8@@@Z@2@@Z 0000000180026a50 f i _nodert_generated.obj
 0001:00025a50       ?_Do_call@?$_Func_impl@V<lambda_14a9c0ba59923c0da6a7a331b40a12a7>@@V?$allocator@H@std@@XV?$function@$$A6AXHPEAV?$Local@VValue@v8@@@v8@@@Z@3@@std@@EEAAX$$QEAV?$function@$$A6AXHPEAV?$Local@VValue@v8@@@v8@@@Z@2@@Z 0000000180026a50 f i _nodert_generated.obj
 0001:00025a50       ?_Do_call@?$_Func_impl@V<lambda_790fb16f6c871e6c2624916e0240bd11>@@V?$allocator@H@std@@XV?$function@$$A6AXHPEAV?$Local@VValue@v8@@@v8@@@Z@3@@std@@EEAAX$$QEAV?$function@$$A6AXHPEAV?$Local@VValue@v8@@@v8@@@Z@2@@Z 0000000180026a50 f i _nodert_generated.obj
 0001:00025a50       ?_Do_call@?$_Func_impl@V<lambda_849986207adba1f7efb90e156e6a7b76>@@V?$allocator@H@std@@XV?$function@$$A6AXHPEAV?$Local@VValue@v8@@@v8@@@Z@3@@std@@EEAAX$$QEAV?$function@$$A6AXHPEAV?$Local@VValue@v8@@@v8@@@Z@2@@Z 0000000180026a50 f i _nodert_generated.obj
 0001:00025a50       ?_Do_call@?$_Func_impl@V<lambda_b0e3d2bdc7554e03e713ca9347ec6901>@@V?$allocator@H@std@@XV?$function@$$A6AXHPEAV?$Local@VValue@v8@@@v8@@@Z@3@@std@@EEAAX$$QEAV?$function@$$A6AXHPEAV?$Local@VValue@v8@@@v8@@@Z@2@@Z 0000000180026a50 f i _nodert_generated.obj
 0001:00025a80       ?_Move@?$_Func_impl@V<lambda_14a9c0ba59923c0da6a7a331b40a12a7>@@V?$allocator@H@std@@XV?$function@$$A6AXHPEAV?$Local@VValue@v8@@@v8@@@Z@3@@std@@EEAAPEAV?$_Func_base@XV?$function@$$A6AXHPEAV?$Local@VValue@v8@@@v8@@@Z@std@@@2@PEAX@Z 0000000180026a80 f i _nodert_generated.obj
 0001:00025a80       ?_Copy@?$_Func_impl@V<lambda_14a9c0ba59923c0da6a7a331b40a12a7>@@V?$allocator@H@std@@XV?$function@$$A6AXHPEAV?$Local@VValue@v8@@@v8@@@Z@3@@std@@EEBAPEAV?$_Func_base@XV?$function@$$A6AXHPEAV?$Local@VValue@v8@@@v8@@@Z@std@@@2@PEAX@Z 0000000180026a80 f i _nodert_generated.obj
 0001:00025ae0       ?_Delete_this@?$_Func_impl@V<lambda_a17e3eb8892ab9825149c4ba725890fa>@@V?$allocator@H@std@@XV?$function@$$A6AXHPEAV?$Local@VValue@v8@@@v8@@@Z@3@@std@@EEAAX_N@Z 0000000180026ae0 f i _nodert_generated.obj
 0001:00025b40       ?_Target_type@?$_Func_impl@V<lambda_a17e3eb8892ab9825149c4ba725890fa>@@V?$allocator@H@std@@XV?$function@$$A6AXHPEAV?$Local@VValue@v8@@@v8@@@Z@3@@std@@EEBAAEBVtype_info@@XZ 0000000180026b40 f i _nodert_generated.obj
 0001:00025b50       ?_Copy@?$_Func_impl@V<lambda_a17e3eb8892ab9825149c4ba725890fa>@@V?$allocator@H@std@@XV?$function@$$A6AXHPEAV?$Local@VValue@v8@@@v8@@@Z@3@@std@@EEBAPEAV?$_Func_base@XV?$function@$$A6AXHPEAV?$Local@VValue@v8@@@v8@@@Z@std@@@2@PEAX@Z 0000000180026b50 f i _nodert_generated.obj
 0001:00025b50       ?_Move@?$_Func_impl@V<lambda_a17e3eb8892ab9825149c4ba725890fa>@@V?$allocator@H@std@@XV?$function@$$A6AXHPEAV?$Local@VValue@v8@@@v8@@@Z@3@@std@@EEAAPEAV?$_Func_base@XV?$function@$$A6AXHPEAV?$Local@VValue@v8@@@v8@@@Z@std@@@2@PEAX@Z 0000000180026b50 f i _nodert_generated.obj
 0001:00025ba0       ?_Delete_this@?$_Func_impl@V<lambda_eb246f27357fe68214346abbac0891b9>@@V?$allocator@H@std@@XV?$function@$$A6AXHPEAV?$Local@VValue@v8@@@v8@@@Z@3@@std@@EEAAX_N@Z 0000000180026ba0 f i _nodert_generated.obj
 0001:00025c00       ?_Target_type@?$_Func_impl@V<lambda_eb246f27357fe68214346abbac0891b9>@@V?$allocator@H@std@@XV?$function@$$A6AXHPEAV?$Local@VValue@v8@@@v8@@@Z@3@@std@@EEBAAEBVtype_info@@XZ 0000000180026c00 f i _nodert_generated.obj
 0001:00025c10       ?_Do_call@?$_Func_impl@V<lambda_eb246f27357fe68214346abbac0891b9>@@V?$allocator@H@std@@XV?$function@$$A6AXHPEAV?$Local@VValue@v8@@@v8@@@Z@3@@std@@EEAAX$$QEAV?$function@$$A6AXHPEAV?$Local@VValue@v8@@@v8@@@Z@2@@Z 0000000180026c10 f i _nodert_generated.obj
 0001:00025c40       ?_Move@?$_Func_impl@V<lambda_eb246f27357fe68214346abbac0891b9>@@V?$allocator@H@std@@XV?$function@$$A6AXHPEAV?$Local@VValue@v8@@@v8@@@Z@3@@std@@EEAAPEAV?$_Func_base@XV?$function@$$A6AXHPEAV?$Local@VValue@v8@@@v8@@@Z@std@@@2@PEAX@Z 0000000180026c40 f i _nodert_generated.obj
 0001:00025c40       ?_Copy@?$_Func_impl@V<lambda_eb246f27357fe68214346abbac0891b9>@@V?$allocator@H@std@@XV?$function@$$A6AXHPEAV?$Local@VValue@v8@@@v8@@@Z@3@@std@@EEBAPEAV?$_Func_base@XV?$function@$$A6AXHPEAV?$Local@VValue@v8@@@v8@@@Z@std@@@2@PEAX@Z 0000000180026c40 f i _nodert_generated.obj
 0001:00025c90       ?_Delete_this@?$_Func_impl@V<lambda_18b2633ead7fc6f6e4469ed3eeb4e6fa>@@V?$allocator@H@std@@XV?$function@$$A6AXHPEAV?$Local@VValue@v8@@@v8@@@Z@3@@std@@EEAAX_N@Z 0000000180026c90 f i _nodert_generated.obj
 0001:00025cf0       ?_Target_type@?$_Func_impl@V<lambda_18b2633ead7fc6f6e4469ed3eeb4e6fa>@@V?$allocator@H@std@@XV?$function@$$A6AXHPEAV?$Local@VValue@v8@@@v8@@@Z@3@@std@@EEBAAEBVtype_info@@XZ 0000000180026cf0 f i _nodert_generated.obj
 0001:00025d00       ?_Copy@?$_Func_impl@V<lambda_18b2633ead7fc6f6e4469ed3eeb4e6fa>@@V?$allocator@H@std@@XV?$function@$$A6AXHPEAV?$Local@VValue@v8@@@v8@@@Z@3@@std@@EEBAPEAV?$_Func_base@XV?$function@$$A6AXHPEAV?$Local@VValue@v8@@@v8@@@Z@std@@@2@PEAX@Z 0000000180026d00 f i _nodert_generated.obj
 0001:00025d00       ?_Move@?$_Func_impl@V<lambda_18b2633ead7fc6f6e4469ed3eeb4e6fa>@@V?$allocator@H@std@@XV?$function@$$A6AXHPEAV?$Local@VValue@v8@@@v8@@@Z@3@@std@@EEAAPEAV?$_Func_base@XV?$function@$$A6AXHPEAV?$Local@VValue@v8@@@v8@@@Z@std@@@2@PEAX@Z 0000000180026d00 f i _nodert_generated.obj
 0001:00025d50       ?_Delete_this@?$_Func_impl@V<lambda_4ccdb47b7f1ffbf2ccf188975fda679b>@@V?$allocator@H@std@@XV?$function@$$A6AXHPEAV?$Local@VValue@v8@@@v8@@@Z@3@@std@@EEAAX_N@Z 0000000180026d50 f i _nodert_generated.obj
 0001:00025da0       ?_Target_type@?$_Func_impl@V<lambda_4ccdb47b7f1ffbf2ccf188975fda679b>@@V?$allocator@H@std@@XV?$function@$$A6AXHPEAV?$Local@VValue@v8@@@v8@@@Z@3@@std@@EEBAAEBVtype_info@@XZ 0000000180026da0 f i _nodert_generated.obj
 0001:00025db0       ?_Copy@?$_Func_impl@V<lambda_4ccdb47b7f1ffbf2ccf188975fda679b>@@V?$allocator@H@std@@XV?$function@$$A6AXHPEAV?$Local@VValue@v8@@@v8@@@Z@3@@std@@EEBAPEAV?$_Func_base@XV?$function@$$A6AXHPEAV?$Local@VValue@v8@@@v8@@@Z@std@@@2@PEAX@Z 0000000180026db0 f i _nodert_generated.obj
 0001:00025db0       ?_Move@?$_Func_impl@V<lambda_4ccdb47b7f1ffbf2ccf188975fda679b>@@V?$allocator@H@std@@XV?$function@$$A6AXHPEAV?$Local@VValue@v8@@@v8@@@Z@3@@std@@EEAAPEAV?$_Func_base@XV?$function@$$A6AXHPEAV?$Local@VValue@v8@@@v8@@@Z@std@@@2@PEAX@Z 0000000180026db0 f i _nodert_generated.obj
 0001:00025e10       ?_Delete_this@?$_Func_impl@V<lambda_cc078ed2b0c8209a59551d1a1c4abe97>@@V?$allocator@H@std@@XV?$function@$$A6AXHPEAV?$Local@VValue@v8@@@v8@@@Z@3@@std@@EEAAX_N@Z 0000000180026e10 f i _nodert_generated.obj
 0001:00025e70       ?_Target_type@?$_Func_impl@V<lambda_cc078ed2b0c8209a59551d1a1c4abe97>@@V?$allocator@H@std@@XV?$function@$$A6AXHPEAV?$Local@VValue@v8@@@v8@@@Z@3@@std@@EEBAAEBVtype_info@@XZ 0000000180026e70 f i _nodert_generated.obj
 0001:00025e80       ?_Copy@?$_Func_impl@V<lambda_cc078ed2b0c8209a59551d1a1c4abe97>@@V?$allocator@H@std@@XV?$function@$$A6AXHPEAV?$Local@VValue@v8@@@v8@@@Z@3@@std@@EEBAPEAV?$_Func_base@XV?$function@$$A6AXHPEAV?$Local@VValue@v8@@@v8@@@Z@std@@@2@PEAX@Z 0000000180026e80 f i _nodert_generated.obj
 0001:00025e80       ?_Move@?$_Func_impl@V<lambda_cc078ed2b0c8209a59551d1a1c4abe97>@@V?$allocator@H@std@@XV?$function@$$A6AXHPEAV?$Local@VValue@v8@@@v8@@@Z@3@@std@@EEAAPEAV?$_Func_base@XV?$function@$$A6AXHPEAV?$Local@VValue@v8@@@v8@@@Z@std@@@2@PEAX@Z 0000000180026e80 f i _nodert_generated.obj
 0001:00025ed0       ?_Delete_this@?$_Func_impl@V<lambda_849986207adba1f7efb90e156e6a7b76>@@V?$allocator@H@std@@XV?$function@$$A6AXHPEAV?$Local@VValue@v8@@@v8@@@Z@3@@std@@EEAAX_N@Z 0000000180026ed0 f i _nodert_generated.obj
 0001:00025f20       ?_Target_type@?$_Func_impl@V<lambda_849986207adba1f7efb90e156e6a7b76>@@V?$allocator@H@std@@XV?$function@$$A6AXHPEAV?$Local@VValue@v8@@@v8@@@Z@3@@std@@EEBAAEBVtype_info@@XZ 0000000180026f20 f i _nodert_generated.obj
 0001:00025f30       ?_Copy@?$_Func_impl@V<lambda_849986207adba1f7efb90e156e6a7b76>@@V?$allocator@H@std@@XV?$function@$$A6AXHPEAV?$Local@VValue@v8@@@v8@@@Z@3@@std@@EEBAPEAV?$_Func_base@XV?$function@$$A6AXHPEAV?$Local@VValue@v8@@@v8@@@Z@std@@@2@PEAX@Z 0000000180026f30 f i _nodert_generated.obj
 0001:00025f30       ?_Move@?$_Func_impl@V<lambda_849986207adba1f7efb90e156e6a7b76>@@V?$allocator@H@std@@XV?$function@$$A6AXHPEAV?$Local@VValue@v8@@@v8@@@Z@3@@std@@EEAAPEAV?$_Func_base@XV?$function@$$A6AXHPEAV?$Local@VValue@v8@@@v8@@@Z@std@@@2@PEAX@Z 0000000180026f30 f i _nodert_generated.obj
 0001:00025f90       ?_Delete_this@?$_Func_impl@V<lambda_713d43ab4c57f2fa914cada6953956e0>@@V?$allocator@H@std@@XV?$function@$$A6AXHPEAV?$Local@VValue@v8@@@v8@@@Z@3@@std@@EEAAX_N@Z 0000000180026f90 f i _nodert_generated.obj
 0001:00025ff0       ?_Target_type@?$_Func_impl@V<lambda_713d43ab4c57f2fa914cada6953956e0>@@V?$allocator@H@std@@XV?$function@$$A6AXHPEAV?$Local@VValue@v8@@@v8@@@Z@3@@std@@EEBAAEBVtype_info@@XZ 0000000180026ff0 f i _nodert_generated.obj
 0001:00026000       ?_Copy@?$_Func_impl@V<lambda_713d43ab4c57f2fa914cada6953956e0>@@V?$allocator@H@std@@XV?$function@$$A6AXHPEAV?$Local@VValue@v8@@@v8@@@Z@3@@std@@EEBAPEAV?$_Func_base@XV?$function@$$A6AXHPEAV?$Local@VValue@v8@@@v8@@@Z@std@@@2@PEAX@Z 0000000180027000 f i _nodert_generated.obj
 0001:00026000       ?_Move@?$_Func_impl@V<lambda_713d43ab4c57f2fa914cada6953956e0>@@V?$allocator@H@std@@XV?$function@$$A6AXHPEAV?$Local@VValue@v8@@@v8@@@Z@3@@std@@EEAAPEAV?$_Func_base@XV?$function@$$A6AXHPEAV?$Local@VValue@v8@@@v8@@@Z@std@@@2@PEAX@Z 0000000180027000 f i _nodert_generated.obj
 0001:00026050       ?_Delete_this@?$_Func_impl@V<lambda_b0e3d2bdc7554e03e713ca9347ec6901>@@V?$allocator@H@std@@XV?$function@$$A6AXHPEAV?$Local@VValue@v8@@@v8@@@Z@3@@std@@EEAAX_N@Z 0000000180027050 f i _nodert_generated.obj
 0001:000260a0       ?_Target_type@?$_Func_impl@V<lambda_b0e3d2bdc7554e03e713ca9347ec6901>@@V?$allocator@H@std@@XV?$function@$$A6AXHPEAV?$Local@VValue@v8@@@v8@@@Z@3@@std@@EEBAAEBVtype_info@@XZ 00000001800270a0 f i _nodert_generated.obj
 0001:000260b0       ?_Move@?$_Func_impl@V<lambda_b0e3d2bdc7554e03e713ca9347ec6901>@@V?$allocator@H@std@@XV?$function@$$A6AXHPEAV?$Local@VValue@v8@@@v8@@@Z@3@@std@@EEAAPEAV?$_Func_base@XV?$function@$$A6AXHPEAV?$Local@VValue@v8@@@v8@@@Z@std@@@2@PEAX@Z 00000001800270b0 f i _nodert_generated.obj
 0001:000260b0       ?_Copy@?$_Func_impl@V<lambda_b0e3d2bdc7554e03e713ca9347ec6901>@@V?$allocator@H@std@@XV?$function@$$A6AXHPEAV?$Local@VValue@v8@@@v8@@@Z@3@@std@@EEBAPEAV?$_Func_base@XV?$function@$$A6AXHPEAV?$Local@VValue@v8@@@v8@@@Z@std@@@2@PEAX@Z 00000001800270b0 f i _nodert_generated.obj
 0001:00026110       ?_Delete_this@?$_Func_impl@V<lambda_30ce2cebd3e1f6a190e64ff404c2202a>@@V?$allocator@H@std@@XV?$function@$$A6AXHPEAV?$Local@VValue@v8@@@v8@@@Z@3@@std@@EEAAX_N@Z 0000000180027110 f i _nodert_generated.obj
 0001:00026170       ?_Target_type@?$_Func_impl@V<lambda_30ce2cebd3e1f6a190e64ff404c2202a>@@V?$allocator@H@std@@XV?$function@$$A6AXHPEAV?$Local@VValue@v8@@@v8@@@Z@3@@std@@EEBAAEBVtype_info@@XZ 0000000180027170 f i _nodert_generated.obj
 0001:00026180       ?_Copy@?$_Func_impl@V<lambda_30ce2cebd3e1f6a190e64ff404c2202a>@@V?$allocator@H@std@@XV?$function@$$A6AXHPEAV?$Local@VValue@v8@@@v8@@@Z@3@@std@@EEBAPEAV?$_Func_base@XV?$function@$$A6AXHPEAV?$Local@VValue@v8@@@v8@@@Z@std@@@2@PEAX@Z 0000000180027180 f i _nodert_generated.obj
 0001:00026180       ?_Move@?$_Func_impl@V<lambda_30ce2cebd3e1f6a190e64ff404c2202a>@@V?$allocator@H@std@@XV?$function@$$A6AXHPEAV?$Local@VValue@v8@@@v8@@@Z@3@@std@@EEAAPEAV?$_Func_base@XV?$function@$$A6AXHPEAV?$Local@VValue@v8@@@v8@@@Z@std@@@2@PEAX@Z 0000000180027180 f i _nodert_generated.obj
 0001:000261d0       ?_Delete_this@?$_Func_impl@V<lambda_790fb16f6c871e6c2624916e0240bd11>@@V?$allocator@H@std@@XV?$function@$$A6AXHPEAV?$Local@VValue@v8@@@v8@@@Z@3@@std@@EEAAX_N@Z 00000001800271d0 f i _nodert_generated.obj
 0001:00026220       ?_Target_type@?$_Func_impl@V<lambda_790fb16f6c871e6c2624916e0240bd11>@@V?$allocator@H@std@@XV?$function@$$A6AXHPEAV?$Local@VValue@v8@@@v8@@@Z@3@@std@@EEBAAEBVtype_info@@XZ 0000000180027220 f i _nodert_generated.obj
 0001:00026230       ?_Move@?$_Func_impl@V<lambda_790fb16f6c871e6c2624916e0240bd11>@@V?$allocator@H@std@@XV?$function@$$A6AXHPEAV?$Local@VValue@v8@@@v8@@@Z@3@@std@@EEAAPEAV?$_Func_base@XV?$function@$$A6AXHPEAV?$Local@VValue@v8@@@v8@@@Z@std@@@2@PEAX@Z 0000000180027230 f i _nodert_generated.obj
 0001:00026230       ?_Copy@?$_Func_impl@V<lambda_790fb16f6c871e6c2624916e0240bd11>@@V?$allocator@H@std@@XV?$function@$$A6AXHPEAV?$Local@VValue@v8@@@v8@@@Z@3@@std@@EEBAPEAV?$_Func_base@XV?$function@$$A6AXHPEAV?$Local@VValue@v8@@@v8@@@Z@std@@@2@PEAX@Z 0000000180027230 f i _nodert_generated.obj
 0001:00026290       ?_Delete_this@?$_Func_impl@V<lambda_621e08f071ba6e5d5373417c49677dca>@@V?$allocator@H@std@@XV?$function@$$A6AXHPEAV?$Local@VValue@v8@@@v8@@@Z@3@@std@@EEAAX_N@Z 0000000180027290 f i _nodert_generated.obj
 0001:000262f0       ?_Target_type@?$_Func_impl@V<lambda_621e08f071ba6e5d5373417c49677dca>@@V?$allocator@H@std@@XV?$function@$$A6AXHPEAV?$Local@VValue@v8@@@v8@@@Z@3@@std@@EEBAAEBVtype_info@@XZ 00000001800272f0 f i _nodert_generated.obj
 0001:00026300       ?_Copy@?$_Func_impl@V<lambda_621e08f071ba6e5d5373417c49677dca>@@V?$allocator@H@std@@XV?$function@$$A6AXHPEAV?$Local@VValue@v8@@@v8@@@Z@3@@std@@EEBAPEAV?$_Func_base@XV?$function@$$A6AXHPEAV?$Local@VValue@v8@@@v8@@@Z@std@@@2@PEAX@Z 0000000180027300 f i _nodert_generated.obj
 0001:00026300       ?_Move@?$_Func_impl@V<lambda_621e08f071ba6e5d5373417c49677dca>@@V?$allocator@H@std@@XV?$function@$$A6AXHPEAV?$Local@VValue@v8@@@v8@@@Z@3@@std@@EEAAPEAV?$_Func_base@XV?$function@$$A6AXHPEAV?$Local@VValue@v8@@@v8@@@Z@std@@@2@PEAX@Z 0000000180027300 f i _nodert_generated.obj
 0001:00026350       ?_Target_type@?$_Func_impl@V<lambda_5cd250c4e6f910ea43081ee63870250a>@@V?$allocator@H@std@@XV?$function@$$A6AXHPEAV?$Local@VValue@v8@@@v8@@@Z@3@@std@@EEBAAEBVtype_info@@XZ 0000000180027350 f i _nodert_generated.obj
 0001:00026360       ?_Copy@?$_Func_impl@V<lambda_5cd250c4e6f910ea43081ee63870250a>@@V?$allocator@H@std@@XV?$function@$$A6AXHPEAV?$Local@VValue@v8@@@v8@@@Z@3@@std@@EEBAPEAV?$_Func_base@XV?$function@$$A6AXHPEAV?$Local@VValue@v8@@@v8@@@Z@std@@@2@PEAX@Z 0000000180027360 f i _nodert_generated.obj
 0001:00026360       ?_Move@?$_Func_impl@V<lambda_5cd250c4e6f910ea43081ee63870250a>@@V?$allocator@H@std@@XV?$function@$$A6AXHPEAV?$Local@VValue@v8@@@v8@@@Z@3@@std@@EEAAPEAV?$_Func_base@XV?$function@$$A6AXHPEAV?$Local@VValue@v8@@@v8@@@Z@std@@@2@PEAX@Z 0000000180027360 f i _nodert_generated.obj
 0001:00026380       ?_Delete_this@?$_Func_impl@V<lambda_34d5782f3f5521aea81e3edfb7162e5f>@@V?$allocator@H@std@@XV?$function@$$A6AXHPEAV?$Local@VValue@v8@@@v8@@@Z@3@@std@@EEAAX_N@Z 0000000180027380 f i _nodert_generated.obj
 0001:000263e0       ?_Target_type@?$_Func_impl@V<lambda_34d5782f3f5521aea81e3edfb7162e5f>@@V?$allocator@H@std@@XV?$function@$$A6AXHPEAV?$Local@VValue@v8@@@v8@@@Z@3@@std@@EEBAAEBVtype_info@@XZ 00000001800273e0 f i _nodert_generated.obj
 0001:000263f0       ?_Move@?$_Func_impl@V<lambda_34d5782f3f5521aea81e3edfb7162e5f>@@V?$allocator@H@std@@XV?$function@$$A6AXHPEAV?$Local@VValue@v8@@@v8@@@Z@3@@std@@EEAAPEAV?$_Func_base@XV?$function@$$A6AXHPEAV?$Local@VValue@v8@@@v8@@@Z@std@@@2@PEAX@Z 00000001800273f0 f i _nodert_generated.obj
 0001:000263f0       ?_Copy@?$_Func_impl@V<lambda_34d5782f3f5521aea81e3edfb7162e5f>@@V?$allocator@H@std@@XV?$function@$$A6AXHPEAV?$Local@VValue@v8@@@v8@@@Z@3@@std@@EEBAPEAV?$_Func_base@XV?$function@$$A6AXHPEAV?$Local@VValue@v8@@@v8@@@Z@std@@@2@PEAX@Z 00000001800273f0 f i _nodert_generated.obj
 0001:00026440       ?_Target_type@?$_Func_impl@V<lambda_f690099ae625f80b95a1d81ffb1845cf>@@V?$allocator@H@std@@XV?$function@$$A6AXHPEAV?$Local@VValue@v8@@@v8@@@Z@3@@std@@EEBAAEBVtype_info@@XZ 0000000180027440 f i _nodert_generated.obj
 0001:00026450       ?_Move@?$_Func_impl@V<lambda_f690099ae625f80b95a1d81ffb1845cf>@@V?$allocator@H@std@@XV?$function@$$A6AXHPEAV?$Local@VValue@v8@@@v8@@@Z@3@@std@@EEAAPEAV?$_Func_base@XV?$function@$$A6AXHPEAV?$Local@VValue@v8@@@v8@@@Z@std@@@2@PEAX@Z 0000000180027450 f i _nodert_generated.obj
 0001:00026450       ?_Copy@?$_Func_impl@V<lambda_f690099ae625f80b95a1d81ffb1845cf>@@V?$allocator@H@std@@XV?$function@$$A6AXHPEAV?$Local@VValue@v8@@@v8@@@Z@3@@std@@EEBAPEAV?$_Func_base@XV?$function@$$A6AXHPEAV?$Local@VValue@v8@@@v8@@@Z@std@@@2@PEAX@Z 0000000180027450 f i _nodert_generated.obj
 0001:00026470       ?_Delete_this@?$_Func_impl@V<lambda_90b09dac011223b89e660207ea92210b>@@V?$allocator@H@std@@XV?$function@$$A6AXHPEAV?$Local@VValue@v8@@@v8@@@Z@3@@std@@EEAAX_N@Z 0000000180027470 f i _nodert_generated.obj
 0001:000264d0       ?_Target_type@?$_Func_impl@V<lambda_90b09dac011223b89e660207ea92210b>@@V?$allocator@H@std@@XV?$function@$$A6AXHPEAV?$Local@VValue@v8@@@v8@@@Z@3@@std@@EEBAAEBVtype_info@@XZ 00000001800274d0 f i _nodert_generated.obj
 0001:000264e0       ?_Copy@?$_Func_impl@V<lambda_90b09dac011223b89e660207ea92210b>@@V?$allocator@H@std@@XV?$function@$$A6AXHPEAV?$Local@VValue@v8@@@v8@@@Z@3@@std@@EEBAPEAV?$_Func_base@XV?$function@$$A6AXHPEAV?$Local@VValue@v8@@@v8@@@Z@std@@@2@PEAX@Z 00000001800274e0 f i _nodert_generated.obj
 0001:000264e0       ?_Move@?$_Func_impl@V<lambda_90b09dac011223b89e660207ea92210b>@@V?$allocator@H@std@@XV?$function@$$A6AXHPEAV?$Local@VValue@v8@@@v8@@@Z@3@@std@@EEAAPEAV?$_Func_base@XV?$function@$$A6AXHPEAV?$Local@VValue@v8@@@v8@@@Z@std@@@2@PEAX@Z 00000001800274e0 f i _nodert_generated.obj
 0001:00026530       ?_Target_type@?$_Func_impl@V<lambda_326f6c7fd35a5e479c8f23ef8a4cb891>@@V?$allocator@H@std@@XV?$function@$$A6AXHPEAV?$Local@VValue@v8@@@v8@@@Z@3@@std@@EEBAAEBVtype_info@@XZ 0000000180027530 f i _nodert_generated.obj
 0001:00026540       ?_Copy@?$_Func_impl@V<lambda_326f6c7fd35a5e479c8f23ef8a4cb891>@@V?$allocator@H@std@@XV?$function@$$A6AXHPEAV?$Local@VValue@v8@@@v8@@@Z@3@@std@@EEBAPEAV?$_Func_base@XV?$function@$$A6AXHPEAV?$Local@VValue@v8@@@v8@@@Z@std@@@2@PEAX@Z 0000000180027540 f i _nodert_generated.obj
 0001:00026540       ?_Move@?$_Func_impl@V<lambda_326f6c7fd35a5e479c8f23ef8a4cb891>@@V?$allocator@H@std@@XV?$function@$$A6AXHPEAV?$Local@VValue@v8@@@v8@@@Z@3@@std@@EEAAPEAV?$_Func_base@XV?$function@$$A6AXHPEAV?$Local@VValue@v8@@@v8@@@Z@std@@@2@PEAX@Z 0000000180027540 f i _nodert_generated.obj
 0001:00026560       ?_Delete_this@?$_Func_impl@V<lambda_dcb12585ed824e6d01e61282120cf55e>@@V?$allocator@H@std@@XV?$function@$$A6AXHPEAV?$Local@VValue@v8@@@v8@@@Z@3@@std@@EEAAX_N@Z 0000000180027560 f i _nodert_generated.obj
 0001:000265c0       ?_Target_type@?$_Func_impl@V<lambda_dcb12585ed824e6d01e61282120cf55e>@@V?$allocator@H@std@@XV?$function@$$A6AXHPEAV?$Local@VValue@v8@@@v8@@@Z@3@@std@@EEBAAEBVtype_info@@XZ 00000001800275c0 f i _nodert_generated.obj
 0001:000265d0       ?_Copy@?$_Func_impl@V<lambda_dcb12585ed824e6d01e61282120cf55e>@@V?$allocator@H@std@@XV?$function@$$A6AXHPEAV?$Local@VValue@v8@@@v8@@@Z@3@@std@@EEBAPEAV?$_Func_base@XV?$function@$$A6AXHPEAV?$Local@VValue@v8@@@v8@@@Z@std@@@2@PEAX@Z 00000001800275d0 f i _nodert_generated.obj
 0001:000265d0       ?_Move@?$_Func_impl@V<lambda_dcb12585ed824e6d01e61282120cf55e>@@V?$allocator@H@std@@XV?$function@$$A6AXHPEAV?$Local@VValue@v8@@@v8@@@Z@3@@std@@EEAAPEAV?$_Func_base@XV?$function@$$A6AXHPEAV?$Local@VValue@v8@@@v8@@@Z@std@@@2@PEAX@Z 00000001800275d0 f i _nodert_generated.obj
 0001:00026620       ?_Target_type@?$_Func_impl@V<lambda_09190bd06ab069a832e2523f3781087c>@@V?$allocator@H@std@@XV?$function@$$A6AXHPEAV?$Local@VValue@v8@@@v8@@@Z@3@@std@@EEBAAEBVtype_info@@XZ 0000000180027620 f i _nodert_generated.obj
 0001:00026630       ?_Move@?$_Func_impl@V<lambda_09190bd06ab069a832e2523f3781087c>@@V?$allocator@H@std@@XV?$function@$$A6AXHPEAV?$Local@VValue@v8@@@v8@@@Z@3@@std@@EEAAPEAV?$_Func_base@XV?$function@$$A6AXHPEAV?$Local@VValue@v8@@@v8@@@Z@std@@@2@PEAX@Z 0000000180027630 f i _nodert_generated.obj
 0001:00026630       ?_Copy@?$_Func_impl@V<lambda_09190bd06ab069a832e2523f3781087c>@@V?$allocator@H@std@@XV?$function@$$A6AXHPEAV?$Local@VValue@v8@@@v8@@@Z@3@@std@@EEBAPEAV?$_Func_base@XV?$function@$$A6AXHPEAV?$Local@VValue@v8@@@v8@@@Z@std@@@2@PEAX@Z 0000000180027630 f i _nodert_generated.obj
 0001:00026650       ?_Delete_this@?$_Func_impl@V<lambda_49d40b44faff285b2ab5bf950335b63e>@@V?$allocator@H@std@@V?$Local@VValue@v8@@@v8@@PE$AAU?$IKeyValuePair@PE$AAVString@Platform@@PE$AAVObject@2@@Collections@Foundation@Windows@@@std@@EEAAX_N@Z 0000000180027650 f i _nodert_generated.obj
 0001:00026670       ?_Target_type@?$_Func_impl@V<lambda_49d40b44faff285b2ab5bf950335b63e>@@V?$allocator@H@std@@V?$Local@VValue@v8@@@v8@@PE$AAU?$IKeyValuePair@PE$AAVString@Platform@@PE$AAVObject@2@@Collections@Foundation@Windows@@@std@@EEBAAEBVtype_info@@XZ 0000000180027670 f i _nodert_generated.obj
 0001:00026680       ?_Do_call@?$_Func_impl@V<lambda_49d40b44faff285b2ab5bf950335b63e>@@V?$allocator@H@std@@V?$Local@VValue@v8@@@v8@@PE$AAU?$IKeyValuePair@PE$AAVString@Platform@@PE$AAVObject@2@@Collections@Foundation@Windows@@@std@@EEAA?AV?$Local@VValue@v8@@@v8@@$$QEAPE$AAU?$IKeyValuePair@PE$AAVString@Platform@@PE$AAVObject@2@@Collections@Foundation@Windows@@@Z 0000000180027680 f i _nodert_generated.obj
 0001:000266a0       ?_Copy@?$_Func_impl@V<lambda_49d40b44faff285b2ab5bf950335b63e>@@V?$allocator@H@std@@V?$Local@VValue@v8@@@v8@@PE$AAU?$IKeyValuePair@PE$AAVString@Platform@@PE$AAVObject@2@@Collections@Foundation@Windows@@@std@@EEBAPEAV?$_Func_base@V?$Local@VValue@v8@@@v8@@PE$AAU?$IKeyValuePair@PE$AAVString@Platform@@PE$AAVObject@2@@Collections@Foundation@Windows@@@2@PEAX@Z 00000001800276a0 f i _nodert_generated.obj
 0001:000266a0       ?_Move@?$_Func_impl@V<lambda_49d40b44faff285b2ab5bf950335b63e>@@V?$allocator@H@std@@V?$Local@VValue@v8@@@v8@@PE$AAU?$IKeyValuePair@PE$AAVString@Platform@@PE$AAVObject@2@@Collections@Foundation@Windows@@@std@@EEAAPEAV?$_Func_base@V?$Local@VValue@v8@@@v8@@PE$AAU?$IKeyValuePair@PE$AAVString@Platform@@PE$AAVObject@2@@Collections@Foundation@Windows@@@2@PEAX@Z 00000001800276a0 f i _nodert_generated.obj
 0001:000266c0       ?_Delete_this@?$_Func_impl@V<lambda_8215ac15cdc9e56d811858647c76cf66>@@V?$allocator@H@std@@V?$Local@VValue@v8@@@v8@@PE$AAVObject@Platform@@@std@@EEAAX_N@Z 00000001800276c0 f i _nodert_generated.obj
 0001:000266c0       ?_Delete_this@?$_Func_impl@V<lambda_91b301a193aeb16ed51fb62a7ad09106>@@V?$allocator@H@std@@V?$Local@VValue@v8@@@v8@@PE$AAVObject@Platform@@@std@@EEAAX_N@Z 00000001800276c0 f i _nodert_generated.obj
 0001:000266c0       ?_Delete_this@?$_Func_impl@V<lambda_587670df7112283a5c24be1cf3e10d12>@@V?$allocator@H@std@@V?$Local@VValue@v8@@@v8@@PE$AAVObject@Platform@@@std@@EEAAX_N@Z 00000001800276c0 f i _nodert_generated.obj
 0001:000266e0       ?_Target_type@?$_Func_impl@V<lambda_587670df7112283a5c24be1cf3e10d12>@@V?$allocator@H@std@@V?$Local@VValue@v8@@@v8@@PE$AAVObject@Platform@@@std@@EEBAAEBVtype_info@@XZ 00000001800276e0 f i _nodert_generated.obj
 0001:000266f0       ?_Do_call@?$_Func_impl@V<lambda_8215ac15cdc9e56d811858647c76cf66>@@V?$allocator@H@std@@V?$Local@VValue@v8@@@v8@@PE$AAVObject@Platform@@@std@@EEAA?AV?$Local@VValue@v8@@@v8@@$$QEAPE$AAVObject@Platform@@@Z 00000001800276f0 f i _nodert_generated.obj
 0001:000266f0       ?_Do_call@?$_Func_impl@V<lambda_91b301a193aeb16ed51fb62a7ad09106>@@V?$allocator@H@std@@V?$Local@VValue@v8@@@v8@@PE$AAVObject@Platform@@@std@@EEAA?AV?$Local@VValue@v8@@@v8@@$$QEAPE$AAVObject@Platform@@@Z 00000001800276f0 f i _nodert_generated.obj
 0001:000266f0       ?_Do_call@?$_Func_impl@V<lambda_587670df7112283a5c24be1cf3e10d12>@@V?$allocator@H@std@@V?$Local@VValue@v8@@@v8@@PE$AAVObject@Platform@@@std@@EEAA?AV?$Local@VValue@v8@@@v8@@$$QEAPE$AAVObject@Platform@@@Z 00000001800276f0 f i _nodert_generated.obj
 0001:00026710       ?_Move@?$_Func_impl@V<lambda_587670df7112283a5c24be1cf3e10d12>@@V?$allocator@H@std@@V?$Local@VValue@v8@@@v8@@PE$AAVObject@Platform@@@std@@EEAAPEAV?$_Func_base@V?$Local@VValue@v8@@@v8@@PE$AAVObject@Platform@@@2@PEAX@Z 0000000180027710 f i _nodert_generated.obj
 0001:00026710       ?_Copy@?$_Func_impl@V<lambda_587670df7112283a5c24be1cf3e10d12>@@V?$allocator@H@std@@V?$Local@VValue@v8@@@v8@@PE$AAVObject@Platform@@@std@@EEBAPEAV?$_Func_base@V?$Local@VValue@v8@@@v8@@PE$AAVObject@Platform@@@2@PEAX@Z 0000000180027710 f i _nodert_generated.obj
 0001:00026730       ?_Delete_this@?$_Func_impl@V<lambda_0a4cdb8f1c9e05c22050feac4901f75f>@@V?$allocator@H@std@@V?$Local@VValue@v8@@@v8@@PE$AAVString@Platform@@@std@@EEAAX_N@Z 0000000180027730 f i _nodert_generated.obj
 0001:00026730       ?_Delete_this@?$_Func_impl@V<lambda_b8357930ac6bf88aeb68092f05f6b942>@@V?$allocator@H@std@@V?$Local@VValue@v8@@@v8@@PE$AAVString@Platform@@@std@@EEAAX_N@Z 0000000180027730 f i _nodert_generated.obj
 0001:00026730       ?_Delete_this@?$_Func_impl@V<lambda_cc72383f0805d59c97333d5cd58436ef>@@V?$allocator@H@std@@V?$Local@VValue@v8@@@v8@@PE$AAVString@Platform@@@std@@EEAAX_N@Z 0000000180027730 f i _nodert_generated.obj
 0001:00026730       ?_Delete_this@?$_Func_impl@V<lambda_b360fbdf5b4ffbfcd8c64068c8670886>@@V?$allocator@H@std@@V?$Local@VValue@v8@@@v8@@PE$AAVString@Platform@@@std@@EEAAX_N@Z 0000000180027730 f i _nodert_generated.obj
 0001:00026730       ?_Delete_this@?$_Func_impl@V<lambda_29689827c0425fd227f4adf15f3a4534>@@V?$allocator@H@std@@V?$Local@VValue@v8@@@v8@@PE$AAVString@Platform@@@std@@EEAAX_N@Z 0000000180027730 f i _nodert_generated.obj
 0001:00026730       ?_Delete_this@?$_Func_impl@V<lambda_14342bb0fc1a34e7de91090c40164206>@@V?$allocator@H@std@@V?$Local@VValue@v8@@@v8@@PE$AAVString@Platform@@@std@@EEAAX_N@Z 0000000180027730 f i _nodert_generated.obj
 0001:00026730       ?_Delete_this@?$_Func_impl@V<lambda_f09785eba58e50f096cc8fed22f3cc63>@@V?$allocator@H@std@@V?$Local@VValue@v8@@@v8@@PE$AAVString@Platform@@@std@@EEAAX_N@Z 0000000180027730 f i _nodert_generated.obj
 0001:00026750       ?_Target_type@?$_Func_impl@V<lambda_29689827c0425fd227f4adf15f3a4534>@@V?$allocator@H@std@@V?$Local@VValue@v8@@@v8@@PE$AAVString@Platform@@@std@@EEBAAEBVtype_info@@XZ 0000000180027750 f i _nodert_generated.obj
 0001:00026760       ?_Do_call@?$_Func_impl@V<lambda_f09785eba58e50f096cc8fed22f3cc63>@@V?$allocator@H@std@@V?$Local@VValue@v8@@@v8@@PE$AAVString@Platform@@@std@@EEAA?AV?$Local@VValue@v8@@@v8@@$$QEAPE$AAVString@Platform@@@Z 0000000180027760 f i _nodert_generated.obj
 0001:00026760       ?_Do_call@?$_Func_impl@V<lambda_29689827c0425fd227f4adf15f3a4534>@@V?$allocator@H@std@@V?$Local@VValue@v8@@@v8@@PE$AAVString@Platform@@@std@@EEAA?AV?$Local@VValue@v8@@@v8@@$$QEAPE$AAVString@Platform@@@Z 0000000180027760 f i _nodert_generated.obj
 0001:00026760       ?_Do_call@?$_Func_impl@V<lambda_14342bb0fc1a34e7de91090c40164206>@@V?$allocator@H@std@@V?$Local@VValue@v8@@@v8@@PE$AAVString@Platform@@@std@@EEAA?AV?$Local@VValue@v8@@@v8@@$$QEAPE$AAVString@Platform@@@Z 0000000180027760 f i _nodert_generated.obj
 0001:00026760       ?_Do_call@?$_Func_impl@V<lambda_0a4cdb8f1c9e05c22050feac4901f75f>@@V?$allocator@H@std@@V?$Local@VValue@v8@@@v8@@PE$AAVString@Platform@@@std@@EEAA?AV?$Local@VValue@v8@@@v8@@$$QEAPE$AAVString@Platform@@@Z 0000000180027760 f i _nodert_generated.obj
 0001:00026760       ?_Do_call@?$_Func_impl@V<lambda_b360fbdf5b4ffbfcd8c64068c8670886>@@V?$allocator@H@std@@V?$Local@VValue@v8@@@v8@@PE$AAVString@Platform@@@std@@EEAA?AV?$Local@VValue@v8@@@v8@@$$QEAPE$AAVString@Platform@@@Z 0000000180027760 f i _nodert_generated.obj
 0001:00026760       ?_Do_call@?$_Func_impl@V<lambda_cc72383f0805d59c97333d5cd58436ef>@@V?$allocator@H@std@@V?$Local@VValue@v8@@@v8@@PE$AAVString@Platform@@@std@@EEAA?AV?$Local@VValue@v8@@@v8@@$$QEAPE$AAVString@Platform@@@Z 0000000180027760 f i _nodert_generated.obj
 0001:00026760       ?_Do_call@?$_Func_impl@V<lambda_b8357930ac6bf88aeb68092f05f6b942>@@V?$allocator@H@std@@V?$Local@VValue@v8@@@v8@@PE$AAVString@Platform@@@std@@EEAA?AV?$Local@VValue@v8@@@v8@@$$QEAPE$AAVString@Platform@@@Z 0000000180027760 f i _nodert_generated.obj
 0001:000267d0       ?_Copy@?$_Func_impl@V<lambda_29689827c0425fd227f4adf15f3a4534>@@V?$allocator@H@std@@V?$Local@VValue@v8@@@v8@@PE$AAVString@Platform@@@std@@EEBAPEAV?$_Func_base@V?$Local@VValue@v8@@@v8@@PE$AAVString@Platform@@@2@PEAX@Z 00000001800277d0 f i _nodert_generated.obj
 0001:000267d0       ?_Move@?$_Func_impl@V<lambda_29689827c0425fd227f4adf15f3a4534>@@V?$allocator@H@std@@V?$Local@VValue@v8@@@v8@@PE$AAVString@Platform@@@std@@EEAAPEAV?$_Func_base@V?$Local@VValue@v8@@@v8@@PE$AAVString@Platform@@@2@PEAX@Z 00000001800277d0 f i _nodert_generated.obj
 0001:000267f0       ?_Target_type@?$_Func_impl@V<lambda_91b301a193aeb16ed51fb62a7ad09106>@@V?$allocator@H@std@@V?$Local@VValue@v8@@@v8@@PE$AAVObject@Platform@@@std@@EEBAAEBVtype_info@@XZ 00000001800277f0 f i _nodert_generated.obj
 0001:00026800       ?_Move@?$_Func_impl@V<lambda_91b301a193aeb16ed51fb62a7ad09106>@@V?$allocator@H@std@@V?$Local@VValue@v8@@@v8@@PE$AAVObject@Platform@@@std@@EEAAPEAV?$_Func_base@V?$Local@VValue@v8@@@v8@@PE$AAVObject@Platform@@@2@PEAX@Z 0000000180027800 f i _nodert_generated.obj
 0001:00026800       ?_Copy@?$_Func_impl@V<lambda_91b301a193aeb16ed51fb62a7ad09106>@@V?$allocator@H@std@@V?$Local@VValue@v8@@@v8@@PE$AAVObject@Platform@@@std@@EEBAPEAV?$_Func_base@V?$Local@VValue@v8@@@v8@@PE$AAVObject@Platform@@@2@PEAX@Z 0000000180027800 f i _nodert_generated.obj
 0001:00026820       ?_Delete_this@?$_Func_impl@V<lambda_10c4459c2f81eb5b686592d24c9f1c09>@@V?$allocator@H@std@@PE$AAVString@Platform@@V?$Local@VValue@v8@@@v8@@@std@@EEAAX_N@Z 0000000180027820 f i _nodert_generated.obj
 0001:00026820       ?_Delete_this@?$_Func_impl@V<lambda_eb54b70ebb75077bd41b4b5eb7f9699c>@@V?$allocator@H@std@@PE$AAVString@Platform@@V?$Local@VValue@v8@@@v8@@@std@@EEAAX_N@Z 0000000180027820 f i _nodert_generated.obj
 0001:00026820       ?_Delete_this@?$_Func_impl@V<lambda_f670e7edba470851bf82d4b0912a66c9>@@V?$allocator@H@std@@PE$AAVString@Platform@@V?$Local@VValue@v8@@@v8@@@std@@EEAAX_N@Z 0000000180027820 f i _nodert_generated.obj
 0001:00026820       ?_Delete_this@?$_Func_impl@V<lambda_39b061c4dcc493158582a0e51eceb8d8>@@V?$allocator@H@std@@PE$AAVString@Platform@@V?$Local@VValue@v8@@@v8@@@std@@EEAAX_N@Z 0000000180027820 f i _nodert_generated.obj
 0001:00026820       ?_Delete_this@?$_Func_impl@V<lambda_f3af825ce7732aca5e01be2fe411dff0>@@V?$allocator@H@std@@PE$AAVString@Platform@@V?$Local@VValue@v8@@@v8@@@std@@EEAAX_N@Z 0000000180027820 f i _nodert_generated.obj
 0001:00026820       ?_Delete_this@?$_Func_impl@V<lambda_41c33d0cb9f9b5c0b079696186e35e5b>@@V?$allocator@H@std@@PE$AAVString@Platform@@V?$Local@VValue@v8@@@v8@@@std@@EEAAX_N@Z 0000000180027820 f i _nodert_generated.obj
 0001:00026840       ?_Target_type@?$_Func_impl@V<lambda_f670e7edba470851bf82d4b0912a66c9>@@V?$allocator@H@std@@PE$AAVString@Platform@@V?$Local@VValue@v8@@@v8@@@std@@EEBAAEBVtype_info@@XZ 0000000180027840 f i _nodert_generated.obj
 0001:00026850       ?_Do_call@?$_Func_impl@V<lambda_f670e7edba470851bf82d4b0912a66c9>@@V?$allocator@H@std@@PE$AAVString@Platform@@V?$Local@VValue@v8@@@v8@@@std@@EEAAPE$AAVString@Platform@@$$QEAV?$Local@VValue@v8@@@v8@@@Z 0000000180027850 f i _nodert_generated.obj
 0001:00026850       ?_Do_call@?$_Func_impl@V<lambda_41c33d0cb9f9b5c0b079696186e35e5b>@@V?$allocator@H@std@@PE$AAVString@Platform@@V?$Local@VValue@v8@@@v8@@@std@@EEAAPE$AAVString@Platform@@$$QEAV?$Local@VValue@v8@@@v8@@@Z 0000000180027850 f i _nodert_generated.obj
 0001:00026850       ?_Do_call@?$_Func_impl@V<lambda_eb54b70ebb75077bd41b4b5eb7f9699c>@@V?$allocator@H@std@@PE$AAVString@Platform@@V?$Local@VValue@v8@@@v8@@@std@@EEAAPE$AAVString@Platform@@$$QEAV?$Local@VValue@v8@@@v8@@@Z 0000000180027850 f i _nodert_generated.obj
 0001:00026850       ?_Do_call@?$_Func_impl@V<lambda_10c4459c2f81eb5b686592d24c9f1c09>@@V?$allocator@H@std@@PE$AAVString@Platform@@V?$Local@VValue@v8@@@v8@@@std@@EEAAPE$AAVString@Platform@@$$QEAV?$Local@VValue@v8@@@v8@@@Z 0000000180027850 f i _nodert_generated.obj
 0001:00026850       ?_Do_call@?$_Func_impl@V<lambda_39b061c4dcc493158582a0e51eceb8d8>@@V?$allocator@H@std@@PE$AAVString@Platform@@V?$Local@VValue@v8@@@v8@@@std@@EEAAPE$AAVString@Platform@@$$QEAV?$Local@VValue@v8@@@v8@@@Z 0000000180027850 f i _nodert_generated.obj
 0001:00026850       ?_Do_call@?$_Func_impl@V<lambda_f3af825ce7732aca5e01be2fe411dff0>@@V?$allocator@H@std@@PE$AAVString@Platform@@V?$Local@VValue@v8@@@v8@@@std@@EEAAPE$AAVString@Platform@@$$QEAV?$Local@VValue@v8@@@v8@@@Z 0000000180027850 f i _nodert_generated.obj
 0001:00026890       ?_Copy@?$_Func_impl@V<lambda_f670e7edba470851bf82d4b0912a66c9>@@V?$allocator@H@std@@PE$AAVString@Platform@@V?$Local@VValue@v8@@@v8@@@std@@EEBAPEAV?$_Func_base@PE$AAVString@Platform@@V?$Local@VValue@v8@@@v8@@@2@PEAX@Z 0000000180027890 f i _nodert_generated.obj
 0001:00026890       ?_Move@?$_Func_impl@V<lambda_f670e7edba470851bf82d4b0912a66c9>@@V?$allocator@H@std@@PE$AAVString@Platform@@V?$Local@VValue@v8@@@v8@@@std@@EEAAPEAV?$_Func_base@PE$AAVString@Platform@@V?$Local@VValue@v8@@@v8@@@2@PEAX@Z 0000000180027890 f i _nodert_generated.obj
 0001:000268b0       ?_Delete_this@?$_Func_impl@V<lambda_00dae82a930d63f88c9fd3675f67fbee>@@V?$allocator@H@std@@_NV?$Local@VValue@v8@@@v8@@@std@@EEAAX_N@Z 00000001800278b0 f i _nodert_generated.obj
 0001:000268b0       ?_Delete_this@?$_Func_impl@V<lambda_560709c181b7cb4e9c377fd68c191fda>@@V?$allocator@H@std@@_NV?$Local@VValue@v8@@@v8@@@std@@EEAAX_N@Z 00000001800278b0 f i _nodert_generated.obj
 0001:000268b0       ?_Delete_this@?$_Func_impl@V<lambda_07dd6612f4a3f3115d9ecc964b8ae3dc>@@V?$allocator@H@std@@_NV?$Local@VValue@v8@@@v8@@@std@@EEAAX_N@Z 00000001800278b0 f i _nodert_generated.obj
 0001:000268b0       ?_Delete_this@?$_Func_impl@V<lambda_19fd5fc6a920c979b743ae35727eef78>@@V?$allocator@H@std@@_NV?$Local@VValue@v8@@@v8@@@std@@EEAAX_N@Z 00000001800278b0 f i _nodert_generated.obj
 0001:000268b0       ?_Delete_this@?$_Func_impl@V<lambda_18fe36498142698896b2505f11ad50c3>@@V?$allocator@H@std@@_NV?$Local@VValue@v8@@@v8@@@std@@EEAAX_N@Z 00000001800278b0 f i _nodert_generated.obj
 0001:000268b0       ?_Delete_this@?$_Func_impl@V<lambda_de0b6cb514951d25629a6327c06abf7c>@@V?$allocator@H@std@@_NV?$Local@VValue@v8@@@v8@@@std@@EEAAX_N@Z 00000001800278b0 f i _nodert_generated.obj
 0001:000268b0       ?_Delete_this@?$_Func_impl@V<lambda_d8c8bc66ae64912877885a1264c60903>@@V?$allocator@H@std@@_NV?$Local@VValue@v8@@@v8@@@std@@EEAAX_N@Z 00000001800278b0 f i _nodert_generated.obj
 0001:000268d0       ?_Target_type@?$_Func_impl@V<lambda_de0b6cb514951d25629a6327c06abf7c>@@V?$allocator@H@std@@_NV?$Local@VValue@v8@@@v8@@@std@@EEBAAEBVtype_info@@XZ 00000001800278d0 f i _nodert_generated.obj
 0001:000268e0       ?_Do_call@?$_Func_impl@V<lambda_d8c8bc66ae64912877885a1264c60903>@@V?$allocator@H@std@@_NV?$Local@VValue@v8@@@v8@@@std@@EEAA_N$$QEAV?$Local@VValue@v8@@@v8@@@Z 00000001800278e0 f i _nodert_generated.obj
 0001:000268e0       ?_Do_call@?$_Func_impl@V<lambda_00dae82a930d63f88c9fd3675f67fbee>@@V?$allocator@H@std@@_NV?$Local@VValue@v8@@@v8@@@std@@EEAA_N$$QEAV?$Local@VValue@v8@@@v8@@@Z 00000001800278e0 f i _nodert_generated.obj
 0001:000268e0       ?_Do_call@?$_Func_impl@V<lambda_19fd5fc6a920c979b743ae35727eef78>@@V?$allocator@H@std@@_NV?$Local@VValue@v8@@@v8@@@std@@EEAA_N$$QEAV?$Local@VValue@v8@@@v8@@@Z 00000001800278e0 f i _nodert_generated.obj
 0001:000268e0       ?_Do_call@?$_Func_impl@V<lambda_de0b6cb514951d25629a6327c06abf7c>@@V?$allocator@H@std@@_NV?$Local@VValue@v8@@@v8@@@std@@EEAA_N$$QEAV?$Local@VValue@v8@@@v8@@@Z 00000001800278e0 f i _nodert_generated.obj
 0001:000268e0       ?_Do_call@?$_Func_impl@V<lambda_07dd6612f4a3f3115d9ecc964b8ae3dc>@@V?$allocator@H@std@@_NV?$Local@VValue@v8@@@v8@@@std@@EEAA_N$$QEAV?$Local@VValue@v8@@@v8@@@Z 00000001800278e0 f i _nodert_generated.obj
 0001:000268e0       ?_Do_call@?$_Func_impl@V<lambda_560709c181b7cb4e9c377fd68c191fda>@@V?$allocator@H@std@@_NV?$Local@VValue@v8@@@v8@@@std@@EEAA_N$$QEAV?$Local@VValue@v8@@@v8@@@Z 00000001800278e0 f i _nodert_generated.obj
 0001:000268e0       ?_Do_call@?$_Func_impl@V<lambda_18fe36498142698896b2505f11ad50c3>@@V?$allocator@H@std@@_NV?$Local@VValue@v8@@@v8@@@std@@EEAA_N$$QEAV?$Local@VValue@v8@@@v8@@@Z 00000001800278e0 f i _nodert_generated.obj
 0001:00026910       ?_Move@?$_Func_impl@V<lambda_de0b6cb514951d25629a6327c06abf7c>@@V?$allocator@H@std@@_NV?$Local@VValue@v8@@@v8@@@std@@EEAAPEAV?$_Func_base@_NV?$Local@VValue@v8@@@v8@@@2@PEAX@Z 0000000180027910 f i _nodert_generated.obj
 0001:00026910       ?_Copy@?$_Func_impl@V<lambda_de0b6cb514951d25629a6327c06abf7c>@@V?$allocator@H@std@@_NV?$Local@VValue@v8@@@v8@@@std@@EEBAPEAV?$_Func_base@_NV?$Local@VValue@v8@@@v8@@@2@PEAX@Z 0000000180027910 f i _nodert_generated.obj
 0001:00026930       ?_Target_type@?$_Func_impl@V<lambda_cc72383f0805d59c97333d5cd58436ef>@@V?$allocator@H@std@@V?$Local@VValue@v8@@@v8@@PE$AAVString@Platform@@@std@@EEBAAEBVtype_info@@XZ 0000000180027930 f i _nodert_generated.obj
 0001:00026940       ?_Move@?$_Func_impl@V<lambda_cc72383f0805d59c97333d5cd58436ef>@@V?$allocator@H@std@@V?$Local@VValue@v8@@@v8@@PE$AAVString@Platform@@@std@@EEAAPEAV?$_Func_base@V?$Local@VValue@v8@@@v8@@PE$AAVString@Platform@@@2@PEAX@Z 0000000180027940 f i _nodert_generated.obj
 0001:00026940       ?_Copy@?$_Func_impl@V<lambda_cc72383f0805d59c97333d5cd58436ef>@@V?$allocator@H@std@@V?$Local@VValue@v8@@@v8@@PE$AAVString@Platform@@@std@@EEBAPEAV?$_Func_base@V?$Local@VValue@v8@@@v8@@PE$AAVString@Platform@@@2@PEAX@Z 0000000180027940 f i _nodert_generated.obj
 0001:00026960       ?_Target_type@?$_Func_impl@V<lambda_8215ac15cdc9e56d811858647c76cf66>@@V?$allocator@H@std@@V?$Local@VValue@v8@@@v8@@PE$AAVObject@Platform@@@std@@EEBAAEBVtype_info@@XZ 0000000180027960 f i _nodert_generated.obj
 0001:00026970       ?_Copy@?$_Func_impl@V<lambda_8215ac15cdc9e56d811858647c76cf66>@@V?$allocator@H@std@@V?$Local@VValue@v8@@@v8@@PE$AAVObject@Platform@@@std@@EEBAPEAV?$_Func_base@V?$Local@VValue@v8@@@v8@@PE$AAVObject@Platform@@@2@PEAX@Z 0000000180027970 f i _nodert_generated.obj
 0001:00026970       ?_Move@?$_Func_impl@V<lambda_8215ac15cdc9e56d811858647c76cf66>@@V?$allocator@H@std@@V?$Local@VValue@v8@@@v8@@PE$AAVObject@Platform@@@std@@EEAAPEAV?$_Func_base@V?$Local@VValue@v8@@@v8@@PE$AAVObject@Platform@@@2@PEAX@Z 0000000180027970 f i _nodert_generated.obj
 0001:00026990       ?_Target_type@?$_Func_impl@V<lambda_39b061c4dcc493158582a0e51eceb8d8>@@V?$allocator@H@std@@PE$AAVString@Platform@@V?$Local@VValue@v8@@@v8@@@std@@EEBAAEBVtype_info@@XZ 0000000180027990 f i _nodert_generated.obj
 0001:000269a0       ?_Move@?$_Func_impl@V<lambda_39b061c4dcc493158582a0e51eceb8d8>@@V?$allocator@H@std@@PE$AAVString@Platform@@V?$Local@VValue@v8@@@v8@@@std@@EEAAPEAV?$_Func_base@PE$AAVString@Platform@@V?$Local@VValue@v8@@@v8@@@2@PEAX@Z 00000001800279a0 f i _nodert_generated.obj
 0001:000269a0       ?_Copy@?$_Func_impl@V<lambda_39b061c4dcc493158582a0e51eceb8d8>@@V?$allocator@H@std@@PE$AAVString@Platform@@V?$Local@VValue@v8@@@v8@@@std@@EEBAPEAV?$_Func_base@PE$AAVString@Platform@@V?$Local@VValue@v8@@@v8@@@2@PEAX@Z 00000001800279a0 f i _nodert_generated.obj
 0001:000269c0       ?_Target_type@?$_Func_impl@V<lambda_00dae82a930d63f88c9fd3675f67fbee>@@V?$allocator@H@std@@_NV?$Local@VValue@v8@@@v8@@@std@@EEBAAEBVtype_info@@XZ 00000001800279c0 f i _nodert_generated.obj
 0001:000269d0       ?_Move@?$_Func_impl@V<lambda_00dae82a930d63f88c9fd3675f67fbee>@@V?$allocator@H@std@@_NV?$Local@VValue@v8@@@v8@@@std@@EEAAPEAV?$_Func_base@_NV?$Local@VValue@v8@@@v8@@@2@PEAX@Z 00000001800279d0 f i _nodert_generated.obj
 0001:000269d0       ?_Copy@?$_Func_impl@V<lambda_00dae82a930d63f88c9fd3675f67fbee>@@V?$allocator@H@std@@_NV?$Local@VValue@v8@@@v8@@@std@@EEBAPEAV?$_Func_base@_NV?$Local@VValue@v8@@@v8@@@2@PEAX@Z 00000001800279d0 f i _nodert_generated.obj
 0001:000269f0       ?_Target_type@?$_Func_impl@V<lambda_b8357930ac6bf88aeb68092f05f6b942>@@V?$allocator@H@std@@V?$Local@VValue@v8@@@v8@@PE$AAVString@Platform@@@std@@EEBAAEBVtype_info@@XZ 00000001800279f0 f i _nodert_generated.obj
 0001:00026a00       ?_Copy@?$_Func_impl@V<lambda_b8357930ac6bf88aeb68092f05f6b942>@@V?$allocator@H@std@@V?$Local@VValue@v8@@@v8@@PE$AAVString@Platform@@@std@@EEBAPEAV?$_Func_base@V?$Local@VValue@v8@@@v8@@PE$AAVString@Platform@@@2@PEAX@Z 0000000180027a00 f i _nodert_generated.obj
 0001:00026a00       ?_Move@?$_Func_impl@V<lambda_b8357930ac6bf88aeb68092f05f6b942>@@V?$allocator@H@std@@V?$Local@VValue@v8@@@v8@@PE$AAVString@Platform@@@std@@EEAAPEAV?$_Func_base@V?$Local@VValue@v8@@@v8@@PE$AAVString@Platform@@@2@PEAX@Z 0000000180027a00 f i _nodert_generated.obj
 0001:00026a20       ?_Target_type@?$_Func_impl@V<lambda_f3af825ce7732aca5e01be2fe411dff0>@@V?$allocator@H@std@@PE$AAVString@Platform@@V?$Local@VValue@v8@@@v8@@@std@@EEBAAEBVtype_info@@XZ 0000000180027a20 f i _nodert_generated.obj
 0001:00026a30       ?_Move@?$_Func_impl@V<lambda_f3af825ce7732aca5e01be2fe411dff0>@@V?$allocator@H@std@@PE$AAVString@Platform@@V?$Local@VValue@v8@@@v8@@@std@@EEAAPEAV?$_Func_base@PE$AAVString@Platform@@V?$Local@VValue@v8@@@v8@@@2@PEAX@Z 0000000180027a30 f i _nodert_generated.obj
 0001:00026a30       ?_Copy@?$_Func_impl@V<lambda_f3af825ce7732aca5e01be2fe411dff0>@@V?$allocator@H@std@@PE$AAVString@Platform@@V?$Local@VValue@v8@@@v8@@@std@@EEBAPEAV?$_Func_base@PE$AAVString@Platform@@V?$Local@VValue@v8@@@v8@@@2@PEAX@Z 0000000180027a30 f i _nodert_generated.obj
 0001:00026a50       ?_Target_type@?$_Func_impl@V<lambda_07dd6612f4a3f3115d9ecc964b8ae3dc>@@V?$allocator@H@std@@_NV?$Local@VValue@v8@@@v8@@@std@@EEBAAEBVtype_info@@XZ 0000000180027a50 f i _nodert_generated.obj
 0001:00026a60       ?_Move@?$_Func_impl@V<lambda_07dd6612f4a3f3115d9ecc964b8ae3dc>@@V?$allocator@H@std@@_NV?$Local@VValue@v8@@@v8@@@std@@EEAAPEAV?$_Func_base@_NV?$Local@VValue@v8@@@v8@@@2@PEAX@Z 0000000180027a60 f i _nodert_generated.obj
 0001:00026a60       ?_Copy@?$_Func_impl@V<lambda_07dd6612f4a3f3115d9ecc964b8ae3dc>@@V?$allocator@H@std@@_NV?$Local@VValue@v8@@@v8@@@std@@EEBAPEAV?$_Func_base@_NV?$Local@VValue@v8@@@v8@@@2@PEAX@Z 0000000180027a60 f i _nodert_generated.obj
 0001:00026a80       ?_Target_type@?$_Func_impl@V<lambda_0a4cdb8f1c9e05c22050feac4901f75f>@@V?$allocator@H@std@@V?$Local@VValue@v8@@@v8@@PE$AAVString@Platform@@@std@@EEBAAEBVtype_info@@XZ 0000000180027a80 f i _nodert_generated.obj
 0001:00026a90       ?_Move@?$_Func_impl@V<lambda_0a4cdb8f1c9e05c22050feac4901f75f>@@V?$allocator@H@std@@V?$Local@VValue@v8@@@v8@@PE$AAVString@Platform@@@std@@EEAAPEAV?$_Func_base@V?$Local@VValue@v8@@@v8@@PE$AAVString@Platform@@@2@PEAX@Z 0000000180027a90 f i _nodert_generated.obj
 0001:00026a90       ?_Copy@?$_Func_impl@V<lambda_0a4cdb8f1c9e05c22050feac4901f75f>@@V?$allocator@H@std@@V?$Local@VValue@v8@@@v8@@PE$AAVString@Platform@@@std@@EEBAPEAV?$_Func_base@V?$Local@VValue@v8@@@v8@@PE$AAVString@Platform@@@2@PEAX@Z 0000000180027a90 f i _nodert_generated.obj
 0001:00026ab0       ?_Target_type@?$_Func_impl@V<lambda_10c4459c2f81eb5b686592d24c9f1c09>@@V?$allocator@H@std@@PE$AAVString@Platform@@V?$Local@VValue@v8@@@v8@@@std@@EEBAAEBVtype_info@@XZ 0000000180027ab0 f i _nodert_generated.obj
 0001:00026ac0       ?_Copy@?$_Func_impl@V<lambda_10c4459c2f81eb5b686592d24c9f1c09>@@V?$allocator@H@std@@PE$AAVString@Platform@@V?$Local@VValue@v8@@@v8@@@std@@EEBAPEAV?$_Func_base@PE$AAVString@Platform@@V?$Local@VValue@v8@@@v8@@@2@PEAX@Z 0000000180027ac0 f i _nodert_generated.obj
 0001:00026ac0       ?_Move@?$_Func_impl@V<lambda_10c4459c2f81eb5b686592d24c9f1c09>@@V?$allocator@H@std@@PE$AAVString@Platform@@V?$Local@VValue@v8@@@v8@@@std@@EEAAPEAV?$_Func_base@PE$AAVString@Platform@@V?$Local@VValue@v8@@@v8@@@2@PEAX@Z 0000000180027ac0 f i _nodert_generated.obj
 0001:00026ae0       ?_Target_type@?$_Func_impl@V<lambda_18fe36498142698896b2505f11ad50c3>@@V?$allocator@H@std@@_NV?$Local@VValue@v8@@@v8@@@std@@EEBAAEBVtype_info@@XZ 0000000180027ae0 f i _nodert_generated.obj
 0001:00026af0       ?_Copy@?$_Func_impl@V<lambda_18fe36498142698896b2505f11ad50c3>@@V?$allocator@H@std@@_NV?$Local@VValue@v8@@@v8@@@std@@EEBAPEAV?$_Func_base@_NV?$Local@VValue@v8@@@v8@@@2@PEAX@Z 0000000180027af0 f i _nodert_generated.obj
 0001:00026af0       ?_Move@?$_Func_impl@V<lambda_18fe36498142698896b2505f11ad50c3>@@V?$allocator@H@std@@_NV?$Local@VValue@v8@@@v8@@@std@@EEAAPEAV?$_Func_base@_NV?$Local@VValue@v8@@@v8@@@2@PEAX@Z 0000000180027af0 f i _nodert_generated.obj
 0001:00026b10       ?_Target_type@?$_Func_impl@V<lambda_14342bb0fc1a34e7de91090c40164206>@@V?$allocator@H@std@@V?$Local@VValue@v8@@@v8@@PE$AAVString@Platform@@@std@@EEBAAEBVtype_info@@XZ 0000000180027b10 f i _nodert_generated.obj
 0001:00026b20       ?_Copy@?$_Func_impl@V<lambda_14342bb0fc1a34e7de91090c40164206>@@V?$allocator@H@std@@V?$Local@VValue@v8@@@v8@@PE$AAVString@Platform@@@std@@EEBAPEAV?$_Func_base@V?$Local@VValue@v8@@@v8@@PE$AAVString@Platform@@@2@PEAX@Z 0000000180027b20 f i _nodert_generated.obj
 0001:00026b20       ?_Move@?$_Func_impl@V<lambda_14342bb0fc1a34e7de91090c40164206>@@V?$allocator@H@std@@V?$Local@VValue@v8@@@v8@@PE$AAVString@Platform@@@std@@EEAAPEAV?$_Func_base@V?$Local@VValue@v8@@@v8@@PE$AAVString@Platform@@@2@PEAX@Z 0000000180027b20 f i _nodert_generated.obj
 0001:00026b40       ?_Target_type@?$_Func_impl@V<lambda_41c33d0cb9f9b5c0b079696186e35e5b>@@V?$allocator@H@std@@PE$AAVString@Platform@@V?$Local@VValue@v8@@@v8@@@std@@EEBAAEBVtype_info@@XZ 0000000180027b40 f i _nodert_generated.obj
 0001:00026b50       ?_Copy@?$_Func_impl@V<lambda_41c33d0cb9f9b5c0b079696186e35e5b>@@V?$allocator@H@std@@PE$AAVString@Platform@@V?$Local@VValue@v8@@@v8@@@std@@EEBAPEAV?$_Func_base@PE$AAVString@Platform@@V?$Local@VValue@v8@@@v8@@@2@PEAX@Z 0000000180027b50 f i _nodert_generated.obj
 0001:00026b50       ?_Move@?$_Func_impl@V<lambda_41c33d0cb9f9b5c0b079696186e35e5b>@@V?$allocator@H@std@@PE$AAVString@Platform@@V?$Local@VValue@v8@@@v8@@@std@@EEAAPEAV?$_Func_base@PE$AAVString@Platform@@V?$Local@VValue@v8@@@v8@@@2@PEAX@Z 0000000180027b50 f i _nodert_generated.obj
 0001:00026b70       ?_Target_type@?$_Func_impl@V<lambda_d8c8bc66ae64912877885a1264c60903>@@V?$allocator@H@std@@_NV?$Local@VValue@v8@@@v8@@@std@@EEBAAEBVtype_info@@XZ 0000000180027b70 f i _nodert_generated.obj
 0001:00026b80       ?_Move@?$_Func_impl@V<lambda_d8c8bc66ae64912877885a1264c60903>@@V?$allocator@H@std@@_NV?$Local@VValue@v8@@@v8@@@std@@EEAAPEAV?$_Func_base@_NV?$Local@VValue@v8@@@v8@@@2@PEAX@Z 0000000180027b80 f i _nodert_generated.obj
 0001:00026b80       ?_Copy@?$_Func_impl@V<lambda_d8c8bc66ae64912877885a1264c60903>@@V?$allocator@H@std@@_NV?$Local@VValue@v8@@@v8@@@std@@EEBAPEAV?$_Func_base@_NV?$Local@VValue@v8@@@v8@@@2@PEAX@Z 0000000180027b80 f i _nodert_generated.obj
 0001:00026ba0       ?_Target_type@?$_Func_impl@V<lambda_f09785eba58e50f096cc8fed22f3cc63>@@V?$allocator@H@std@@V?$Local@VValue@v8@@@v8@@PE$AAVString@Platform@@@std@@EEBAAEBVtype_info@@XZ 0000000180027ba0 f i _nodert_generated.obj
 0001:00026bb0       ?_Copy@?$_Func_impl@V<lambda_f09785eba58e50f096cc8fed22f3cc63>@@V?$allocator@H@std@@V?$Local@VValue@v8@@@v8@@PE$AAVString@Platform@@@std@@EEBAPEAV?$_Func_base@V?$Local@VValue@v8@@@v8@@PE$AAVString@Platform@@@2@PEAX@Z 0000000180027bb0 f i _nodert_generated.obj
 0001:00026bb0       ?_Move@?$_Func_impl@V<lambda_f09785eba58e50f096cc8fed22f3cc63>@@V?$allocator@H@std@@V?$Local@VValue@v8@@@v8@@PE$AAVString@Platform@@@std@@EEAAPEAV?$_Func_base@V?$Local@VValue@v8@@@v8@@PE$AAVString@Platform@@@2@PEAX@Z 0000000180027bb0 f i _nodert_generated.obj
 0001:00026bd0       ?_Target_type@?$_Func_impl@V<lambda_eb54b70ebb75077bd41b4b5eb7f9699c>@@V?$allocator@H@std@@PE$AAVString@Platform@@V?$Local@VValue@v8@@@v8@@@std@@EEBAAEBVtype_info@@XZ 0000000180027bd0 f i _nodert_generated.obj
 0001:00026be0       ?_Move@?$_Func_impl@V<lambda_eb54b70ebb75077bd41b4b5eb7f9699c>@@V?$allocator@H@std@@PE$AAVString@Platform@@V?$Local@VValue@v8@@@v8@@@std@@EEAAPEAV?$_Func_base@PE$AAVString@Platform@@V?$Local@VValue@v8@@@v8@@@2@PEAX@Z 0000000180027be0 f i _nodert_generated.obj
 0001:00026be0       ?_Copy@?$_Func_impl@V<lambda_eb54b70ebb75077bd41b4b5eb7f9699c>@@V?$allocator@H@std@@PE$AAVString@Platform@@V?$Local@VValue@v8@@@v8@@@std@@EEBAPEAV?$_Func_base@PE$AAVString@Platform@@V?$Local@VValue@v8@@@v8@@@2@PEAX@Z 0000000180027be0 f i _nodert_generated.obj
 0001:00026c00       ?_Target_type@?$_Func_impl@V<lambda_19fd5fc6a920c979b743ae35727eef78>@@V?$allocator@H@std@@_NV?$Local@VValue@v8@@@v8@@@std@@EEBAAEBVtype_info@@XZ 0000000180027c00 f i _nodert_generated.obj
 0001:00026c10       ?_Move@?$_Func_impl@V<lambda_19fd5fc6a920c979b743ae35727eef78>@@V?$allocator@H@std@@_NV?$Local@VValue@v8@@@v8@@@std@@EEAAPEAV?$_Func_base@_NV?$Local@VValue@v8@@@v8@@@2@PEAX@Z 0000000180027c10 f i _nodert_generated.obj
 0001:00026c10       ?_Copy@?$_Func_impl@V<lambda_19fd5fc6a920c979b743ae35727eef78>@@V?$allocator@H@std@@_NV?$Local@VValue@v8@@@v8@@@std@@EEBAPEAV?$_Func_base@_NV?$Local@VValue@v8@@@v8@@@2@PEAX@Z 0000000180027c10 f i _nodert_generated.obj
 0001:00026c30       ?_Target_type@?$_Func_impl@V<lambda_b360fbdf5b4ffbfcd8c64068c8670886>@@V?$allocator@H@std@@V?$Local@VValue@v8@@@v8@@PE$AAVString@Platform@@@std@@EEBAAEBVtype_info@@XZ 0000000180027c30 f i _nodert_generated.obj
 0001:00026c40       ?_Copy@?$_Func_impl@V<lambda_b360fbdf5b4ffbfcd8c64068c8670886>@@V?$allocator@H@std@@V?$Local@VValue@v8@@@v8@@PE$AAVString@Platform@@@std@@EEBAPEAV?$_Func_base@V?$Local@VValue@v8@@@v8@@PE$AAVString@Platform@@@2@PEAX@Z 0000000180027c40 f i _nodert_generated.obj
 0001:00026c40       ?_Move@?$_Func_impl@V<lambda_b360fbdf5b4ffbfcd8c64068c8670886>@@V?$allocator@H@std@@V?$Local@VValue@v8@@@v8@@PE$AAVString@Platform@@@std@@EEAAPEAV?$_Func_base@V?$Local@VValue@v8@@@v8@@PE$AAVString@Platform@@@2@PEAX@Z 0000000180027c40 f i _nodert_generated.obj
 0001:00026c60       ?_Delete_this@?$_Func_impl@V<lambda_05094e775daa4fff3e8cfe85cffce6d0>@@V?$allocator@H@std@@XV?$function@$$A6AXHPEAV?$Local@VValue@v8@@@v8@@@Z@3@@std@@EEAAX_N@Z 0000000180027c60 f i _nodert_generated.obj
 0001:00026cc0       ?_Target_type@?$_Func_impl@V<lambda_05094e775daa4fff3e8cfe85cffce6d0>@@V?$allocator@H@std@@XV?$function@$$A6AXHPEAV?$Local@VValue@v8@@@v8@@@Z@3@@std@@EEBAAEBVtype_info@@XZ 0000000180027cc0 f i _nodert_generated.obj
 0001:00026cd0       ?_Move@?$_Func_impl@V<lambda_05094e775daa4fff3e8cfe85cffce6d0>@@V?$allocator@H@std@@XV?$function@$$A6AXHPEAV?$Local@VValue@v8@@@v8@@@Z@3@@std@@EEAAPEAV?$_Func_base@XV?$function@$$A6AXHPEAV?$Local@VValue@v8@@@v8@@@Z@std@@@2@PEAX@Z 0000000180027cd0 f i _nodert_generated.obj
 0001:00026cd0       ?_Copy@?$_Func_impl@V<lambda_05094e775daa4fff3e8cfe85cffce6d0>@@V?$allocator@H@std@@XV?$function@$$A6AXHPEAV?$Local@VValue@v8@@@v8@@@Z@3@@std@@EEBAPEAV?$_Func_base@XV?$function@$$A6AXHPEAV?$Local@VValue@v8@@@v8@@@Z@std@@@2@PEAX@Z 0000000180027cd0 f i _nodert_generated.obj
 0001:00026d20       ?_Target_type@?$_Func_impl@V<lambda_8beb44cf918d84b3ab274f7936494749>@@V?$allocator@H@std@@XV?$function@$$A6AXHPEAV?$Local@VValue@v8@@@v8@@@Z@3@@std@@EEBAAEBVtype_info@@XZ 0000000180027d20 f i _nodert_generated.obj
 0001:00026d30       ?_Do_call@?$_Func_impl@V<lambda_8beb44cf918d84b3ab274f7936494749>@@V?$allocator@H@std@@XV?$function@$$A6AXHPEAV?$Local@VValue@v8@@@v8@@@Z@3@@std@@EEAAX$$QEAV?$function@$$A6AXHPEAV?$Local@VValue@v8@@@v8@@@Z@2@@Z 0000000180027d30 f i _nodert_generated.obj
 0001:00026d30       ?_Do_call@?$_Func_impl@V<lambda_4531d86c204c1c2cbe2cef4be8195a23>@@V?$allocator@H@std@@XV?$function@$$A6AXHPEAV?$Local@VValue@v8@@@v8@@@Z@3@@std@@EEAAX$$QEAV?$function@$$A6AXHPEAV?$Local@VValue@v8@@@v8@@@Z@2@@Z 0000000180027d30 f i _nodert_generated.obj
 0001:00026d60       ?_Move@?$_Func_impl@V<lambda_8beb44cf918d84b3ab274f7936494749>@@V?$allocator@H@std@@XV?$function@$$A6AXHPEAV?$Local@VValue@v8@@@v8@@@Z@3@@std@@EEAAPEAV?$_Func_base@XV?$function@$$A6AXHPEAV?$Local@VValue@v8@@@v8@@@Z@std@@@2@PEAX@Z 0000000180027d60 f i _nodert_generated.obj
 0001:00026d60       ?_Copy@?$_Func_impl@V<lambda_8beb44cf918d84b3ab274f7936494749>@@V?$allocator@H@std@@XV?$function@$$A6AXHPEAV?$Local@VValue@v8@@@v8@@@Z@3@@std@@EEBAPEAV?$_Func_base@XV?$function@$$A6AXHPEAV?$Local@VValue@v8@@@v8@@@Z@std@@@2@PEAX@Z 0000000180027d60 f i _nodert_generated.obj
 0001:00026d80       ?_Delete_this@?$_Func_impl@V<lambda_34316d8807e26dc07711d920bbc983e2>@@V?$allocator@H@std@@XV?$function@$$A6AXHPEAV?$Local@VValue@v8@@@v8@@@Z@3@@std@@EEAAX_N@Z 0000000180027d80 f i _nodert_generated.obj
 0001:00026de0       ?_Target_type@?$_Func_impl@V<lambda_34316d8807e26dc07711d920bbc983e2>@@V?$allocator@H@std@@XV?$function@$$A6AXHPEAV?$Local@VValue@v8@@@v8@@@Z@3@@std@@EEBAAEBVtype_info@@XZ 0000000180027de0 f i _nodert_generated.obj
 0001:00026df0       ?_Copy@?$_Func_impl@V<lambda_34316d8807e26dc07711d920bbc983e2>@@V?$allocator@H@std@@XV?$function@$$A6AXHPEAV?$Local@VValue@v8@@@v8@@@Z@3@@std@@EEBAPEAV?$_Func_base@XV?$function@$$A6AXHPEAV?$Local@VValue@v8@@@v8@@@Z@std@@@2@PEAX@Z 0000000180027df0 f i _nodert_generated.obj
 0001:00026df0       ?_Move@?$_Func_impl@V<lambda_34316d8807e26dc07711d920bbc983e2>@@V?$allocator@H@std@@XV?$function@$$A6AXHPEAV?$Local@VValue@v8@@@v8@@@Z@3@@std@@EEAAPEAV?$_Func_base@XV?$function@$$A6AXHPEAV?$Local@VValue@v8@@@v8@@@Z@std@@@2@PEAX@Z 0000000180027df0 f i _nodert_generated.obj
 0001:00026e40       ?_Target_type@?$_Func_impl@V<lambda_4531d86c204c1c2cbe2cef4be8195a23>@@V?$allocator@H@std@@XV?$function@$$A6AXHPEAV?$Local@VValue@v8@@@v8@@@Z@3@@std@@EEBAAEBVtype_info@@XZ 0000000180027e40 f i _nodert_generated.obj
 0001:00026e50       ?_Copy@?$_Func_impl@V<lambda_4531d86c204c1c2cbe2cef4be8195a23>@@V?$allocator@H@std@@XV?$function@$$A6AXHPEAV?$Local@VValue@v8@@@v8@@@Z@3@@std@@EEBAPEAV?$_Func_base@XV?$function@$$A6AXHPEAV?$Local@VValue@v8@@@v8@@@Z@std@@@2@PEAX@Z 0000000180027e50 f i _nodert_generated.obj
 0001:00026e50       ?_Move@?$_Func_impl@V<lambda_4531d86c204c1c2cbe2cef4be8195a23>@@V?$allocator@H@std@@XV?$function@$$A6AXHPEAV?$Local@VValue@v8@@@v8@@@Z@3@@std@@EEAAPEAV?$_Func_base@XV?$function@$$A6AXHPEAV?$Local@VValue@v8@@@v8@@@Z@std@@@2@PEAX@Z 0000000180027e50 f i _nodert_generated.obj
 0001:00026e70       ?_Delete_this@?$_Func_impl@V<lambda_fc55a96778b695da9907353a9fdacbca>@@V?$allocator@H@std@@X$$V@std@@EEAAX_N@Z 0000000180027e70 f i _nodert_generated.obj
 0001:00026ec0       ?_Target_type@?$_Func_impl@V<lambda_fc55a96778b695da9907353a9fdacbca>@@V?$allocator@H@std@@X$$V@std@@EEBAAEBVtype_info@@XZ 0000000180027ec0 f i _nodert_generated.obj
 0001:00026ed0       ?_Do_call@?$_Func_impl@V<lambda_fc55a96778b695da9907353a9fdacbca>@@V?$allocator@H@std@@X$$V@std@@EEAAXXZ 0000000180027ed0 f i _nodert_generated.obj
 0001:00026ee0       ?_Move@?$_Func_impl@V<lambda_fc55a96778b695da9907353a9fdacbca>@@V?$allocator@H@std@@X$$V@std@@EEAAPEAV?$_Func_base@X$$V@2@PEAX@Z 0000000180027ee0 f i _nodert_generated.obj
 0001:00026f40       ?_Copy@?$_Func_impl@V<lambda_fc55a96778b695da9907353a9fdacbca>@@V?$allocator@H@std@@X$$V@std@@EEBAPEAV?$_Func_base@X$$V@2@PEAX@Z 0000000180027f40 f i _nodert_generated.obj
 0001:00026fa0       ?_Delete_this@?$_Func_impl@V<lambda_1af583cf6945007177c61d87505abd8e>@@V?$allocator@H@std@@XHPEAV?$Local@VValue@v8@@@v8@@@std@@EEAAX_N@Z 0000000180027fa0 f i _nodert_generated.obj
 0001:00026fc0       ?_Target_type@?$_Func_impl@V<lambda_1af583cf6945007177c61d87505abd8e>@@V?$allocator@H@std@@XHPEAV?$Local@VValue@v8@@@v8@@@std@@EEBAAEBVtype_info@@XZ 0000000180027fc0 f i _nodert_generated.obj
 0001:00026fd0       ?_Do_call@?$_Func_impl@V<lambda_1af583cf6945007177c61d87505abd8e>@@V?$allocator@H@std@@XHPEAV?$Local@VValue@v8@@@v8@@@std@@EEAAX$$QEAH$$QEAPEAV?$Local@VValue@v8@@@v8@@@Z 0000000180027fd0 f i _nodert_generated.obj
 0001:00026fe0       ?_Copy@?$_Func_impl@V<lambda_1af583cf6945007177c61d87505abd8e>@@V?$allocator@H@std@@XHPEAV?$Local@VValue@v8@@@v8@@@std@@EEBAPEAV?$_Func_base@XHPEAV?$Local@VValue@v8@@@v8@@@2@PEAX@Z 0000000180027fe0 f i _nodert_generated.obj
 0001:00026fe0       ?_Move@?$_Func_impl@V<lambda_1af583cf6945007177c61d87505abd8e>@@V?$allocator@H@std@@XHPEAV?$Local@VValue@v8@@@v8@@@std@@EEAAPEAV?$_Func_base@XHPEAV?$Local@VValue@v8@@@v8@@@2@PEAX@Z 0000000180027fe0 f i _nodert_generated.obj
 0001:00027000       ?_Target_type@?$_Func_impl@V<lambda_560709c181b7cb4e9c377fd68c191fda>@@V?$allocator@H@std@@_NV?$Local@VValue@v8@@@v8@@@std@@EEBAAEBVtype_info@@XZ 0000000180028000 f i _nodert_generated.obj
 0001:00027010       ?_Move@?$_Func_impl@V<lambda_560709c181b7cb4e9c377fd68c191fda>@@V?$allocator@H@std@@_NV?$Local@VValue@v8@@@v8@@@std@@EEAAPEAV?$_Func_base@_NV?$Local@VValue@v8@@@v8@@@2@PEAX@Z 0000000180028010 f i _nodert_generated.obj
 0001:00027010       ?_Copy@?$_Func_impl@V<lambda_560709c181b7cb4e9c377fd68c191fda>@@V?$allocator@H@std@@_NV?$Local@VValue@v8@@@v8@@@std@@EEBAPEAV?$_Func_base@_NV?$Local@VValue@v8@@@v8@@@2@PEAX@Z 0000000180028010 f i _nodert_generated.obj
 0001:00027030       ?_Target_type@?$_Func_impl@V<lambda_ee2800ccd2b011420c5de0c63356449b>@@V?$allocator@H@std@@X$$V@std@@EEBAAEBVtype_info@@XZ 0000000180028030 f i _nodert_generated.obj
 0001:00027040       ?_Do_call@?$_Func_impl@V<lambda_ee2800ccd2b011420c5de0c63356449b>@@V?$allocator@H@std@@X$$V@std@@EEAAXXZ 0000000180028040 f i _nodert_generated.obj
 0001:00027050       ?_Copy@?$_Func_impl@V<lambda_ee2800ccd2b011420c5de0c63356449b>@@V?$allocator@H@std@@X$$V@std@@EEBAPEAV?$_Func_base@X$$V@2@PEAX@Z 0000000180028050 f i _nodert_generated.obj
 0001:00027050       ?_Move@?$_Func_impl@V<lambda_ee2800ccd2b011420c5de0c63356449b>@@V?$allocator@H@std@@X$$V@std@@EEAAPEAV?$_Func_base@X$$V@2@PEAX@Z 0000000180028050 f i _nodert_generated.obj
 0001:00027070       ?_Delete_this@?$_Func_impl@V<lambda_f25c37099038263181b5186a3fa41b37>@@V?$allocator@H@std@@X$$V@std@@EEAAX_N@Z 0000000180028070 f i _nodert_generated.obj
 0001:000270a0       ?_Target_type@?$_Func_impl@V<lambda_f25c37099038263181b5186a3fa41b37>@@V?$allocator@H@std@@X$$V@std@@EEBAAEBVtype_info@@XZ 00000001800280a0 f i _nodert_generated.obj
 0001:000270b0       ?_Do_call@?$_Func_impl@V<lambda_f25c37099038263181b5186a3fa41b37>@@V?$allocator@H@std@@X$$V@std@@EEAAXXZ 00000001800280b0 f i _nodert_generated.obj
 0001:000270f0       ?_Move@?$_Func_impl@V<lambda_f25c37099038263181b5186a3fa41b37>@@V?$allocator@H@std@@X$$V@std@@EEAAPEAV?$_Func_base@X$$V@2@PEAX@Z 00000001800280f0 f i _nodert_generated.obj
 0001:00027130       ?_Copy@?$_Func_impl@V<lambda_f25c37099038263181b5186a3fa41b37>@@V?$allocator@H@std@@X$$V@std@@EEBAPEAV?$_Func_base@X$$V@2@PEAX@Z 0000000180028130 f i _nodert_generated.obj
 0001:00027180       ??R?$_Func_class@EV?$task@W4SetAccountPictureResult@UserProfile@System@Windows@@@Concurrency@@@std@@QEBAEV?$task@W4SetAccountPictureResult@UserProfile@System@Windows@@@Concurrency@@@Z 0000000180028180 f i _nodert_generated.obj
 0001:00027180       ??R?$_Func_class@EV?$task@PE$AAVString@Platform@@@Concurrency@@@std@@QEBAEV?$task@PE$AAVString@Platform@@@Concurrency@@@Z 0000000180028180 f i _nodert_generated.obj
 0001:00027180       ??R?$_Func_class@EV?$task@X@Concurrency@@@std@@QEBAEV?$task@X@Concurrency@@@Z 0000000180028180 f i _nodert_generated.obj
 0001:00027180       ??R?$_Func_class@EV?$task@_N@Concurrency@@@std@@QEBAEV?$task@_N@Concurrency@@@Z 0000000180028180 f i _nodert_generated.obj
 0001:00027230       ??R?$_Func_class@EV?$task@PE$AAVUri@Foundation@Windows@@@Concurrency@@@std@@QEBAEV?$task@PE$AAVUri@Foundation@Windows@@@Concurrency@@@Z 0000000180028230 f i _nodert_generated.obj
 0001:000272e0       ??R?$_Func_class@EV?$task@W4SetImageFeedResult@UserProfile@System@Windows@@@Concurrency@@@std@@QEBAEV?$task@W4SetImageFeedResult@UserProfile@System@Windows@@@Concurrency@@@Z 00000001800282e0 f i _nodert_generated.obj
 0001:00027390       ??R?$_Func_class@XV?$task@W4SetImageFeedResult@UserProfile@System@Windows@@@Concurrency@@@std@@QEBAXV?$task@W4SetImageFeedResult@UserProfile@System@Windows@@@Concurrency@@@Z 0000000180028390 f i _nodert_generated.obj
 0001:00027440       ??R?$_Func_class@XV?$task@PE$AAVUri@Foundation@Windows@@@Concurrency@@@std@@QEBAXV?$task@PE$AAVUri@Foundation@Windows@@@Concurrency@@@Z 0000000180028440 f i _nodert_generated.obj
 0001:000274f0       ?_TaskInitAsyncOp@?$task@W4SetImageFeedResult@UserProfile@System@Windows@@@Concurrency@@AEAAXPE$AAU?$IAsyncOperation@W4SetImageFeedResult@UserProfile@System@Windows@@@Foundation@Windows@@@Z 00000001800284f0 f i _nodert_generated.obj
 0001:000275b0       ?_TaskInitAsyncOp@?$task@PE$AAVUri@Foundation@Windows@@@Concurrency@@AEAAXPE$AAU?$IAsyncOperation@PE$AAVUri@Foundation@Windows@@@Foundation@Windows@@@Z 00000001800285b0 f i _nodert_generated.obj
 0001:00027670       ?_TaskInitAsyncOp@?$task@PE$AAVString@Platform@@@Concurrency@@AEAAXPE$AAU?$IAsyncOperation@PE$AAVString@Platform@@@Foundation@Windows@@@Z 0000000180028670 f i _nodert_generated.obj
 0001:00027730       ?_TaskInitAsyncOp@?$task@W4SetAccountPictureResult@UserProfile@System@Windows@@@Concurrency@@AEAAXPE$AAU?$IAsyncOperation@W4SetAccountPictureResult@UserProfile@System@Windows@@@Foundation@Windows@@@Z 0000000180028730 f i _nodert_generated.obj
 0001:000277f0       ?_TaskInitAsyncOp@?$task@_N@Concurrency@@AEAAXPE$AAU?$IAsyncOperation@_N@Foundation@Windows@@@Z 00000001800287f0 f i _nodert_generated.obj
 0001:000278b0       ?__abi_Windows_Foundation_?$AsyncOperationCompletedHandler@_N___abi_IDelegate____abi_Invoke@?Q__abi_IDelegate@?$AsyncOperationCompletedHandler@_N@Foundation@Windows@@234@UE$AAAJPE$AAU?$IAsyncOperation@_N@34@W4AsyncStatus@34@@Z 00000001800288b0 f i _nodert_generated.obj
 0001:00027900       ?__abi_QueryInterface@?$AsyncOperationCompletedHandler@_N@Foundation@Windows@@UE$AAAJAEAVGuid@Platform@@PEAPEAX@Z 0000000180028900 f i _nodert_generated.obj
 0001:00027a30       ?__abi_GetRuntimeClassName@?$AsyncOperationCompletedHandler@_N@Foundation@Windows@@UE$AAAJPEAPEAUHSTRING__@@@Z 0000000180028a30 f i _nodert_generated.obj
 0001:00027a50       ?Invoke@?$AsyncOperationCompletedHandler@_N@Foundation@Windows@@UE$AAAXPE$AAU?$IAsyncOperation@_N@23@W4AsyncStatus@23@@Z 0000000180028a50 f i _nodert_generated.obj
 0001:00027a90       ??$?0AEBV?$allocator@H@std@@@?$_Wrap_alloc@V?$allocator@V?$_Func_impl@V<lambda_560709c181b7cb4e9c377fd68c191fda>@@V?$allocator@H@std@@_NV?$Local@VValue@v8@@@v8@@@std@@@std@@@std@@QEAA@AEBV?$allocator@H@1@@Z 0000000180028a90 f i _nodert_generated.obj
 0001:00027a90       ??$?0AEBV?$allocator@H@std@@V<lambda_560709c181b7cb4e9c377fd68c191fda>@@@?$_Compressed_pair@V?$allocator@H@std@@V<lambda_560709c181b7cb4e9c377fd68c191fda>@@$00@std@@QEAA@U_One_then_variadic_args_t@1@AEBV?$allocator@H@1@$$QEAV<lambda_560709c181b7cb4e9c377fd68c191fda>@@@Z 0000000180028a90 f i _nodert_generated.obj
 0001:00027aa0       ??$?0V<lambda_88a6fc8dc694f47ad77b7fd720085f6f>@@EX@?$function@$$A6AEV?$task@W4SetImageFeedResult@UserProfile@System@Windows@@@Concurrency@@@Z@std@@QEAA@V<lambda_88a6fc8dc694f47ad77b7fd720085f6f>@@@Z 0000000180028aa0 f i _nodert_generated.obj
 0001:00027b30       ??$?0V<lambda_5a6aa9a858230c5449dfcdc2049eeb97>@@EX@?$function@$$A6AEV?$task@PE$AAVUri@Foundation@Windows@@@Concurrency@@@Z@std@@QEAA@V<lambda_5a6aa9a858230c5449dfcdc2049eeb97>@@@Z 0000000180028b30 f i _nodert_generated.obj
 0001:00027bc0       ??$_Invoke_ret@PE$AAVString@Platform@@AEAV<lambda_10c4459c2f81eb5b686592d24c9f1c09>@@V?$Local@VValue@v8@@@v8@@@std@@YAPE$AAVString@Platform@@U?$_Forced@PE$AAVString@Platform@@$0A@@0@AEAV<lambda_10c4459c2f81eb5b686592d24c9f1c09>@@$$QEAV?$Local@VValue@v8@@@v8@@@Z 0000000180028bc0 f i _nodert_generated.obj
 0001:00027bc0       ??$_Invoke_ret@PE$AAVString@Platform@@AEAV<lambda_f3af825ce7732aca5e01be2fe411dff0>@@V?$Local@VValue@v8@@@v8@@@std@@YAPE$AAVString@Platform@@U?$_Forced@PE$AAVString@Platform@@$0A@@0@AEAV<lambda_f3af825ce7732aca5e01be2fe411dff0>@@$$QEAV?$Local@VValue@v8@@@v8@@@Z 0000000180028bc0 f i _nodert_generated.obj
 0001:00027bc0       ??$_Invoke_ret@PE$AAVString@Platform@@AEAV<lambda_f670e7edba470851bf82d4b0912a66c9>@@V?$Local@VValue@v8@@@v8@@@std@@YAPE$AAVString@Platform@@U?$_Forced@PE$AAVString@Platform@@$0A@@0@AEAV<lambda_f670e7edba470851bf82d4b0912a66c9>@@$$QEAV?$Local@VValue@v8@@@v8@@@Z 0000000180028bc0 f i _nodert_generated.obj
 0001:00027bc0       ??$_Invoke_ret@PE$AAVString@Platform@@AEAV<lambda_39b061c4dcc493158582a0e51eceb8d8>@@V?$Local@VValue@v8@@@v8@@@std@@YAPE$AAVString@Platform@@U?$_Forced@PE$AAVString@Platform@@$0A@@0@AEAV<lambda_39b061c4dcc493158582a0e51eceb8d8>@@$$QEAV?$Local@VValue@v8@@@v8@@@Z 0000000180028bc0 f i _nodert_generated.obj
 0001:00027bc0       ??$_Invoke_ret@PE$AAVString@Platform@@AEAV<lambda_41c33d0cb9f9b5c0b079696186e35e5b>@@V?$Local@VValue@v8@@@v8@@@std@@YAPE$AAVString@Platform@@U?$_Forced@PE$AAVString@Platform@@$0A@@0@AEAV<lambda_41c33d0cb9f9b5c0b079696186e35e5b>@@$$QEAV?$Local@VValue@v8@@@v8@@@Z 0000000180028bc0 f i _nodert_generated.obj
 0001:00027bc0       ??$_Invoke_ret@PE$AAVString@Platform@@AEAV<lambda_eb54b70ebb75077bd41b4b5eb7f9699c>@@V?$Local@VValue@v8@@@v8@@@std@@YAPE$AAVString@Platform@@U?$_Forced@PE$AAVString@Platform@@$0A@@0@AEAV<lambda_eb54b70ebb75077bd41b4b5eb7f9699c>@@$$QEAV?$Local@VValue@v8@@@v8@@@Z 0000000180028bc0 f i _nodert_generated.obj
 0001:00027e00       ?__abi_Windows_Foundation_?$AsyncOperationCompletedHandler@W4SetImageFeedResult@UserProfile@System@Windows@@___abi_IDelegate____abi_Invoke@?Q__abi_IDelegate@?$AsyncOperationCompletedHandler@W4SetImageFeedResult@UserProfile@System@Windows@@@Foundation@Windows@@234@UE$AAAJPE$AAU?$IAsyncOperation@W4SetImageFeedResult@UserProfile@System@Windows@@@34@W4AsyncStatus@34@@Z 0000000180028e00 f i _nodert_generated.obj
 0001:00027e50       ?__abi_QueryInterface@?$AsyncOperationCompletedHandler@W4SetImageFeedResult@UserProfile@System@Windows@@@Foundation@Windows@@UE$AAAJAEAVGuid@Platform@@PEAPEAX@Z 0000000180028e50 f i _nodert_generated.obj
 0001:00027f80       ?__abi_GetRuntimeClassName@?$AsyncOperationCompletedHandler@W4SetImageFeedResult@UserProfile@System@Windows@@@Foundation@Windows@@UE$AAAJPEAPEAUHSTRING__@@@Z 0000000180028f80 f i _nodert_generated.obj
 0001:00027fa0       ?Invoke@?$AsyncOperationCompletedHandler@W4SetImageFeedResult@UserProfile@System@Windows@@@Foundation@Windows@@UE$AAAXPE$AAU?$IAsyncOperation@W4SetImageFeedResult@UserProfile@System@Windows@@@23@W4AsyncStatus@23@@Z 0000000180028fa0 f i _nodert_generated.obj
 0001:00028180       ?__abi_Windows_Foundation_?$AsyncOperationCompletedHandler@PE$AAVUri@Foundation@Windows@@___abi_IDelegate____abi_Invoke@?Q__abi_IDelegate@?$AsyncOperationCompletedHandler@PE$AAVUri@Foundation@Windows@@@Foundation@Windows@@234@UE$AAAJPE$AAU?$IAsyncOperation@PE$AAVUri@Foundation@Windows@@@34@W4AsyncStatus@34@@Z 0000000180029180 f i _nodert_generated.obj
 0001:000281d0       ?__abi_QueryInterface@?$AsyncOperationCompletedHandler@PE$AAVUri@Foundation@Windows@@@Foundation@Windows@@UE$AAAJAEAVGuid@Platform@@PEAPEAX@Z 00000001800291d0 f i _nodert_generated.obj
 0001:00028300       ?__abi_GetRuntimeClassName@?$AsyncOperationCompletedHandler@PE$AAVUri@Foundation@Windows@@@Foundation@Windows@@UE$AAAJPEAPEAUHSTRING__@@@Z 0000000180029300 f i _nodert_generated.obj
 0001:00028320       ?Invoke@?$AsyncOperationCompletedHandler@PE$AAVUri@Foundation@Windows@@@Foundation@Windows@@UE$AAAXPE$AAU?$IAsyncOperation@PE$AAVUri@Foundation@Windows@@@23@W4AsyncStatus@23@@Z 0000000180029320 f i _nodert_generated.obj
 0001:000284f0       ?__abi_Windows_Foundation_?$AsyncOperationCompletedHandler@PE$AAVString@Platform@@___abi_IDelegate____abi_Invoke@?Q__abi_IDelegate@?$AsyncOperationCompletedHandler@PE$AAVString@Platform@@@Foundation@Windows@@234@UE$AAAJPE$AAU?$IAsyncOperation@PE$AAVString@Platform@@@34@W4AsyncStatus@34@@Z 00000001800294f0 f i _nodert_generated.obj
 0001:00028540       ?__abi_QueryInterface@?$AsyncOperationCompletedHandler@PE$AAVString@Platform@@@Foundation@Windows@@UE$AAAJAEAVGuid@Platform@@PEAPEAX@Z 0000000180029540 f i _nodert_generated.obj
 0001:00028670       ?__abi_GetRuntimeClassName@?$AsyncOperationCompletedHandler@PE$AAVString@Platform@@@Foundation@Windows@@UE$AAAJPEAPEAUHSTRING__@@@Z 0000000180029670 f i _nodert_generated.obj
 0001:00028690       ?Invoke@?$AsyncOperationCompletedHandler@PE$AAVString@Platform@@@Foundation@Windows@@UE$AAAXPE$AAU?$IAsyncOperation@PE$AAVString@Platform@@@23@W4AsyncStatus@23@@Z 0000000180029690 f i _nodert_generated.obj
 0001:000286d0       ?__abi_Windows_Foundation_?$AsyncOperationCompletedHandler@W4SetAccountPictureResult@UserProfile@System@Windows@@___abi_IDelegate____abi_Invoke@?Q__abi_IDelegate@?$AsyncOperationCompletedHandler@W4SetAccountPictureResult@UserProfile@System@Windows@@@Foundation@Windows@@234@UE$AAAJPE$AAU?$IAsyncOperation@W4SetAccountPictureResult@UserProfile@System@Windows@@@34@W4AsyncStatus@34@@Z 00000001800296d0 f i _nodert_generated.obj
 0001:00028720       ?__abi_QueryInterface@?$AsyncOperationCompletedHandler@W4SetAccountPictureResult@UserProfile@System@Windows@@@Foundation@Windows@@UE$AAAJAEAVGuid@Platform@@PEAPEAX@Z 0000000180029720 f i _nodert_generated.obj
 0001:00028850       ?__abi_GetRuntimeClassName@?$AsyncOperationCompletedHandler@W4SetAccountPictureResult@UserProfile@System@Windows@@@Foundation@Windows@@UE$AAAJPEAPEAUHSTRING__@@@Z 0000000180029850 f i _nodert_generated.obj
 0001:00028870       ?Invoke@?$AsyncOperationCompletedHandler@W4SetAccountPictureResult@UserProfile@System@Windows@@@Foundation@Windows@@UE$AAAXPE$AAU?$IAsyncOperation@W4SetAccountPictureResult@UserProfile@System@Windows@@@23@W4AsyncStatus@23@@Z 0000000180029870 f i _nodert_generated.obj
 0001:000288b0       ?_Delete_this@?$_Func_impl@V<lambda_77c2d008ad3a4cbef47859d7b5cd645e>@@V?$allocator@H@std@@XV?$task@X@Concurrency@@@std@@EEAAX_N@Z 00000001800298b0 f i _nodert_generated.obj
 0001:000288b0       ?_Delete_this@?$_Func_impl@V<lambda_cbae8c6cf33875e01c338a5f99abe71d>@@V?$allocator@H@std@@XV?$task@X@Concurrency@@@std@@EEAAX_N@Z 00000001800298b0 f i _nodert_generated.obj
 0001:000288d0       ?_Target_type@?$_Func_impl@V<lambda_cbae8c6cf33875e01c338a5f99abe71d>@@V?$allocator@H@std@@XV?$task@X@Concurrency@@@std@@EEBAAEBVtype_info@@XZ 00000001800298d0 f i _nodert_generated.obj
 0001:000288e0       ?_Do_call@?$_Func_impl@V<lambda_cbae8c6cf33875e01c338a5f99abe71d>@@V?$allocator@H@std@@XV?$task@X@Concurrency@@@std@@EEAAX$$QEAV?$task@X@Concurrency@@@Z 00000001800298e0 f i _nodert_generated.obj
 0001:00028920       ?_Move@?$_Func_impl@V<lambda_cbae8c6cf33875e01c338a5f99abe71d>@@V?$allocator@H@std@@XV?$task@X@Concurrency@@@std@@EEAAPEAV?$_Func_base@XV?$task@X@Concurrency@@@2@PEAX@Z 0000000180029920 f i _nodert_generated.obj
 0001:00028920       ?_Copy@?$_Func_impl@V<lambda_cbae8c6cf33875e01c338a5f99abe71d>@@V?$allocator@H@std@@XV?$task@X@Concurrency@@@std@@EEBAPEAV?$_Func_base@XV?$task@X@Concurrency@@@2@PEAX@Z 0000000180029920 f i _nodert_generated.obj
 0001:00028940       ?_Target_type@?$_Func_impl@V<lambda_77c2d008ad3a4cbef47859d7b5cd645e>@@V?$allocator@H@std@@XV?$task@X@Concurrency@@@std@@EEBAAEBVtype_info@@XZ 0000000180029940 f i _nodert_generated.obj
 0001:00028950       ?_Do_call@?$_Func_impl@V<lambda_77c2d008ad3a4cbef47859d7b5cd645e>@@V?$allocator@H@std@@XV?$task@X@Concurrency@@@std@@EEAAX$$QEAV?$task@X@Concurrency@@@Z 0000000180029950 f i _nodert_generated.obj
 0001:00028990       ?_Move@?$_Func_impl@V<lambda_77c2d008ad3a4cbef47859d7b5cd645e>@@V?$allocator@H@std@@XV?$task@X@Concurrency@@@std@@EEAAPEAV?$_Func_base@XV?$task@X@Concurrency@@@2@PEAX@Z 0000000180029990 f i _nodert_generated.obj
 0001:00028990       ?_Copy@?$_Func_impl@V<lambda_77c2d008ad3a4cbef47859d7b5cd645e>@@V?$allocator@H@std@@XV?$task@X@Concurrency@@@std@@EEBAPEAV?$_Func_base@XV?$task@X@Concurrency@@@2@PEAX@Z 0000000180029990 f i _nodert_generated.obj
 0001:000289b0       ?_Delete_this@?$_Func_impl@V<lambda_81d13eba1fa31f29a54d9486b3b4a8ac>@@V?$allocator@H@std@@XV?$task@W4SetImageFeedResult@UserProfile@System@Windows@@@Concurrency@@@std@@EEAAX_N@Z 00000001800299b0 f i _nodert_generated.obj
 0001:000289d0       ?_Target_type@?$_Func_impl@V<lambda_81d13eba1fa31f29a54d9486b3b4a8ac>@@V?$allocator@H@std@@XV?$task@W4SetImageFeedResult@UserProfile@System@Windows@@@Concurrency@@@std@@EEBAAEBVtype_info@@XZ 00000001800299d0 f i _nodert_generated.obj
 0001:000289e0       ?_Do_call@?$_Func_impl@V<lambda_81d13eba1fa31f29a54d9486b3b4a8ac>@@V?$allocator@H@std@@XV?$task@W4SetImageFeedResult@UserProfile@System@Windows@@@Concurrency@@@std@@EEAAX$$QEAV?$task@W4SetImageFeedResult@UserProfile@System@Windows@@@Concurrency@@@Z 00000001800299e0 f i _nodert_generated.obj
 0001:00028a20       ?_Copy@?$_Func_impl@V<lambda_81d13eba1fa31f29a54d9486b3b4a8ac>@@V?$allocator@H@std@@XV?$task@W4SetImageFeedResult@UserProfile@System@Windows@@@Concurrency@@@std@@EEBAPEAV?$_Func_base@XV?$task@W4SetImageFeedResult@UserProfile@System@Windows@@@Concurrency@@@2@PEAX@Z 0000000180029a20 f i _nodert_generated.obj
 0001:00028a20       ?_Move@?$_Func_impl@V<lambda_81d13eba1fa31f29a54d9486b3b4a8ac>@@V?$allocator@H@std@@XV?$task@W4SetImageFeedResult@UserProfile@System@Windows@@@Concurrency@@@std@@EEAAPEAV?$_Func_base@XV?$task@W4SetImageFeedResult@UserProfile@System@Windows@@@Concurrency@@@2@PEAX@Z 0000000180029a20 f i _nodert_generated.obj
 0001:00028a40       ?_Delete_this@?$_Func_impl@V<lambda_e135d44f95a3367d5ad1b22011e27c85>@@V?$allocator@H@std@@XV?$task@PE$AAVString@Platform@@@Concurrency@@@std@@EEAAX_N@Z 0000000180029a40 f i _nodert_generated.obj
 0001:00028a40       ?_Delete_this@?$_Func_impl@V<lambda_2ade840f8176aa66a6fbfe3c3eead4f6>@@V?$allocator@H@std@@XV?$task@PE$AAVString@Platform@@@Concurrency@@@std@@EEAAX_N@Z 0000000180029a40 f i _nodert_generated.obj
 0001:00028a40       ?_Delete_this@?$_Func_impl@V<lambda_7fe100d452bfc50bc5609b497b51776a>@@V?$allocator@H@std@@XV?$task@PE$AAVString@Platform@@@Concurrency@@@std@@EEAAX_N@Z 0000000180029a40 f i _nodert_generated.obj
 0001:00028a40       ?_Delete_this@?$_Func_impl@V<lambda_92e205d7db2179ec6d65e88270e1e91c>@@V?$allocator@H@std@@XV?$task@PE$AAVString@Platform@@@Concurrency@@@std@@EEAAX_N@Z 0000000180029a40 f i _nodert_generated.obj
 0001:00028a40       ?_Delete_this@?$_Func_impl@V<lambda_f654db1f4b3763a2796792ed092520e3>@@V?$allocator@H@std@@XV?$task@PE$AAVString@Platform@@@Concurrency@@@std@@EEAAX_N@Z 0000000180029a40 f i _nodert_generated.obj
 0001:00028a60       ?_Target_type@?$_Func_impl@V<lambda_e135d44f95a3367d5ad1b22011e27c85>@@V?$allocator@H@std@@XV?$task@PE$AAVString@Platform@@@Concurrency@@@std@@EEBAAEBVtype_info@@XZ 0000000180029a60 f i _nodert_generated.obj
 0001:00028a70       ?_Do_call@?$_Func_impl@V<lambda_e135d44f95a3367d5ad1b22011e27c85>@@V?$allocator@H@std@@XV?$task@PE$AAVString@Platform@@@Concurrency@@@std@@EEAAX$$QEAV?$task@PE$AAVString@Platform@@@Concurrency@@@Z 0000000180029a70 f i _nodert_generated.obj
 0001:00028ab0       ?_Copy@?$_Func_impl@V<lambda_e135d44f95a3367d5ad1b22011e27c85>@@V?$allocator@H@std@@XV?$task@PE$AAVString@Platform@@@Concurrency@@@std@@EEBAPEAV?$_Func_base@XV?$task@PE$AAVString@Platform@@@Concurrency@@@2@PEAX@Z 0000000180029ab0 f i _nodert_generated.obj
 0001:00028ab0       ?_Move@?$_Func_impl@V<lambda_e135d44f95a3367d5ad1b22011e27c85>@@V?$allocator@H@std@@XV?$task@PE$AAVString@Platform@@@Concurrency@@@std@@EEAAPEAV?$_Func_base@XV?$task@PE$AAVString@Platform@@@Concurrency@@@2@PEAX@Z 0000000180029ab0 f i _nodert_generated.obj
 0001:00028ad0       ?_Delete_this@?$_Func_impl@V<lambda_d5c67d5179cb9592a8ec5c4f5f4cbd46>@@V?$allocator@H@std@@XV?$task@PE$AAVUri@Foundation@Windows@@@Concurrency@@@std@@EEAAX_N@Z 0000000180029ad0 f i _nodert_generated.obj
 0001:00028af0       ?_Target_type@?$_Func_impl@V<lambda_d5c67d5179cb9592a8ec5c4f5f4cbd46>@@V?$allocator@H@std@@XV?$task@PE$AAVUri@Foundation@Windows@@@Concurrency@@@std@@EEBAAEBVtype_info@@XZ 0000000180029af0 f i _nodert_generated.obj
 0001:00028b00       ?_Do_call@?$_Func_impl@V<lambda_d5c67d5179cb9592a8ec5c4f5f4cbd46>@@V?$allocator@H@std@@XV?$task@PE$AAVUri@Foundation@Windows@@@Concurrency@@@std@@EEAAX$$QEAV?$task@PE$AAVUri@Foundation@Windows@@@Concurrency@@@Z 0000000180029b00 f i _nodert_generated.obj
 0001:00028b40       ?_Move@?$_Func_impl@V<lambda_d5c67d5179cb9592a8ec5c4f5f4cbd46>@@V?$allocator@H@std@@XV?$task@PE$AAVUri@Foundation@Windows@@@Concurrency@@@std@@EEAAPEAV?$_Func_base@XV?$task@PE$AAVUri@Foundation@Windows@@@Concurrency@@@2@PEAX@Z 0000000180029b40 f i _nodert_generated.obj
 0001:00028b40       ?_Copy@?$_Func_impl@V<lambda_d5c67d5179cb9592a8ec5c4f5f4cbd46>@@V?$allocator@H@std@@XV?$task@PE$AAVUri@Foundation@Windows@@@Concurrency@@@std@@EEBAPEAV?$_Func_base@XV?$task@PE$AAVUri@Foundation@Windows@@@Concurrency@@@2@PEAX@Z 0000000180029b40 f i _nodert_generated.obj
 0001:00028b60       ?_Target_type@?$_Func_impl@V<lambda_7fe100d452bfc50bc5609b497b51776a>@@V?$allocator@H@std@@XV?$task@PE$AAVString@Platform@@@Concurrency@@@std@@EEBAAEBVtype_info@@XZ 0000000180029b60 f i _nodert_generated.obj
 0001:00028b70       ?_Do_call@?$_Func_impl@V<lambda_7fe100d452bfc50bc5609b497b51776a>@@V?$allocator@H@std@@XV?$task@PE$AAVString@Platform@@@Concurrency@@@std@@EEAAX$$QEAV?$task@PE$AAVString@Platform@@@Concurrency@@@Z 0000000180029b70 f i _nodert_generated.obj
 0001:00028bb0       ?_Copy@?$_Func_impl@V<lambda_7fe100d452bfc50bc5609b497b51776a>@@V?$allocator@H@std@@XV?$task@PE$AAVString@Platform@@@Concurrency@@@std@@EEBAPEAV?$_Func_base@XV?$task@PE$AAVString@Platform@@@Concurrency@@@2@PEAX@Z 0000000180029bb0 f i _nodert_generated.obj
 0001:00028bb0       ?_Move@?$_Func_impl@V<lambda_7fe100d452bfc50bc5609b497b51776a>@@V?$allocator@H@std@@XV?$task@PE$AAVString@Platform@@@Concurrency@@@std@@EEAAPEAV?$_Func_base@XV?$task@PE$AAVString@Platform@@@Concurrency@@@2@PEAX@Z 0000000180029bb0 f i _nodert_generated.obj
 0001:00028bd0       ?_Target_type@?$_Func_impl@V<lambda_2ade840f8176aa66a6fbfe3c3eead4f6>@@V?$allocator@H@std@@XV?$task@PE$AAVString@Platform@@@Concurrency@@@std@@EEBAAEBVtype_info@@XZ 0000000180029bd0 f i _nodert_generated.obj
 0001:00028be0       ?_Do_call@?$_Func_impl@V<lambda_2ade840f8176aa66a6fbfe3c3eead4f6>@@V?$allocator@H@std@@XV?$task@PE$AAVString@Platform@@@Concurrency@@@std@@EEAAX$$QEAV?$task@PE$AAVString@Platform@@@Concurrency@@@Z 0000000180029be0 f i _nodert_generated.obj
 0001:00028c20       ?_Move@?$_Func_impl@V<lambda_2ade840f8176aa66a6fbfe3c3eead4f6>@@V?$allocator@H@std@@XV?$task@PE$AAVString@Platform@@@Concurrency@@@std@@EEAAPEAV?$_Func_base@XV?$task@PE$AAVString@Platform@@@Concurrency@@@2@PEAX@Z 0000000180029c20 f i _nodert_generated.obj
 0001:00028c20       ?_Copy@?$_Func_impl@V<lambda_2ade840f8176aa66a6fbfe3c3eead4f6>@@V?$allocator@H@std@@XV?$task@PE$AAVString@Platform@@@Concurrency@@@std@@EEBAPEAV?$_Func_base@XV?$task@PE$AAVString@Platform@@@Concurrency@@@2@PEAX@Z 0000000180029c20 f i _nodert_generated.obj
 0001:00028c40       ?_Target_type@?$_Func_impl@V<lambda_f654db1f4b3763a2796792ed092520e3>@@V?$allocator@H@std@@XV?$task@PE$AAVString@Platform@@@Concurrency@@@std@@EEBAAEBVtype_info@@XZ 0000000180029c40 f i _nodert_generated.obj
 0001:00028c50       ?_Do_call@?$_Func_impl@V<lambda_f654db1f4b3763a2796792ed092520e3>@@V?$allocator@H@std@@XV?$task@PE$AAVString@Platform@@@Concurrency@@@std@@EEAAX$$QEAV?$task@PE$AAVString@Platform@@@Concurrency@@@Z 0000000180029c50 f i _nodert_generated.obj
 0001:00028c90       ?_Move@?$_Func_impl@V<lambda_f654db1f4b3763a2796792ed092520e3>@@V?$allocator@H@std@@XV?$task@PE$AAVString@Platform@@@Concurrency@@@std@@EEAAPEAV?$_Func_base@XV?$task@PE$AAVString@Platform@@@Concurrency@@@2@PEAX@Z 0000000180029c90 f i _nodert_generated.obj
 0001:00028c90       ?_Copy@?$_Func_impl@V<lambda_f654db1f4b3763a2796792ed092520e3>@@V?$allocator@H@std@@XV?$task@PE$AAVString@Platform@@@Concurrency@@@std@@EEBAPEAV?$_Func_base@XV?$task@PE$AAVString@Platform@@@Concurrency@@@2@PEAX@Z 0000000180029c90 f i _nodert_generated.obj
 0001:00028cb0       ?_Target_type@?$_Func_impl@V<lambda_92e205d7db2179ec6d65e88270e1e91c>@@V?$allocator@H@std@@XV?$task@PE$AAVString@Platform@@@Concurrency@@@std@@EEBAAEBVtype_info@@XZ 0000000180029cb0 f i _nodert_generated.obj
 0001:00028cc0       ?_Do_call@?$_Func_impl@V<lambda_92e205d7db2179ec6d65e88270e1e91c>@@V?$allocator@H@std@@XV?$task@PE$AAVString@Platform@@@Concurrency@@@std@@EEAAX$$QEAV?$task@PE$AAVString@Platform@@@Concurrency@@@Z 0000000180029cc0 f i _nodert_generated.obj
 0001:00028d00       ?_Copy@?$_Func_impl@V<lambda_92e205d7db2179ec6d65e88270e1e91c>@@V?$allocator@H@std@@XV?$task@PE$AAVString@Platform@@@Concurrency@@@std@@EEBAPEAV?$_Func_base@XV?$task@PE$AAVString@Platform@@@Concurrency@@@2@PEAX@Z 0000000180029d00 f i _nodert_generated.obj
 0001:00028d00       ?_Move@?$_Func_impl@V<lambda_92e205d7db2179ec6d65e88270e1e91c>@@V?$allocator@H@std@@XV?$task@PE$AAVString@Platform@@@Concurrency@@@std@@EEAAPEAV?$_Func_base@XV?$task@PE$AAVString@Platform@@@Concurrency@@@2@PEAX@Z 0000000180029d00 f i _nodert_generated.obj
 0001:00028d20       ?_Delete_this@?$_Func_impl@V<lambda_24e96e65de0221e212c62b01719a71c5>@@V?$allocator@H@std@@XV?$task@W4SetAccountPictureResult@UserProfile@System@Windows@@@Concurrency@@@std@@EEAAX_N@Z 0000000180029d20 f i _nodert_generated.obj
 0001:00028d20       ?_Delete_this@?$_Func_impl@V<lambda_33f6d1522ba7a677218c6b9422376f67>@@V?$allocator@H@std@@XV?$task@W4SetAccountPictureResult@UserProfile@System@Windows@@@Concurrency@@@std@@EEAAX_N@Z 0000000180029d20 f i _nodert_generated.obj
 0001:00028d20       ?_Delete_this@?$_Func_impl@V<lambda_09e6080208e0b35848a7b34c2a0656fe>@@V?$allocator@H@std@@XV?$task@W4SetAccountPictureResult@UserProfile@System@Windows@@@Concurrency@@@std@@EEAAX_N@Z 0000000180029d20 f i _nodert_generated.obj
 0001:00028d20       ?_Delete_this@?$_Func_impl@V<lambda_f22ae8650c56c333ae2e36071b93234d>@@V?$allocator@H@std@@XV?$task@W4SetAccountPictureResult@UserProfile@System@Windows@@@Concurrency@@@std@@EEAAX_N@Z 0000000180029d20 f i _nodert_generated.obj
 0001:00028d40       ?_Target_type@?$_Func_impl@V<lambda_f22ae8650c56c333ae2e36071b93234d>@@V?$allocator@H@std@@XV?$task@W4SetAccountPictureResult@UserProfile@System@Windows@@@Concurrency@@@std@@EEBAAEBVtype_info@@XZ 0000000180029d40 f i _nodert_generated.obj
 0001:00028d50       ?_Do_call@?$_Func_impl@V<lambda_f22ae8650c56c333ae2e36071b93234d>@@V?$allocator@H@std@@XV?$task@W4SetAccountPictureResult@UserProfile@System@Windows@@@Concurrency@@@std@@EEAAX$$QEAV?$task@W4SetAccountPictureResult@UserProfile@System@Windows@@@Concurrency@@@Z 0000000180029d50 f i _nodert_generated.obj
 0001:00028d90       ?_Move@?$_Func_impl@V<lambda_f22ae8650c56c333ae2e36071b93234d>@@V?$allocator@H@std@@XV?$task@W4SetAccountPictureResult@UserProfile@System@Windows@@@Concurrency@@@std@@EEAAPEAV?$_Func_base@XV?$task@W4SetAccountPictureResult@UserProfile@System@Windows@@@Concurrency@@@2@PEAX@Z 0000000180029d90 f i _nodert_generated.obj
 0001:00028d90       ?_Copy@?$_Func_impl@V<lambda_f22ae8650c56c333ae2e36071b93234d>@@V?$allocator@H@std@@XV?$task@W4SetAccountPictureResult@UserProfile@System@Windows@@@Concurrency@@@std@@EEBAPEAV?$_Func_base@XV?$task@W4SetAccountPictureResult@UserProfile@System@Windows@@@Concurrency@@@2@PEAX@Z 0000000180029d90 f i _nodert_generated.obj
 0001:00028db0       ?_Target_type@?$_Func_impl@V<lambda_24e96e65de0221e212c62b01719a71c5>@@V?$allocator@H@std@@XV?$task@W4SetAccountPictureResult@UserProfile@System@Windows@@@Concurrency@@@std@@EEBAAEBVtype_info@@XZ 0000000180029db0 f i _nodert_generated.obj
 0001:00028dc0       ?_Do_call@?$_Func_impl@V<lambda_24e96e65de0221e212c62b01719a71c5>@@V?$allocator@H@std@@XV?$task@W4SetAccountPictureResult@UserProfile@System@Windows@@@Concurrency@@@std@@EEAAX$$QEAV?$task@W4SetAccountPictureResult@UserProfile@System@Windows@@@Concurrency@@@Z 0000000180029dc0 f i _nodert_generated.obj
 0001:00028e00       ?_Move@?$_Func_impl@V<lambda_24e96e65de0221e212c62b01719a71c5>@@V?$allocator@H@std@@XV?$task@W4SetAccountPictureResult@UserProfile@System@Windows@@@Concurrency@@@std@@EEAAPEAV?$_Func_base@XV?$task@W4SetAccountPictureResult@UserProfile@System@Windows@@@Concurrency@@@2@PEAX@Z 0000000180029e00 f i _nodert_generated.obj
 0001:00028e00       ?_Copy@?$_Func_impl@V<lambda_24e96e65de0221e212c62b01719a71c5>@@V?$allocator@H@std@@XV?$task@W4SetAccountPictureResult@UserProfile@System@Windows@@@Concurrency@@@std@@EEBAPEAV?$_Func_base@XV?$task@W4SetAccountPictureResult@UserProfile@System@Windows@@@Concurrency@@@2@PEAX@Z 0000000180029e00 f i _nodert_generated.obj
 0001:00028e20       ?_Target_type@?$_Func_impl@V<lambda_33f6d1522ba7a677218c6b9422376f67>@@V?$allocator@H@std@@XV?$task@W4SetAccountPictureResult@UserProfile@System@Windows@@@Concurrency@@@std@@EEBAAEBVtype_info@@XZ 0000000180029e20 f i _nodert_generated.obj
 0001:00028e30       ?_Do_call@?$_Func_impl@V<lambda_33f6d1522ba7a677218c6b9422376f67>@@V?$allocator@H@std@@XV?$task@W4SetAccountPictureResult@UserProfile@System@Windows@@@Concurrency@@@std@@EEAAX$$QEAV?$task@W4SetAccountPictureResult@UserProfile@System@Windows@@@Concurrency@@@Z 0000000180029e30 f i _nodert_generated.obj
 0001:00028e70       ?_Copy@?$_Func_impl@V<lambda_33f6d1522ba7a677218c6b9422376f67>@@V?$allocator@H@std@@XV?$task@W4SetAccountPictureResult@UserProfile@System@Windows@@@Concurrency@@@std@@EEBAPEAV?$_Func_base@XV?$task@W4SetAccountPictureResult@UserProfile@System@Windows@@@Concurrency@@@2@PEAX@Z 0000000180029e70 f i _nodert_generated.obj
 0001:00028e70       ?_Move@?$_Func_impl@V<lambda_33f6d1522ba7a677218c6b9422376f67>@@V?$allocator@H@std@@XV?$task@W4SetAccountPictureResult@UserProfile@System@Windows@@@Concurrency@@@std@@EEAAPEAV?$_Func_base@XV?$task@W4SetAccountPictureResult@UserProfile@System@Windows@@@Concurrency@@@2@PEAX@Z 0000000180029e70 f i _nodert_generated.obj
 0001:00028e90       ?_Target_type@?$_Func_impl@V<lambda_09e6080208e0b35848a7b34c2a0656fe>@@V?$allocator@H@std@@XV?$task@W4SetAccountPictureResult@UserProfile@System@Windows@@@Concurrency@@@std@@EEBAAEBVtype_info@@XZ 0000000180029e90 f i _nodert_generated.obj
 0001:00028ea0       ?_Do_call@?$_Func_impl@V<lambda_09e6080208e0b35848a7b34c2a0656fe>@@V?$allocator@H@std@@XV?$task@W4SetAccountPictureResult@UserProfile@System@Windows@@@Concurrency@@@std@@EEAAX$$QEAV?$task@W4SetAccountPictureResult@UserProfile@System@Windows@@@Concurrency@@@Z 0000000180029ea0 f i _nodert_generated.obj
 0001:00028ee0       ?_Move@?$_Func_impl@V<lambda_09e6080208e0b35848a7b34c2a0656fe>@@V?$allocator@H@std@@XV?$task@W4SetAccountPictureResult@UserProfile@System@Windows@@@Concurrency@@@std@@EEAAPEAV?$_Func_base@XV?$task@W4SetAccountPictureResult@UserProfile@System@Windows@@@Concurrency@@@2@PEAX@Z 0000000180029ee0 f i _nodert_generated.obj
 0001:00028ee0       ?_Copy@?$_Func_impl@V<lambda_09e6080208e0b35848a7b34c2a0656fe>@@V?$allocator@H@std@@XV?$task@W4SetAccountPictureResult@UserProfile@System@Windows@@@Concurrency@@@std@@EEBAPEAV?$_Func_base@XV?$task@W4SetAccountPictureResult@UserProfile@System@Windows@@@Concurrency@@@2@PEAX@Z 0000000180029ee0 f i _nodert_generated.obj
 0001:00028f00       ?_Delete_this@?$_Func_impl@V<lambda_205294ac9d93e11a49f76c7d4aaeec33>@@V?$allocator@H@std@@XV?$task@_N@Concurrency@@@std@@EEAAX_N@Z 0000000180029f00 f i _nodert_generated.obj
 0001:00028f00       ?_Delete_this@?$_Func_impl@V<lambda_7f4cebe17154362a5bec736b55156997>@@V?$allocator@H@std@@XV?$task@_N@Concurrency@@@std@@EEAAX_N@Z 0000000180029f00 f i _nodert_generated.obj
 0001:00028f20       ?_Target_type@?$_Func_impl@V<lambda_205294ac9d93e11a49f76c7d4aaeec33>@@V?$allocator@H@std@@XV?$task@_N@Concurrency@@@std@@EEBAAEBVtype_info@@XZ 0000000180029f20 f i _nodert_generated.obj
 0001:00028f30       ?_Do_call@?$_Func_impl@V<lambda_205294ac9d93e11a49f76c7d4aaeec33>@@V?$allocator@H@std@@XV?$task@_N@Concurrency@@@std@@EEAAX$$QEAV?$task@_N@Concurrency@@@Z 0000000180029f30 f i _nodert_generated.obj
 0001:00028f70       ?_Move@?$_Func_impl@V<lambda_205294ac9d93e11a49f76c7d4aaeec33>@@V?$allocator@H@std@@XV?$task@_N@Concurrency@@@std@@EEAAPEAV?$_Func_base@XV?$task@_N@Concurrency@@@2@PEAX@Z 0000000180029f70 f i _nodert_generated.obj
 0001:00028f70       ?_Copy@?$_Func_impl@V<lambda_205294ac9d93e11a49f76c7d4aaeec33>@@V?$allocator@H@std@@XV?$task@_N@Concurrency@@@std@@EEBAPEAV?$_Func_base@XV?$task@_N@Concurrency@@@2@PEAX@Z 0000000180029f70 f i _nodert_generated.obj
 0001:00028f90       ?_Target_type@?$_Func_impl@V<lambda_7f4cebe17154362a5bec736b55156997>@@V?$allocator@H@std@@XV?$task@_N@Concurrency@@@std@@EEBAAEBVtype_info@@XZ 0000000180029f90 f i _nodert_generated.obj
 0001:00028fa0       ?_Do_call@?$_Func_impl@V<lambda_7f4cebe17154362a5bec736b55156997>@@V?$allocator@H@std@@XV?$task@_N@Concurrency@@@std@@EEAAX$$QEAV?$task@_N@Concurrency@@@Z 0000000180029fa0 f i _nodert_generated.obj
 0001:00028fe0       ?_Copy@?$_Func_impl@V<lambda_7f4cebe17154362a5bec736b55156997>@@V?$allocator@H@std@@XV?$task@_N@Concurrency@@@std@@EEBAPEAV?$_Func_base@XV?$task@_N@Concurrency@@@2@PEAX@Z 0000000180029fe0 f i _nodert_generated.obj
 0001:00028fe0       ?_Move@?$_Func_impl@V<lambda_7f4cebe17154362a5bec736b55156997>@@V?$allocator@H@std@@XV?$task@_N@Concurrency@@@std@@EEAAPEAV?$_Func_base@XV?$task@_N@Concurrency@@@2@PEAX@Z 0000000180029fe0 f i _nodert_generated.obj
 0001:00029000       ?_SetUnwrappedAsyncOp@?$_Task_impl@W4SetImageFeedResult@UserProfile@System@Windows@@@details@Concurrency@@QEAAXPE$AAU?$IAsyncOperation@W4SetImageFeedResult@UserProfile@System@Windows@@@Foundation@Windows@@@Z 000000018002a000 f i _nodert_generated.obj
 0001:00029130       ?_FinalizeAndRunContinuations@?$_Task_impl@W4SetAccountPictureResult@UserProfile@System@Windows@@@details@Concurrency@@QEAAXW4SetAccountPictureResult@UserProfile@System@Windows@@@Z 000000018002a130 f i _nodert_generated.obj
 0001:00029130       ?_FinalizeAndRunContinuations@?$_Task_impl@W4SetImageFeedResult@UserProfile@System@Windows@@@details@Concurrency@@QEAAXW4SetImageFeedResult@UserProfile@System@Windows@@@Z 000000018002a130 f i _nodert_generated.obj
 0001:000291c0       ??0?$_Task_impl@W4SetImageFeedResult@UserProfile@System@Windows@@@details@Concurrency@@QEAA@PEAV_CancellationTokenState@12@Uscheduler_ptr@2@@Z 000000018002a1c0 f i _nodert_generated.obj
 0001:00029270       ?_SetUnwrappedAsyncOp@?$_Task_impl@PE$AAVUri@Foundation@Windows@@@details@Concurrency@@QEAAXPE$AAU?$IAsyncOperation@PE$AAVUri@Foundation@Windows@@@Foundation@Windows@@@Z 000000018002a270 f i _nodert_generated.obj
 0001:000293a0       ?_FinalizeAndRunContinuations@?$_Task_impl@PE$AAVUri@Foundation@Windows@@@details@Concurrency@@QEAAXPE$AAVUri@Foundation@Windows@@@Z 000000018002a3a0 f i _nodert_generated.obj
 0001:00029490       ??0?$_Task_impl@PE$AAVUri@Foundation@Windows@@@details@Concurrency@@QEAA@PEAV_CancellationTokenState@12@Uscheduler_ptr@2@@Z 000000018002a490 f i _nodert_generated.obj
 0001:00029550       ?_SetUnwrappedAsyncOp@?$_Task_impl@PE$AAVString@Platform@@@details@Concurrency@@QEAAXPE$AAU?$IAsyncOperation@PE$AAVString@Platform@@@Foundation@Windows@@@Z 000000018002a550 f i _nodert_generated.obj
 0001:00029680       ?_FinalizeAndRunContinuations@?$_Task_impl@PE$AAVString@Platform@@@details@Concurrency@@QEAAXPE$AAVString@Platform@@@Z 000000018002a680 f i _nodert_generated.obj
 0001:00029760       ??0?$_Task_impl@PE$AAVString@Platform@@@details@Concurrency@@QEAA@PEAV_CancellationTokenState@12@Uscheduler_ptr@2@@Z 000000018002a760 f i _nodert_generated.obj
 0001:00029820       ?_SetUnwrappedAsyncOp@?$_Task_impl@W4SetAccountPictureResult@UserProfile@System@Windows@@@details@Concurrency@@QEAAXPE$AAU?$IAsyncOperation@W4SetAccountPictureResult@UserProfile@System@Windows@@@Foundation@Windows@@@Z 000000018002a820 f i _nodert_generated.obj
 0001:00029950       ??0?$_Task_impl@W4SetAccountPictureResult@UserProfile@System@Windows@@@details@Concurrency@@QEAA@PEAV_CancellationTokenState@12@Uscheduler_ptr@2@@Z 000000018002a950 f i _nodert_generated.obj
 0001:00029a00       ?_SetUnwrappedAsyncOp@?$_Task_impl@_N@details@Concurrency@@QEAAXPE$AAU?$IAsyncOperation@_N@Foundation@Windows@@@Z 000000018002aa00 f i _nodert_generated.obj
 0001:00029b30       ??0?$_Task_impl@_N@details@Concurrency@@QEAA@PEAV_CancellationTokenState@12@Uscheduler_ptr@2@@Z 000000018002ab30 f i _nodert_generated.obj
 0001:00029be0       ??4?$Agile@PE$AAVString@Platform@@$0A@@Platform@@QEAAAEAV01@PE$AAVString@1@@Z 000000018002abe0 f i _nodert_generated.obj
 0001:00029c60       ?GetResults@?$IAsyncOperation@PE$AAVString@Platform@@@Foundation@Windows@@UE$AAAPE$AAVString@Platform@@XZ 000000018002ac60 f i _nodert_generated.obj
 0001:00029cd0       ?GetResults@?$IAsyncOperation@PE$AAVUri@Foundation@Windows@@@Foundation@Windows@@UE$AAAPE$AAVUri@23@XZ 000000018002acd0 f i _nodert_generated.obj
 0001:00029d30       ??$?0V<lambda_9c267cdafd8e064f323ec4e1c7ae30d4>@@@?$AsyncOperationCompletedHandler@_N@Foundation@Windows@@QE$AAA@V<lambda_9c267cdafd8e064f323ec4e1c7ae30d4>@@W4CallbackContext@Platform@@_N@Z 000000018002ad30 f i _nodert_generated.obj
 0001:00029e30       ??$_Reset@V<lambda_88a6fc8dc694f47ad77b7fd720085f6f>@@@?$_Func_class@EV?$task@W4SetImageFeedResult@UserProfile@System@Windows@@@Concurrency@@@std@@IEAAX$$QEAV<lambda_88a6fc8dc694f47ad77b7fd720085f6f>@@@Z 000000018002ae30 f i _nodert_generated.obj
 0001:00029ee0       ??$_Reset@V<lambda_5a6aa9a858230c5449dfcdc2049eeb97>@@@?$_Func_class@EV?$task@PE$AAVUri@Foundation@Windows@@@Concurrency@@@std@@IEAAX$$QEAV<lambda_5a6aa9a858230c5449dfcdc2049eeb97>@@@Z 000000018002aee0 f i _nodert_generated.obj
 0001:00029f90       ??$_Reset@V<lambda_252a23a4c4e06e57aa01918ce60919db>@@@?$_Func_class@EV?$task@PE$AAVString@Platform@@@Concurrency@@@std@@IEAAX$$QEAV<lambda_252a23a4c4e06e57aa01918ce60919db>@@@Z 000000018002af90 f i _nodert_generated.obj
 0001:0002a010       ??$_Reset@V<lambda_e9925fcb3d885ef5d135703b17266fe6>@@@?$_Func_class@EV?$task@W4SetAccountPictureResult@UserProfile@System@Windows@@@Concurrency@@@std@@IEAAX$$QEAV<lambda_e9925fcb3d885ef5d135703b17266fe6>@@@Z 000000018002b010 f i _nodert_generated.obj
 0001:0002a090       ??$_Reset@V<lambda_5a1c437f17fa466aabaf7b0153a0ecc3>@@@?$_Func_class@EV?$task@_N@Concurrency@@@std@@IEAAX$$QEAV<lambda_5a1c437f17fa466aabaf7b0153a0ecc3>@@@Z 000000018002b090 f i _nodert_generated.obj
 0001:0002a110       ??$_Reset@V<lambda_d4a8bb1d3b7ec2bea7766c2745f0ce11>@@@?$_Func_class@EV?$task@X@Concurrency@@@std@@IEAAX$$QEAV<lambda_d4a8bb1d3b7ec2bea7766c2745f0ce11>@@@Z 000000018002b110 f i _nodert_generated.obj
 0001:0002a190       ??$?0V<lambda_e0cba0e0128fb4af122087e68d5a5f3f>@@@?$AsyncOperationCompletedHandler@W4SetImageFeedResult@UserProfile@System@Windows@@@Foundation@Windows@@QE$AAA@V<lambda_e0cba0e0128fb4af122087e68d5a5f3f>@@W4CallbackContext@Platform@@_N@Z 000000018002b190 f i _nodert_generated.obj
 0001:0002a290       ??$?0V<lambda_70c5370cca94cc9c04a5fde8327df7e8>@@@?$AsyncOperationCompletedHandler@PE$AAVUri@Foundation@Windows@@@Foundation@Windows@@QE$AAA@V<lambda_70c5370cca94cc9c04a5fde8327df7e8>@@W4CallbackContext@Platform@@_N@Z 000000018002b290 f i _nodert_generated.obj
 0001:0002a390       ??$?0V<lambda_5788598dc246eca24bc8735a696d9b3a>@@@?$AsyncOperationCompletedHandler@PE$AAVString@Platform@@@Foundation@Windows@@QE$AAA@V<lambda_5788598dc246eca24bc8735a696d9b3a>@@W4CallbackContext@Platform@@_N@Z 000000018002b390 f i _nodert_generated.obj
 0001:0002a490       ??$?0V<lambda_fb67dae22ed10e0de1c659f623c67076>@@@?$AsyncOperationCompletedHandler@W4SetAccountPictureResult@UserProfile@System@Windows@@@Foundation@Windows@@QE$AAA@V<lambda_fb67dae22ed10e0de1c659f623c67076>@@W4CallbackContext@Platform@@_N@Z 000000018002b490 f i _nodert_generated.obj
 0001:0002a590       ??$?4V<lambda_9933a21befe6e47ae479e016e2f1250c>@@XX@?$function@$$A6AXXZ@std@@QEAAAEAV01@$$QEAV<lambda_9933a21befe6e47ae479e016e2f1250c>@@@Z 000000018002b590 f i _nodert_generated.obj
 0001:0002a660       ??$?4V<lambda_fc0d6554ea59c755c55dae328d38f34b>@@XX@?$function@$$A6AXXZ@std@@QEAAAEAV01@$$QEAV<lambda_fc0d6554ea59c755c55dae328d38f34b>@@@Z 000000018002b660 f i _nodert_generated.obj
 0001:0002a730       ??$?4V<lambda_897d889871fbdfd64b4d57af573b0f8b>@@XX@?$function@$$A6AXXZ@std@@QEAAAEAV01@$$QEAV<lambda_897d889871fbdfd64b4d57af573b0f8b>@@@Z 000000018002b730 f i _nodert_generated.obj
 0001:0002a800       ??$?4V<lambda_8c935bb9b796b248181a9d1da9394bdb>@@XX@?$function@$$A6AXXZ@std@@QEAAAEAV01@$$QEAV<lambda_8c935bb9b796b248181a9d1da9394bdb>@@@Z 000000018002b800 f i _nodert_generated.obj
 0001:0002a8d0       ??$?4V<lambda_0c35f08fa008bd0bd75f4471027a7740>@@XX@?$function@$$A6AXXZ@std@@QEAAAEAV01@$$QEAV<lambda_0c35f08fa008bd0bd75f4471027a7740>@@@Z 000000018002b8d0 f i _nodert_generated.obj
 0001:0002a9a0       ?Invoke@?$__abi_FunctorCapture@V<lambda_e0cba0e0128fb4af122087e68d5a5f3f>@@XPE$AAU?$IAsyncOperation@W4SetImageFeedResult@UserProfile@System@Windows@@@Foundation@Windows@@W4AsyncStatus@34@@Details@Platform@@UEAAXPE$AAU?$IAsyncOperation@W4SetImageFeedResult@UserProfile@System@Windows@@@Foundation@Windows@@W4AsyncStatus@56@@Z 000000018002b9a0 f i _nodert_generated.obj
 0001:0002a9a0       ?Invoke@?$__abi_FunctorCapture@V<lambda_fb67dae22ed10e0de1c659f623c67076>@@XPE$AAU?$IAsyncOperation@W4SetAccountPictureResult@UserProfile@System@Windows@@@Foundation@Windows@@W4AsyncStatus@34@@Details@Platform@@UEAAXPE$AAU?$IAsyncOperation@W4SetAccountPictureResult@UserProfile@System@Windows@@@Foundation@Windows@@W4AsyncStatus@56@@Z 000000018002b9a0 f i _nodert_generated.obj
 0001:0002a9b0       ??0?$__abi_FunctorCapture@V<lambda_fb67dae22ed10e0de1c659f623c67076>@@XPE$AAU?$IAsyncOperation@W4SetAccountPictureResult@UserProfile@System@Windows@@@Foundation@Windows@@W4AsyncStatus@34@@Details@Platform@@QEAA@V<lambda_fb67dae22ed10e0de1c659f623c67076>@@@Z 000000018002b9b0 f i _nodert_generated.obj
 0001:0002aa50       ?Invoke@?$__abi_FunctorCapture@V<lambda_5788598dc246eca24bc8735a696d9b3a>@@XPE$AAU?$IAsyncOperation@PE$AAVString@Platform@@@Foundation@Windows@@W4AsyncStatus@34@@Details@Platform@@UEAAXPE$AAU?$IAsyncOperation@PE$AAVString@Platform@@@Foundation@Windows@@W4AsyncStatus@56@@Z 000000018002ba50 f i _nodert_generated.obj
 0001:0002aa60       ??0?$__abi_FunctorCapture@V<lambda_5788598dc246eca24bc8735a696d9b3a>@@XPE$AAU?$IAsyncOperation@PE$AAVString@Platform@@@Foundation@Windows@@W4AsyncStatus@34@@Details@Platform@@QEAA@V<lambda_5788598dc246eca24bc8735a696d9b3a>@@@Z 000000018002ba60 f i _nodert_generated.obj
 0001:0002ab00       ?Invoke@?$__abi_FunctorCapture@V<lambda_70c5370cca94cc9c04a5fde8327df7e8>@@XPE$AAU?$IAsyncOperation@PE$AAVUri@Foundation@Windows@@@Foundation@Windows@@W4AsyncStatus@34@@Details@Platform@@UEAAXPE$AAU?$IAsyncOperation@PE$AAVUri@Foundation@Windows@@@Foundation@Windows@@W4AsyncStatus@56@@Z 000000018002bb00 f i _nodert_generated.obj
 0001:0002ab10       ??0?$__abi_FunctorCapture@V<lambda_70c5370cca94cc9c04a5fde8327df7e8>@@XPE$AAU?$IAsyncOperation@PE$AAVUri@Foundation@Windows@@@Foundation@Windows@@W4AsyncStatus@34@@Details@Platform@@QEAA@V<lambda_70c5370cca94cc9c04a5fde8327df7e8>@@@Z 000000018002bb10 f i _nodert_generated.obj
 0001:0002abb0       ??0?$__abi_FunctorCapture@V<lambda_e0cba0e0128fb4af122087e68d5a5f3f>@@XPE$AAU?$IAsyncOperation@W4SetImageFeedResult@UserProfile@System@Windows@@@Foundation@Windows@@W4AsyncStatus@34@@Details@Platform@@QEAA@V<lambda_e0cba0e0128fb4af122087e68d5a5f3f>@@@Z 000000018002bbb0 f i _nodert_generated.obj
 0001:0002ac50       ?_Delete_this@?$_Func_impl@V<lambda_fcddfbb588d6d178324b6e9cbb1f8253>@@V?$allocator@H@std@@X$$V@std@@EEAAX_N@Z 000000018002bc50 f i _nodert_generated.obj
 0001:0002acb0       ?_Target_type@?$_Func_impl@V<lambda_fcddfbb588d6d178324b6e9cbb1f8253>@@V?$allocator@H@std@@X$$V@std@@EEBAAEBVtype_info@@XZ 000000018002bcb0 f i _nodert_generated.obj
 0001:0002acc0       ?_Do_call@?$_Func_impl@V<lambda_8c935bb9b796b248181a9d1da9394bdb>@@V?$allocator@H@std@@X$$V@std@@EEAAXXZ 000000018002bcc0 f i _nodert_generated.obj
 0001:0002acc0       ?_Do_call@?$_Func_impl@V<lambda_fc0d6554ea59c755c55dae328d38f34b>@@V?$allocator@H@std@@X$$V@std@@EEAAXXZ 000000018002bcc0 f i _nodert_generated.obj
 0001:0002acc0       ?_Do_call@?$_Func_impl@V<lambda_0c35f08fa008bd0bd75f4471027a7740>@@V?$allocator@H@std@@X$$V@std@@EEAAXXZ 000000018002bcc0 f i _nodert_generated.obj
 0001:0002acc0       ?_Do_call@?$_Func_impl@V<lambda_fcddfbb588d6d178324b6e9cbb1f8253>@@V?$allocator@H@std@@X$$V@std@@EEAAXXZ 000000018002bcc0 f i _nodert_generated.obj
 0001:0002acc0       ?_Do_call@?$_Func_impl@V<lambda_897d889871fbdfd64b4d57af573b0f8b>@@V?$allocator@H@std@@X$$V@std@@EEAAXXZ 000000018002bcc0 f i _nodert_generated.obj
 0001:0002acc0       ?_Do_call@?$_Func_impl@V<lambda_9933a21befe6e47ae479e016e2f1250c>@@V?$allocator@H@std@@X$$V@std@@EEAAXXZ 000000018002bcc0 f i _nodert_generated.obj
 0001:0002ad30       ?_Copy@?$_Func_impl@V<lambda_fcddfbb588d6d178324b6e9cbb1f8253>@@V?$allocator@H@std@@X$$V@std@@EEBAPEAV?$_Func_base@X$$V@2@PEAX@Z 000000018002bd30 f i _nodert_generated.obj
 0001:0002ad30       ?_Move@?$_Func_impl@V<lambda_fcddfbb588d6d178324b6e9cbb1f8253>@@V?$allocator@H@std@@X$$V@std@@EEAAPEAV?$_Func_base@X$$V@2@PEAX@Z 000000018002bd30 f i _nodert_generated.obj
 0001:0002ad80       ??0?$__abi_FunctorCapture@V<lambda_9c267cdafd8e064f323ec4e1c7ae30d4>@@XPE$AAU?$IAsyncOperation@_N@Foundation@Windows@@W4AsyncStatus@34@@Details@Platform@@QEAA@V<lambda_9c267cdafd8e064f323ec4e1c7ae30d4>@@@Z 000000018002bd80 f i _nodert_generated.obj
 0001:0002ae20       ?_Delete_this@?$_Func_impl@V<lambda_d4a8bb1d3b7ec2bea7766c2745f0ce11>@@V?$allocator@H@std@@EV?$task@X@Concurrency@@@std@@EEAAX_N@Z 000000018002be20 f i _nodert_generated.obj
 0001:0002ae90       ?_Target_type@?$_Func_impl@V<lambda_d4a8bb1d3b7ec2bea7766c2745f0ce11>@@V?$allocator@H@std@@EV?$task@X@Concurrency@@@std@@EEBAAEBVtype_info@@XZ 000000018002be90 f i _nodert_generated.obj
 0001:0002aea0       ?_Do_call@?$_Func_impl@V<lambda_5a1c437f17fa466aabaf7b0153a0ecc3>@@V?$allocator@H@std@@EV?$task@_N@Concurrency@@@std@@EEAAE$$QEAV?$task@_N@Concurrency@@@Z 000000018002bea0 f i _nodert_generated.obj
 0001:0002aea0       ?_Do_call@?$_Func_impl@V<lambda_e9925fcb3d885ef5d135703b17266fe6>@@V?$allocator@H@std@@EV?$task@W4SetAccountPictureResult@UserProfile@System@Windows@@@Concurrency@@@std@@EEAAE$$QEAV?$task@W4SetAccountPictureResult@UserProfile@System@Windows@@@Concurrency@@@Z 000000018002bea0 f i _nodert_generated.obj
 0001:0002aea0       ?_Do_call@?$_Func_impl@V<lambda_d4a8bb1d3b7ec2bea7766c2745f0ce11>@@V?$allocator@H@std@@EV?$task@X@Concurrency@@@std@@EEAAE$$QEAV?$task@X@Concurrency@@@Z 000000018002bea0 f i _nodert_generated.obj
 0001:0002aea0       ?_Do_call@?$_Func_impl@V<lambda_252a23a4c4e06e57aa01918ce60919db>@@V?$allocator@H@std@@EV?$task@PE$AAVString@Platform@@@Concurrency@@@std@@EEAAE$$QEAV?$task@PE$AAVString@Platform@@@Concurrency@@@Z 000000018002bea0 f i _nodert_generated.obj
 0001:0002aee0       ?_Move@?$_Func_impl@V<lambda_d4a8bb1d3b7ec2bea7766c2745f0ce11>@@V?$allocator@H@std@@EV?$task@X@Concurrency@@@std@@EEAAPEAV?$_Func_base@EV?$task@X@Concurrency@@@2@PEAX@Z 000000018002bee0 f i _nodert_generated.obj
 0001:0002af50       ?_Copy@?$_Func_impl@V<lambda_d4a8bb1d3b7ec2bea7766c2745f0ce11>@@V?$allocator@H@std@@EV?$task@X@Concurrency@@@std@@EEBAPEAV?$_Func_base@EV?$task@X@Concurrency@@@2@PEAX@Z 000000018002bf50 f i _nodert_generated.obj
 0001:0002af60       ?_Delete_this@?$_Func_impl@V<lambda_5a1c437f17fa466aabaf7b0153a0ecc3>@@V?$allocator@H@std@@EV?$task@_N@Concurrency@@@std@@EEAAX_N@Z 000000018002bf60 f i _nodert_generated.obj
 0001:0002afd0       ?_Target_type@?$_Func_impl@V<lambda_5a1c437f17fa466aabaf7b0153a0ecc3>@@V?$allocator@H@std@@EV?$task@_N@Concurrency@@@std@@EEBAAEBVtype_info@@XZ 000000018002bfd0 f i _nodert_generated.obj
 0001:0002afe0       ?_Move@?$_Func_impl@V<lambda_5a1c437f17fa466aabaf7b0153a0ecc3>@@V?$allocator@H@std@@EV?$task@_N@Concurrency@@@std@@EEAAPEAV?$_Func_base@EV?$task@_N@Concurrency@@@2@PEAX@Z 000000018002bfe0 f i _nodert_generated.obj
 0001:0002b050       ?_Copy@?$_Func_impl@V<lambda_5a1c437f17fa466aabaf7b0153a0ecc3>@@V?$allocator@H@std@@EV?$task@_N@Concurrency@@@std@@EEBAPEAV?$_Func_base@EV?$task@_N@Concurrency@@@2@PEAX@Z 000000018002c050 f i _nodert_generated.obj
 0001:0002b060       ?_Delete_this@?$_Func_impl@V<lambda_e9925fcb3d885ef5d135703b17266fe6>@@V?$allocator@H@std@@EV?$task@W4SetAccountPictureResult@UserProfile@System@Windows@@@Concurrency@@@std@@EEAAX_N@Z 000000018002c060 f i _nodert_generated.obj
 0001:0002b0d0       ?_Target_type@?$_Func_impl@V<lambda_e9925fcb3d885ef5d135703b17266fe6>@@V?$allocator@H@std@@EV?$task@W4SetAccountPictureResult@UserProfile@System@Windows@@@Concurrency@@@std@@EEBAAEBVtype_info@@XZ 000000018002c0d0 f i _nodert_generated.obj
 0001:0002b0e0       ?_Move@?$_Func_impl@V<lambda_e9925fcb3d885ef5d135703b17266fe6>@@V?$allocator@H@std@@EV?$task@W4SetAccountPictureResult@UserProfile@System@Windows@@@Concurrency@@@std@@EEAAPEAV?$_Func_base@EV?$task@W4SetAccountPictureResult@UserProfile@System@Windows@@@Concurrency@@@2@PEAX@Z 000000018002c0e0 f i _nodert_generated.obj
 0001:0002b150       ?_Copy@?$_Func_impl@V<lambda_e9925fcb3d885ef5d135703b17266fe6>@@V?$allocator@H@std@@EV?$task@W4SetAccountPictureResult@UserProfile@System@Windows@@@Concurrency@@@std@@EEBAPEAV?$_Func_base@EV?$task@W4SetAccountPictureResult@UserProfile@System@Windows@@@Concurrency@@@2@PEAX@Z 000000018002c150 f i _nodert_generated.obj
 0001:0002b160       ?_Delete_this@?$_Func_impl@V<lambda_252a23a4c4e06e57aa01918ce60919db>@@V?$allocator@H@std@@EV?$task@PE$AAVString@Platform@@@Concurrency@@@std@@EEAAX_N@Z 000000018002c160 f i _nodert_generated.obj
 0001:0002b1d0       ?_Target_type@?$_Func_impl@V<lambda_252a23a4c4e06e57aa01918ce60919db>@@V?$allocator@H@std@@EV?$task@PE$AAVString@Platform@@@Concurrency@@@std@@EEBAAEBVtype_info@@XZ 000000018002c1d0 f i _nodert_generated.obj
 0001:0002b1e0       ?_Move@?$_Func_impl@V<lambda_252a23a4c4e06e57aa01918ce60919db>@@V?$allocator@H@std@@EV?$task@PE$AAVString@Platform@@@Concurrency@@@std@@EEAAPEAV?$_Func_base@EV?$task@PE$AAVString@Platform@@@Concurrency@@@2@PEAX@Z 000000018002c1e0 f i _nodert_generated.obj
 0001:0002b250       ?_Copy@?$_Func_impl@V<lambda_252a23a4c4e06e57aa01918ce60919db>@@V?$allocator@H@std@@EV?$task@PE$AAVString@Platform@@@Concurrency@@@std@@EEBAPEAV?$_Func_base@EV?$task@PE$AAVString@Platform@@@Concurrency@@@2@PEAX@Z 000000018002c250 f i _nodert_generated.obj
 0001:0002b260       ?_Delete_this@?$_Func_impl@V<lambda_5a6aa9a858230c5449dfcdc2049eeb97>@@V?$allocator@H@std@@EV?$task@PE$AAVUri@Foundation@Windows@@@Concurrency@@@std@@EEAAX_N@Z 000000018002c260 f i _nodert_generated.obj
 0001:0002b290       ?_Target_type@?$_Func_impl@V<lambda_5a6aa9a858230c5449dfcdc2049eeb97>@@V?$allocator@H@std@@EV?$task@PE$AAVUri@Foundation@Windows@@@Concurrency@@@std@@EEBAAEBVtype_info@@XZ 000000018002c290 f i _nodert_generated.obj
 0001:0002b2a0       ?_Do_call@?$_Func_impl@V<lambda_5a6aa9a858230c5449dfcdc2049eeb97>@@V?$allocator@H@std@@EV?$task@PE$AAVUri@Foundation@Windows@@@Concurrency@@@std@@EEAAE$$QEAV?$task@PE$AAVUri@Foundation@Windows@@@Concurrency@@@Z 000000018002c2a0 f i _nodert_generated.obj
 0001:0002b2e0       ?_Move@?$_Func_impl@V<lambda_5a6aa9a858230c5449dfcdc2049eeb97>@@V?$allocator@H@std@@EV?$task@PE$AAVUri@Foundation@Windows@@@Concurrency@@@std@@EEAAPEAV?$_Func_base@EV?$task@PE$AAVUri@Foundation@Windows@@@Concurrency@@@2@PEAX@Z 000000018002c2e0 f i _nodert_generated.obj
 0001:0002b370       ?_Copy@?$_Func_impl@V<lambda_5a6aa9a858230c5449dfcdc2049eeb97>@@V?$allocator@H@std@@EV?$task@PE$AAVUri@Foundation@Windows@@@Concurrency@@@std@@EEBAPEAV?$_Func_base@EV?$task@PE$AAVUri@Foundation@Windows@@@Concurrency@@@2@PEAX@Z 000000018002c370 f i _nodert_generated.obj
 0001:0002b380       ?_Delete_this@?$_Func_impl@V<lambda_88a6fc8dc694f47ad77b7fd720085f6f>@@V?$allocator@H@std@@EV?$task@W4SetImageFeedResult@UserProfile@System@Windows@@@Concurrency@@@std@@EEAAX_N@Z 000000018002c380 f i _nodert_generated.obj
 0001:0002b3b0       ?_Target_type@?$_Func_impl@V<lambda_88a6fc8dc694f47ad77b7fd720085f6f>@@V?$allocator@H@std@@EV?$task@W4SetImageFeedResult@UserProfile@System@Windows@@@Concurrency@@@std@@EEBAAEBVtype_info@@XZ 000000018002c3b0 f i _nodert_generated.obj
 0001:0002b3c0       ?_Do_call@?$_Func_impl@V<lambda_88a6fc8dc694f47ad77b7fd720085f6f>@@V?$allocator@H@std@@EV?$task@W4SetImageFeedResult@UserProfile@System@Windows@@@Concurrency@@@std@@EEAAE$$QEAV?$task@W4SetImageFeedResult@UserProfile@System@Windows@@@Concurrency@@@Z 000000018002c3c0 f i _nodert_generated.obj
 0001:0002b400       ?_Move@?$_Func_impl@V<lambda_88a6fc8dc694f47ad77b7fd720085f6f>@@V?$allocator@H@std@@EV?$task@W4SetImageFeedResult@UserProfile@System@Windows@@@Concurrency@@@std@@EEAAPEAV?$_Func_base@EV?$task@W4SetImageFeedResult@UserProfile@System@Windows@@@Concurrency@@@2@PEAX@Z 000000018002c400 f i _nodert_generated.obj
 0001:0002b490       ?_Copy@?$_Func_impl@V<lambda_88a6fc8dc694f47ad77b7fd720085f6f>@@V?$allocator@H@std@@EV?$task@W4SetImageFeedResult@UserProfile@System@Windows@@@Concurrency@@@std@@EEBAPEAV?$_Func_base@EV?$task@W4SetImageFeedResult@UserProfile@System@Windows@@@Concurrency@@@2@PEAX@Z 000000018002c490 f i _nodert_generated.obj
 0001:0002b4a0       ??1?$_Func_impl@V<lambda_7c85cdcc7b722a73124a4747dd95cece>@@V?$allocator@H@std@@V?$Local@VValue@v8@@@v8@@PE$AAU?$IKeyValuePair@PE$AAVString@Platform@@PE$AAVObject@2@@Collections@Foundation@Windows@@@std@@QEAA@XZ 000000018002c4a0 f i _nodert_generated.obj
 0001:0002b520       ??1?$_Func_impl@V<lambda_f25c37099038263181b5186a3fa41b37>@@V?$allocator@H@std@@X$$V@std@@QEAA@XZ 000000018002c520 f i _nodert_generated.obj
 0001:0002b5c0       ??0?$function@$$A6AXHPEAV?$Local@VValue@v8@@@v8@@@Z@std@@QEAA@$$QEAV01@@Z 000000018002c5c0 f i _nodert_generated.obj
 0001:0002b650       ??1?$_Func_base@V?$Local@VValue@v8@@@v8@@PE$AAU?$IKeyValuePair@PE$AAVString@Platform@@PE$AAVObject@2@@Collections@Foundation@Windows@@@std@@QEAA@XZ 000000018002c650 f i _nodert_generated.obj
 0001:0002b660       ??1?$_Func_base@X$$V@std@@QEAA@XZ 000000018002c660 f i _nodert_generated.obj
 0001:0002b670       ??$_Clone@X@?$_Func_impl@V<lambda_d4a8bb1d3b7ec2bea7766c2745f0ce11>@@V?$allocator@H@std@@EV?$task@X@Concurrency@@@std@@AEBAPEAV?$_Func_base@EV?$task@X@Concurrency@@@1@PEAXU?$integral_constant@_N$00@1@@Z 000000018002c670 f i _nodert_generated.obj
 0001:0002b700       ??$_Clone@X@?$_Func_impl@V<lambda_5a1c437f17fa466aabaf7b0153a0ecc3>@@V?$allocator@H@std@@EV?$task@_N@Concurrency@@@std@@AEBAPEAV?$_Func_base@EV?$task@_N@Concurrency@@@1@PEAXU?$integral_constant@_N$00@1@@Z 000000018002c700 f i _nodert_generated.obj
 0001:0002b790       ??$_Clone@X@?$_Func_impl@V<lambda_e9925fcb3d885ef5d135703b17266fe6>@@V?$allocator@H@std@@EV?$task@W4SetAccountPictureResult@UserProfile@System@Windows@@@Concurrency@@@std@@AEBAPEAV?$_Func_base@EV?$task@W4SetAccountPictureResult@UserProfile@System@Windows@@@Concurrency@@@1@PEAXU?$integral_constant@_N$00@1@@Z 000000018002c790 f i _nodert_generated.obj
 0001:0002b820       ??$_Clone@X@?$_Func_impl@V<lambda_252a23a4c4e06e57aa01918ce60919db>@@V?$allocator@H@std@@EV?$task@PE$AAVString@Platform@@@Concurrency@@@std@@AEBAPEAV?$_Func_base@EV?$task@PE$AAVString@Platform@@@Concurrency@@@1@PEAXU?$integral_constant@_N$00@1@@Z 000000018002c820 f i _nodert_generated.obj
 0001:0002b8b0       ??$_Clone@X@?$_Func_impl@V<lambda_5a6aa9a858230c5449dfcdc2049eeb97>@@V?$allocator@H@std@@EV?$task@PE$AAVUri@Foundation@Windows@@@Concurrency@@@std@@AEBAPEAV?$_Func_base@EV?$task@PE$AAVUri@Foundation@Windows@@@Concurrency@@@1@PEAXU?$integral_constant@_N$00@1@@Z 000000018002c8b0 f i _nodert_generated.obj
 0001:0002b960       ??$_Clone@X@?$_Func_impl@V<lambda_88a6fc8dc694f47ad77b7fd720085f6f>@@V?$allocator@H@std@@EV?$task@W4SetImageFeedResult@UserProfile@System@Windows@@@Concurrency@@@std@@AEBAPEAV?$_Func_base@EV?$task@W4SetImageFeedResult@UserProfile@System@Windows@@@Concurrency@@@1@PEAXU?$integral_constant@_N$00@1@@Z 000000018002c960 f i _nodert_generated.obj
 0001:0002bb10       ?_Delete_this@?$_Func_impl@V<lambda_0c35f08fa008bd0bd75f4471027a7740>@@V?$allocator@H@std@@X$$V@std@@EEAAX_N@Z 000000018002cb10 f i _nodert_generated.obj
 0001:0002bb70       ?_Target_type@?$_Func_impl@V<lambda_0c35f08fa008bd0bd75f4471027a7740>@@V?$allocator@H@std@@X$$V@std@@EEBAAEBVtype_info@@XZ 000000018002cb70 f i _nodert_generated.obj
 0001:0002bb80       ?_Move@?$_Func_impl@V<lambda_0c35f08fa008bd0bd75f4471027a7740>@@V?$allocator@H@std@@X$$V@std@@EEAAPEAV?$_Func_base@X$$V@2@PEAX@Z 000000018002cb80 f i _nodert_generated.obj
 0001:0002bb80       ?_Copy@?$_Func_impl@V<lambda_0c35f08fa008bd0bd75f4471027a7740>@@V?$allocator@H@std@@X$$V@std@@EEBAPEAV?$_Func_base@X$$V@2@PEAX@Z 000000018002cb80 f i _nodert_generated.obj
 0001:0002bbd0       ?_Delete_this@?$_Func_impl@V<lambda_8c935bb9b796b248181a9d1da9394bdb>@@V?$allocator@H@std@@X$$V@std@@EEAAX_N@Z 000000018002cbd0 f i _nodert_generated.obj
 0001:0002bc30       ?_Target_type@?$_Func_impl@V<lambda_8c935bb9b796b248181a9d1da9394bdb>@@V?$allocator@H@std@@X$$V@std@@EEBAAEBVtype_info@@XZ 000000018002cc30 f i _nodert_generated.obj
 0001:0002bc40       ?_Move@?$_Func_impl@V<lambda_8c935bb9b796b248181a9d1da9394bdb>@@V?$allocator@H@std@@X$$V@std@@EEAAPEAV?$_Func_base@X$$V@2@PEAX@Z 000000018002cc40 f i _nodert_generated.obj
 0001:0002bc40       ?_Copy@?$_Func_impl@V<lambda_8c935bb9b796b248181a9d1da9394bdb>@@V?$allocator@H@std@@X$$V@std@@EEBAPEAV?$_Func_base@X$$V@2@PEAX@Z 000000018002cc40 f i _nodert_generated.obj
 0001:0002bc90       ?_Delete_this@?$_Func_impl@V<lambda_897d889871fbdfd64b4d57af573b0f8b>@@V?$allocator@H@std@@X$$V@std@@EEAAX_N@Z 000000018002cc90 f i _nodert_generated.obj
 0001:0002bcf0       ?_Target_type@?$_Func_impl@V<lambda_897d889871fbdfd64b4d57af573b0f8b>@@V?$allocator@H@std@@X$$V@std@@EEBAAEBVtype_info@@XZ 000000018002ccf0 f i _nodert_generated.obj
 0001:0002bd00       ?_Copy@?$_Func_impl@V<lambda_897d889871fbdfd64b4d57af573b0f8b>@@V?$allocator@H@std@@X$$V@std@@EEBAPEAV?$_Func_base@X$$V@2@PEAX@Z 000000018002cd00 f i _nodert_generated.obj
 0001:0002bd00       ?_Move@?$_Func_impl@V<lambda_897d889871fbdfd64b4d57af573b0f8b>@@V?$allocator@H@std@@X$$V@std@@EEAAPEAV?$_Func_base@X$$V@2@PEAX@Z 000000018002cd00 f i _nodert_generated.obj
 0001:0002bd50       ?_Delete_this@?$_Func_impl@V<lambda_fc0d6554ea59c755c55dae328d38f34b>@@V?$allocator@H@std@@X$$V@std@@EEAAX_N@Z 000000018002cd50 f i _nodert_generated.obj
 0001:0002bdb0       ?_Target_type@?$_Func_impl@V<lambda_fc0d6554ea59c755c55dae328d38f34b>@@V?$allocator@H@std@@X$$V@std@@EEBAAEBVtype_info@@XZ 000000018002cdb0 f i _nodert_generated.obj
 0001:0002bdc0       ?_Move@?$_Func_impl@V<lambda_fc0d6554ea59c755c55dae328d38f34b>@@V?$allocator@H@std@@X$$V@std@@EEAAPEAV?$_Func_base@X$$V@2@PEAX@Z 000000018002cdc0 f i _nodert_generated.obj
 0001:0002bdc0       ?_Copy@?$_Func_impl@V<lambda_fc0d6554ea59c755c55dae328d38f34b>@@V?$allocator@H@std@@X$$V@std@@EEBAPEAV?$_Func_base@X$$V@2@PEAX@Z 000000018002cdc0 f i _nodert_generated.obj
 0001:0002be10       ?_Delete_this@?$_Func_impl@V<lambda_9933a21befe6e47ae479e016e2f1250c>@@V?$allocator@H@std@@X$$V@std@@EEAAX_N@Z 000000018002ce10 f i _nodert_generated.obj
 0001:0002be70       ?_Target_type@?$_Func_impl@V<lambda_9933a21befe6e47ae479e016e2f1250c>@@V?$allocator@H@std@@X$$V@std@@EEBAAEBVtype_info@@XZ 000000018002ce70 f i _nodert_generated.obj
 0001:0002be80       ?_Copy@?$_Func_impl@V<lambda_9933a21befe6e47ae479e016e2f1250c>@@V?$allocator@H@std@@X$$V@std@@EEBAPEAV?$_Func_base@X$$V@2@PEAX@Z 000000018002ce80 f i _nodert_generated.obj
 0001:0002be80       ?_Move@?$_Func_impl@V<lambda_9933a21befe6e47ae479e016e2f1250c>@@V?$allocator@H@std@@X$$V@std@@EEAAPEAV?$_Func_base@X$$V@2@PEAX@Z 000000018002ce80 f i _nodert_generated.obj
 0001:0002bed0       ??0?$function@$$A6AXV?$function@$$A6AXHPEAV?$Local@VValue@v8@@@v8@@@Z@std@@@Z@std@@QEAA@$$QEAV01@@Z 000000018002ced0 f i _nodert_generated.obj
 0001:0002c050       ??1?$_Func_impl@V<lambda_5a6aa9a858230c5449dfcdc2049eeb97>@@V?$allocator@H@std@@EV?$task@PE$AAVUri@Foundation@Windows@@@Concurrency@@@std@@QEAA@XZ 000000018002d050 f i _nodert_generated.obj
 0001:0002c0d0       ??1?$_Func_impl@V<lambda_88a6fc8dc694f47ad77b7fd720085f6f>@@V?$allocator@H@std@@EV?$task@W4SetImageFeedResult@UserProfile@System@Windows@@@Concurrency@@@std@@QEAA@XZ 000000018002d0d0 f i _nodert_generated.obj
 0001:0002c150       ??1?$_Func_base@EV?$task@X@Concurrency@@@std@@QEAA@XZ 000000018002d150 f i _nodert_generated.obj
 0001:0002c160       ??1?$_Func_base@EV?$task@_N@Concurrency@@@std@@QEAA@XZ 000000018002d160 f i _nodert_generated.obj
 0001:0002c170       ??1?$_Func_base@EV?$task@W4SetAccountPictureResult@UserProfile@System@Windows@@@Concurrency@@@std@@QEAA@XZ 000000018002d170 f i _nodert_generated.obj
 0001:0002c180       ??1?$_Func_base@EV?$task@PE$AAVString@Platform@@@Concurrency@@@std@@QEAA@XZ 000000018002d180 f i _nodert_generated.obj
 0001:0002c190       ??1?$_Func_base@EV?$task@PE$AAVUri@Foundation@Windows@@@Concurrency@@@std@@QEAA@XZ 000000018002d190 f i _nodert_generated.obj
 0001:0002c1a0       ??1?$_Func_base@EV?$task@W4SetImageFeedResult@UserProfile@System@Windows@@@Concurrency@@@std@@QEAA@XZ 000000018002d1a0 f i _nodert_generated.obj
 0001:0002c1ac       ?__abi_GetIids@?$AsyncOperationCompletedHandler@PE$AAVUri@Foundation@Windows@@@Foundation@Windows@@WBA@E$AAAJPEAKPEAPEAVGuid@Platform@@@Z 000000018002d1ac f i _nodert_generated.obj
 0001:0002c1ac       ?__abi_GetIids@?$AsyncOperationCompletedHandler@W4SetImageFeedResult@UserProfile@System@Windows@@@Foundation@Windows@@WBA@E$AAAJPEAKPEAPEAVGuid@Platform@@@Z 000000018002d1ac f i _nodert_generated.obj
 0001:0002c1ac       ?__abi_GetIids@?$AsyncOperationCompletedHandler@E@Foundation@Windows@@WBA@E$AAAJPEAKPEAPEAVGuid@Platform@@@Z 000000018002d1ac f i _nodert_generated.obj
 0001:0002c1ac       ?__abi_GetIids@?$AsyncOperationCompletedHandler@W4SetAccountPictureResult@UserProfile@System@Windows@@@Foundation@Windows@@WBA@E$AAAJPEAKPEAPEAVGuid@Platform@@@Z 000000018002d1ac f i _nodert_generated.obj
 0001:0002c1ac       ?__abi_GetIids@?$AsyncOperationCompletedHandler@PE$AAVString@Platform@@@Foundation@Windows@@WBA@E$AAAJPEAKPEAPEAVGuid@Platform@@@Z 000000018002d1ac f i _nodert_generated.obj
 0001:0002c1ac       ?__abi_GetIids@?$AsyncOperationCompletedHandler@_N@Foundation@Windows@@WBA@E$AAAJPEAKPEAPEAVGuid@Platform@@@Z 000000018002d1ac f i _nodert_generated.obj
 0001:0002c1b8       ?__abi_AddRef@?$AsyncOperationCompletedHandler@E@Foundation@Windows@@W7E$AAAKXZ 000000018002d1b8 f i _nodert_generated.obj
 0001:0002c1b8       ?__abi_AddRef@AsyncActionCompletedHandler@Foundation@Windows@@W7E$AAAKXZ 000000018002d1b8 f i _nodert_generated.obj
 0001:0002c1b8       ?__abi_AddRef@?$AsyncOperationCompletedHandler@PE$AAVString@Platform@@@Foundation@Windows@@W7E$AAAKXZ 000000018002d1b8 f i _nodert_generated.obj
 0001:0002c1b8       ?__abi_AddRef@?$AsyncOperationCompletedHandler@W4SetAccountPictureResult@UserProfile@System@Windows@@@Foundation@Windows@@W7E$AAAKXZ 000000018002d1b8 f i _nodert_generated.obj
 0001:0002c1b8       ?__abi_AddRef@?$AsyncOperationCompletedHandler@W4SetImageFeedResult@UserProfile@System@Windows@@@Foundation@Windows@@W7E$AAAKXZ 000000018002d1b8 f i _nodert_generated.obj
 0001:0002c1b8       ?__abi_AddRef@?$AsyncOperationCompletedHandler@_N@Foundation@Windows@@W7E$AAAKXZ 000000018002d1b8 f i _nodert_generated.obj
 0001:0002c1b8       ?__abi_AddRef@?$EventHandler@PE$AAVObject@Platform@@@Foundation@Windows@@W7E$AAAKXZ 000000018002d1b8 f i _nodert_generated.obj
 0001:0002c1b8       ?__abi_AddRef@?$AsyncOperationCompletedHandler@PE$AAVUri@Foundation@Windows@@@Foundation@Windows@@W7E$AAAKXZ 000000018002d1b8 f i _nodert_generated.obj
 0001:0002c1c4       ?__abi_QueryInterface@?QObject@Platform@@_IAsyncActionToAsyncOperationConverter@details@Concurrency@@WGA@E$AAAJAEAVGuid@2@PEAPEAX@Z 000000018002d1c4 f i _nodert_generated.obj
 0001:0002c1d0       ?__abi_GetRuntimeClassName@?$AsyncOperationCompletedHandler@W4SetImageFeedResult@UserProfile@System@Windows@@@Foundation@Windows@@W7E$AAAJPEAPEAUHSTRING__@@@Z 000000018002d1d0 f i _nodert_generated.obj
 0001:0002c1dc       ?__abi_QueryInterface@?$AsyncOperationCompletedHandler@W4SetImageFeedResult@UserProfile@System@Windows@@@Foundation@Windows@@W7E$AAAJAEAVGuid@Platform@@PEAPEAX@Z 000000018002d1dc f i _nodert_generated.obj
 0001:0002c1e8       ?__abi_Windows_Foundation_IAsyncInfo____abi_get_Id@?QIAsyncInfo@Foundation@Windows@@?$_AsyncInfoImpl@PE$AAUIAsyncAction@Foundation@Windows@@VAsyncActionCompletedHandler@23@E@details@Concurrency@@WBA@E$AAAJPEAI@Z 000000018002d1e8 f i _nodert_generated.obj
 0001:0002c1f4       ?__abi_GetIids@?QObject@Platform@@_IAsyncActionToAsyncOperationConverter@details@Concurrency@@WBI@E$AAAJPEAKPEAPEAVGuid@2@@Z 000000018002d1f4 f i _nodert_generated.obj
 0001:0002c200       ?__abi_AddRef@?QObject@Platform@@_IAsyncActionToAsyncOperationConverter@details@Concurrency@@W7E$AAAKXZ 000000018002d200 f i _nodert_generated.obj
 0001:0002c20c       ?__abi_Platform_Details_IWeakReferenceSource____abi_GetWeakReference@?QIWeakReferenceSource@Details@Platform@@_IAsyncActionToAsyncOperationConverter@details@Concurrency@@WFI@E$AAAJPEAPE$AAUIWeakReference@23@@Z 000000018002d20c f i _nodert_generated.obj
 0001:0002c218       ?Close@?QIAsyncInfo@Foundation@Windows@@?$_AsyncInfoImpl@PE$AAUIAsyncAction@Foundation@Windows@@VAsyncActionCompletedHandler@23@E@details@Concurrency@@WBA@E$AAAXXZ 000000018002d218 f i _nodert_generated.obj
 0001:0002c224       ?get@?Q?$IAsyncOperation@E@Foundation@Windows@@Completed@?$_AsyncInfoImpl@PE$AAUIAsyncAction@Foundation@Windows@@VAsyncActionCompletedHandler@23@E@details@Concurrency@@W7E$AAAPE$AAV?$AsyncOperationCompletedHandler@E@23@XZ 000000018002d224 f i _nodert_generated.obj
 0001:0002c230       ?__abi_GetTrustLevel@?QObject@Platform@@_IAsyncActionToAsyncOperationConverter@details@Concurrency@@W7E$AAAJPEAW4__abi_TrustLevel@@@Z 000000018002d230 f i _nodert_generated.obj
 0001:0002c230       ?__abi_GetTrustLevel@?$AsyncOperationCompletedHandler@W4SetImageFeedResult@UserProfile@System@Windows@@@Foundation@Windows@@W7E$AAAJPEAW4__abi_TrustLevel@@@Z 000000018002d230 f i _nodert_generated.obj
 0001:0002c230       ?__abi_GetTrustLevel@?$AsyncOperationCompletedHandler@E@Foundation@Windows@@W7E$AAAJPEAW4__abi_TrustLevel@@@Z 000000018002d230 f i _nodert_generated.obj
 0001:0002c230       ?__abi_GetTrustLevel@?$AsyncOperationCompletedHandler@W4SetAccountPictureResult@UserProfile@System@Windows@@@Foundation@Windows@@W7E$AAAJPEAW4__abi_TrustLevel@@@Z 000000018002d230 f i _nodert_generated.obj
 0001:0002c230       ?__abi_GetTrustLevel@?$AsyncOperationCompletedHandler@_N@Foundation@Windows@@W7E$AAAJPEAW4__abi_TrustLevel@@@Z 000000018002d230 f i _nodert_generated.obj
 0001:0002c230       ?__abi_GetTrustLevel@AsyncActionCompletedHandler@Foundation@Windows@@W7E$AAAJPEAW4__abi_TrustLevel@@@Z 000000018002d230 f i _nodert_generated.obj
 0001:0002c230       ?__abi_GetTrustLevel@?$AsyncOperationCompletedHandler@PE$AAVUri@Foundation@Windows@@@Foundation@Windows@@W7E$AAAJPEAW4__abi_TrustLevel@@@Z 000000018002d230 f i _nodert_generated.obj
 0001:0002c230       ?__abi_GetTrustLevel@?$AsyncOperationCompletedHandler@PE$AAVString@Platform@@@Foundation@Windows@@W7E$AAAJPEAW4__abi_TrustLevel@@@Z 000000018002d230 f i _nodert_generated.obj
 0001:0002c230       ?__abi_GetTrustLevel@?$EventHandler@PE$AAVObject@Platform@@@Foundation@Windows@@W7E$AAAJPEAW4__abi_TrustLevel@@@Z 000000018002d230 f i _nodert_generated.obj
 0001:0002c23c       ?__abi_GetIids@AsyncActionCompletedHandler@Foundation@Windows@@W7E$AAAJPEAKPEAPEAVGuid@Platform@@@Z 000000018002d23c f i _nodert_generated.obj
 0001:0002c248       ?__abi_Release@?$AsyncOperationCompletedHandler@E@Foundation@Windows@@W7E$AAAKXZ 000000018002d248 f i _nodert_generated.obj
 0001:0002c248       ?__abi_Release@AsyncActionCompletedHandler@Foundation@Windows@@W7E$AAAKXZ 000000018002d248 f i _nodert_generated.obj
 0001:0002c248       ?__abi_Release@?$AsyncOperationCompletedHandler@W4SetAccountPictureResult@UserProfile@System@Windows@@@Foundation@Windows@@W7E$AAAKXZ 000000018002d248 f i _nodert_generated.obj
 0001:0002c248       ?__abi_Release@?$EventHandler@PE$AAVObject@Platform@@@Foundation@Windows@@W7E$AAAKXZ 000000018002d248 f i _nodert_generated.obj
 0001:0002c248       ?__abi_Release@?$AsyncOperationCompletedHandler@_N@Foundation@Windows@@W7E$AAAKXZ 000000018002d248 f i _nodert_generated.obj
 0001:0002c248       ?__abi_Release@?$AsyncOperationCompletedHandler@PE$AAVUri@Foundation@Windows@@@Foundation@Windows@@W7E$AAAKXZ 000000018002d248 f i _nodert_generated.obj
 0001:0002c248       ?__abi_Release@?$AsyncOperationCompletedHandler@PE$AAVString@Platform@@@Foundation@Windows@@W7E$AAAKXZ 000000018002d248 f i _nodert_generated.obj
 0001:0002c248       ?__abi_Release@?$AsyncOperationCompletedHandler@W4SetImageFeedResult@UserProfile@System@Windows@@@Foundation@Windows@@W7E$AAAKXZ 000000018002d248 f i _nodert_generated.obj
 0001:0002c254       ?__abi_GetTrustLevel@AsyncActionCompletedHandler@Foundation@Windows@@WBA@E$AAAJPEAW4__abi_TrustLevel@@@Z 000000018002d254 f i _nodert_generated.obj
 0001:0002c254       ?__abi_GetTrustLevel@?QObject@Platform@@_IAsyncActionToAsyncOperationConverter@details@Concurrency@@WBA@E$AAAJPEAW4__abi_TrustLevel@@@Z 000000018002d254 f i _nodert_generated.obj
 0001:0002c254       ?__abi_GetTrustLevel@?$EventHandler@PE$AAVObject@Platform@@@Foundation@Windows@@WBA@E$AAAJPEAW4__abi_TrustLevel@@@Z 000000018002d254 f i _nodert_generated.obj
 0001:0002c254       ?__abi_GetTrustLevel@?$AsyncOperationCompletedHandler@W4SetAccountPictureResult@UserProfile@System@Windows@@@Foundation@Windows@@WBA@E$AAAJPEAW4__abi_TrustLevel@@@Z 000000018002d254 f i _nodert_generated.obj
 0001:0002c254       ?__abi_GetTrustLevel@?$AsyncOperationCompletedHandler@_N@Foundation@Windows@@WBA@E$AAAJPEAW4__abi_TrustLevel@@@Z 000000018002d254 f i _nodert_generated.obj
 0001:0002c254       ?__abi_GetTrustLevel@?$AsyncOperationCompletedHandler@E@Foundation@Windows@@WBA@E$AAAJPEAW4__abi_TrustLevel@@@Z 000000018002d254 f i _nodert_generated.obj
 0001:0002c254       ?__abi_GetTrustLevel@?$AsyncOperationCompletedHandler@PE$AAVString@Platform@@@Foundation@Windows@@WBA@E$AAAJPEAW4__abi_TrustLevel@@@Z 000000018002d254 f i _nodert_generated.obj
 0001:0002c254       ?__abi_GetTrustLevel@?$AsyncOperationCompletedHandler@PE$AAVUri@Foundation@Windows@@@Foundation@Windows@@WBA@E$AAAJPEAW4__abi_TrustLevel@@@Z 000000018002d254 f i _nodert_generated.obj
 0001:0002c254       ?__abi_GetTrustLevel@?$AsyncOperationCompletedHandler@W4SetImageFeedResult@UserProfile@System@Windows@@@Foundation@Windows@@WBA@E$AAAJPEAW4__abi_TrustLevel@@@Z 000000018002d254 f i _nodert_generated.obj
 0001:0002c260       ?__abi_QueryInterface@?$EventHandler@PE$AAVObject@Platform@@@Foundation@Windows@@W7E$AAAJAEAVGuid@Platform@@PEAPEAX@Z 000000018002d260 f i _nodert_generated.obj
 0001:0002c26c       ?__abi_GetRuntimeClassName@?$AsyncOperationCompletedHandler@E@Foundation@Windows@@W7E$AAAJPEAPEAUHSTRING__@@@Z 000000018002d26c f i _nodert_generated.obj
 0001:0002c278       ?__abi_GetRuntimeClassName@?QObject@Platform@@_IAsyncActionToAsyncOperationConverter@details@Concurrency@@WCA@E$AAAJPEAPEAUHSTRING__@@@Z 000000018002d278 f i _nodert_generated.obj
 0001:0002c284       ?__abi_Windows_Foundation_IAsyncInfo____abi_Close@?QIAsyncInfo@Foundation@Windows@@?$_AsyncInfoImpl@PE$AAUIAsyncAction@Foundation@Windows@@VAsyncActionCompletedHandler@23@E@details@Concurrency@@WBA@E$AAAJXZ 000000018002d284 f i _nodert_generated.obj
 0001:0002c290       ?__abi_Windows_Foundation_?$IAsyncOperation@E____abi_get_Completed@?Q?$IAsyncOperation@E@Foundation@Windows@@?$_AsyncInfoImpl@PE$AAUIAsyncAction@Foundation@Windows@@VAsyncActionCompletedHandler@23@E@details@Concurrency@@W7E$AAAJPEAPE$AAV?$AsyncOperationCompletedHandler@E@23@@Z 000000018002d290 f i _nodert_generated.obj
 0001:0002c29c       ?__abi_Release@?$AsyncOperationCompletedHandler@E@Foundation@Windows@@WBA@E$AAAKXZ 000000018002d29c f i _nodert_generated.obj
 0001:0002c29c       ?__abi_Release@?$AsyncOperationCompletedHandler@W4SetAccountPictureResult@UserProfile@System@Windows@@@Foundation@Windows@@WBA@E$AAAKXZ 000000018002d29c f i _nodert_generated.obj
 0001:0002c29c       ?__abi_Release@?$EventHandler@PE$AAVObject@Platform@@@Foundation@Windows@@WBA@E$AAAKXZ 000000018002d29c f i _nodert_generated.obj
 0001:0002c29c       ?__abi_Release@?$AsyncOperationCompletedHandler@PE$AAVString@Platform@@@Foundation@Windows@@WBA@E$AAAKXZ 000000018002d29c f i _nodert_generated.obj
 0001:0002c29c       ?__abi_Release@AsyncActionCompletedHandler@Foundation@Windows@@WBA@E$AAAKXZ 000000018002d29c f i _nodert_generated.obj
 0001:0002c29c       ?__abi_Release@?$AsyncOperationCompletedHandler@PE$AAVUri@Foundation@Windows@@@Foundation@Windows@@WBA@E$AAAKXZ 000000018002d29c f i _nodert_generated.obj
 0001:0002c29c       ?__abi_Release@?$AsyncOperationCompletedHandler@_N@Foundation@Windows@@WBA@E$AAAKXZ 000000018002d29c f i _nodert_generated.obj
 0001:0002c29c       ?__abi_Release@?$AsyncOperationCompletedHandler@W4SetImageFeedResult@UserProfile@System@Windows@@@Foundation@Windows@@WBA@E$AAAKXZ 000000018002d29c f i _nodert_generated.obj
 0001:0002c2a8       ?__abi_QueryInterface@?$AsyncOperationCompletedHandler@_N@Foundation@Windows@@WBA@E$AAAJAEAVGuid@Platform@@PEAPEAX@Z 000000018002d2a8 f i _nodert_generated.obj
 0001:0002c2b4       ?__abi_QueryInterface@?$AsyncOperationCompletedHandler@E@Foundation@Windows@@W7E$AAAJAEAVGuid@Platform@@PEAPEAX@Z 000000018002d2b4 f i _nodert_generated.obj
 0001:0002c2c0       ?GetResults@?Q?$IAsyncOperation@E@Foundation@Windows@@?$_AsyncInfoImpl@PE$AAUIAsyncAction@Foundation@Windows@@VAsyncActionCompletedHandler@23@E@details@Concurrency@@W7E$AAAEXZ 000000018002d2c0 f i _nodert_generated.obj
 0001:0002c2cc       ?__abi_Windows_Foundation_?$IAsyncOperation@E____abi_set_Completed@?Q?$IAsyncOperation@E@Foundation@Windows@@?$_AsyncInfoImpl@PE$AAUIAsyncAction@Foundation@Windows@@VAsyncActionCompletedHandler@23@E@details@Concurrency@@W7E$AAAJPE$AAV?$AsyncOperationCompletedHandler@E@23@@Z 000000018002d2cc f i _nodert_generated.obj
 0001:0002c2d8       ?__abi_QueryInterface@AsyncActionCompletedHandler@Foundation@Windows@@WBA@E$AAAJAEAVGuid@Platform@@PEAPEAX@Z 000000018002d2d8 f i _nodert_generated.obj
 0001:0002c2e4       ?__abi_AddRef@?$EventHandler@PE$AAVObject@Platform@@@Foundation@Windows@@WBA@E$AAAKXZ 000000018002d2e4 f i _nodert_generated.obj
 0001:0002c2e4       ?__abi_AddRef@?$AsyncOperationCompletedHandler@PE$AAVUri@Foundation@Windows@@@Foundation@Windows@@WBA@E$AAAKXZ 000000018002d2e4 f i _nodert_generated.obj
 0001:0002c2e4       ?__abi_AddRef@?$AsyncOperationCompletedHandler@W4SetAccountPictureResult@UserProfile@System@Windows@@@Foundation@Windows@@WBA@E$AAAKXZ 000000018002d2e4 f i _nodert_generated.obj
 0001:0002c2e4       ?__abi_AddRef@?$AsyncOperationCompletedHandler@_N@Foundation@Windows@@WBA@E$AAAKXZ 000000018002d2e4 f i _nodert_generated.obj
 0001:0002c2e4       ?__abi_AddRef@?$AsyncOperationCompletedHandler@PE$AAVString@Platform@@@Foundation@Windows@@WBA@E$AAAKXZ 000000018002d2e4 f i _nodert_generated.obj
 0001:0002c2e4       ?__abi_AddRef@?$AsyncOperationCompletedHandler@W4SetImageFeedResult@UserProfile@System@Windows@@@Foundation@Windows@@WBA@E$AAAKXZ 000000018002d2e4 f i _nodert_generated.obj
 0001:0002c2e4       ?__abi_AddRef@?$AsyncOperationCompletedHandler@E@Foundation@Windows@@WBA@E$AAAKXZ 000000018002d2e4 f i _nodert_generated.obj
 0001:0002c2e4       ?__abi_AddRef@AsyncActionCompletedHandler@Foundation@Windows@@WBA@E$AAAKXZ 000000018002d2e4 f i _nodert_generated.obj
 0001:0002c2f0       ?__abi_GetRuntimeClassName@?QObject@Platform@@_IAsyncActionToAsyncOperationConverter@details@Concurrency@@WGA@E$AAAJPEAPEAUHSTRING__@@@Z 000000018002d2f0 f i _nodert_generated.obj
 0001:0002c2fc       ?__abi_GetTrustLevel@?QObject@Platform@@_IAsyncActionToAsyncOperationConverter@details@Concurrency@@WCA@E$AAAJPEAW4__abi_TrustLevel@@@Z 000000018002d2fc f i _nodert_generated.obj
 0001:0002c308       ?__abi_QueryInterface@?QObject@Platform@@_IAsyncActionToAsyncOperationConverter@details@Concurrency@@W7E$AAAJAEAVGuid@2@PEAPEAX@Z 000000018002d308 f i _nodert_generated.obj
 0001:0002c314       ?__abi_GetIids@?$AsyncOperationCompletedHandler@W4SetAccountPictureResult@UserProfile@System@Windows@@@Foundation@Windows@@W7E$AAAJPEAKPEAPEAVGuid@Platform@@@Z 000000018002d314 f i _nodert_generated.obj
 0001:0002c314       ?__abi_GetIids@?$AsyncOperationCompletedHandler@PE$AAVString@Platform@@@Foundation@Windows@@W7E$AAAJPEAKPEAPEAVGuid@Platform@@@Z 000000018002d314 f i _nodert_generated.obj
 0001:0002c314       ?__abi_GetIids@?$AsyncOperationCompletedHandler@_N@Foundation@Windows@@W7E$AAAJPEAKPEAPEAVGuid@Platform@@@Z 000000018002d314 f i _nodert_generated.obj
 0001:0002c314       ?__abi_GetIids@?$AsyncOperationCompletedHandler@E@Foundation@Windows@@W7E$AAAJPEAKPEAPEAVGuid@Platform@@@Z 000000018002d314 f i _nodert_generated.obj
 0001:0002c314       ?__abi_GetIids@?$AsyncOperationCompletedHandler@W4SetImageFeedResult@UserProfile@System@Windows@@@Foundation@Windows@@W7E$AAAJPEAKPEAPEAVGuid@Platform@@@Z 000000018002d314 f i _nodert_generated.obj
 0001:0002c314       ?__abi_GetIids@?$AsyncOperationCompletedHandler@PE$AAVUri@Foundation@Windows@@@Foundation@Windows@@W7E$AAAJPEAKPEAPEAVGuid@Platform@@@Z 000000018002d314 f i _nodert_generated.obj
 0001:0002c320       ?__abi_QueryInterface@?$AsyncOperationCompletedHandler@W4SetAccountPictureResult@UserProfile@System@Windows@@@Foundation@Windows@@WBA@E$AAAJAEAVGuid@Platform@@PEAPEAX@Z 000000018002d320 f i _nodert_generated.obj
 0001:0002c32c       ?__abi_Windows_Foundation_?$IAsyncOperation@E____abi_GetResults@?Q?$IAsyncOperation@E@Foundation@Windows@@?$_AsyncInfoImpl@PE$AAUIAsyncAction@Foundation@Windows@@VAsyncActionCompletedHandler@23@E@details@Concurrency@@W7E$AAAJPEAE@Z 000000018002d32c f i _nodert_generated.obj
 0001:0002c338       ?__abi_Release@?QObject@Platform@@_IAsyncActionToAsyncOperationConverter@details@Concurrency@@WBA@E$AAAKXZ 000000018002d338 f i _nodert_generated.obj
 0001:0002c344       ?__abi_GetRuntimeClassName@?$AsyncOperationCompletedHandler@W4SetAccountPictureResult@UserProfile@System@Windows@@@Foundation@Windows@@WBA@E$AAAJPEAPEAUHSTRING__@@@Z 000000018002d344 f i _nodert_generated.obj
 0001:0002c350       ?__abi_GetTrustLevel@?QObject@Platform@@_IAsyncActionToAsyncOperationConverter@details@Concurrency@@WGA@E$AAAJPEAW4__abi_TrustLevel@@@Z 000000018002d350 f i _nodert_generated.obj
 0001:0002c35c       ?__abi_GetRuntimeClassName@AsyncActionCompletedHandler@Foundation@Windows@@WBA@E$AAAJPEAPEAUHSTRING__@@@Z 000000018002d35c f i _nodert_generated.obj
 0001:0002c368       ?__abi_GetRuntimeClassName@?$AsyncOperationCompletedHandler@W4SetImageFeedResult@UserProfile@System@Windows@@@Foundation@Windows@@WBA@E$AAAJPEAPEAUHSTRING__@@@Z 000000018002d368 f i _nodert_generated.obj
 0001:0002c374       ?__abi_QueryInterface@?$AsyncOperationCompletedHandler@W4SetImageFeedResult@UserProfile@System@Windows@@@Foundation@Windows@@WBA@E$AAAJAEAVGuid@Platform@@PEAPEAX@Z 000000018002d374 f i _nodert_generated.obj
 0001:0002c380       ?__abi_GetIids@?QObject@Platform@@_IAsyncActionToAsyncOperationConverter@details@Concurrency@@WCA@E$AAAJPEAKPEAPEAVGuid@2@@Z 000000018002d380 f i _nodert_generated.obj
 0001:0002c38c       ?__abi_AddRef@?QObject@Platform@@_IAsyncActionToAsyncOperationConverter@details@Concurrency@@WBA@E$AAAKXZ 000000018002d38c f i _nodert_generated.obj
 0001:0002c398       ?get@?QIAsyncInfo@Foundation@Windows@@Status@?$_AsyncInfoImpl@PE$AAUIAsyncAction@Foundation@Windows@@VAsyncActionCompletedHandler@23@E@details@Concurrency@@WBA@E$AAA?AW4AsyncStatus@23@XZ 000000018002d398 f i _nodert_generated.obj
 0001:0002c3a4       ?__abi_GetRuntimeClassName@?QObject@Platform@@_IAsyncActionToAsyncOperationConverter@details@Concurrency@@W7E$AAAJPEAPEAUHSTRING__@@@Z 000000018002d3a4 f i _nodert_generated.obj
 0001:0002c3b0       ?__abi_GetIids@AsyncActionCompletedHandler@Foundation@Windows@@WBA@E$AAAJPEAKPEAPEAVGuid@Platform@@@Z 000000018002d3b0 f i _nodert_generated.obj
 0001:0002c3bc       ?__abi_QueryInterface@?$EventHandler@PE$AAVObject@Platform@@@Foundation@Windows@@WBA@E$AAAJAEAVGuid@Platform@@PEAPEAX@Z 000000018002d3bc f i _nodert_generated.obj
 0001:0002c3c8       ?__abi_GetRuntimeClassName@?$AsyncOperationCompletedHandler@E@Foundation@Windows@@WBA@E$AAAJPEAPEAUHSTRING__@@@Z 000000018002d3c8 f i _nodert_generated.obj
 0001:0002c3d4       ?__abi_GetIids@?QObject@Platform@@_IAsyncActionToAsyncOperationConverter@details@Concurrency@@WGA@E$AAAJPEAKPEAPEAVGuid@2@@Z 000000018002d3d4 f i _nodert_generated.obj
 0001:0002c3e0       ?__abi_QueryInterface@?$AsyncOperationCompletedHandler@E@Foundation@Windows@@WBA@E$AAAJAEAVGuid@Platform@@PEAPEAX@Z 000000018002d3e0 f i _nodert_generated.obj
 0001:0002c3ec       ?__abi_QueryInterface@?$AsyncOperationCompletedHandler@PE$AAVString@Platform@@@Foundation@Windows@@W7E$AAAJAEAVGuid@Platform@@PEAPEAX@Z 000000018002d3ec f i _nodert_generated.obj
 0001:0002c3f8       ?__abi_GetIids@?$EventHandler@PE$AAVObject@Platform@@@Foundation@Windows@@W7E$AAAJPEAKPEAPEAVGuid@Platform@@@Z 000000018002d3f8 f i _nodert_generated.obj
 0001:0002c404       ?__abi_QueryInterface@?QObject@Platform@@_IAsyncActionToAsyncOperationConverter@details@Concurrency@@WBA@E$AAAJAEAVGuid@2@PEAPEAX@Z 000000018002d404 f i _nodert_generated.obj
 0001:0002c410       ?__abi_GetRuntimeClassName@?$EventHandler@PE$AAVObject@Platform@@@Foundation@Windows@@W7E$AAAJPEAPEAUHSTRING__@@@Z 000000018002d410 f i _nodert_generated.obj
 0001:0002c41c       ?Cancel@?QIAsyncInfo@Foundation@Windows@@?$_AsyncInfoImpl@PE$AAUIAsyncAction@Foundation@Windows@@VAsyncActionCompletedHandler@23@E@details@Concurrency@@WBA@E$AAAXXZ 000000018002d41c f i _nodert_generated.obj
 0001:0002c428       ?__abi_Release@?QObject@Platform@@_IAsyncActionToAsyncOperationConverter@details@Concurrency@@WBI@E$AAAKXZ 000000018002d428 f i _nodert_generated.obj
 0001:0002c434       ?set@?Q?$IAsyncOperation@E@Foundation@Windows@@Completed@?$_AsyncInfoImpl@PE$AAUIAsyncAction@Foundation@Windows@@VAsyncActionCompletedHandler@23@E@details@Concurrency@@W7E$AAAXPE$AAV?$AsyncOperationCompletedHandler@E@23@@Z 000000018002d434 f i _nodert_generated.obj
 0001:0002c440       ?__abi_QueryInterface@?$AsyncOperationCompletedHandler@PE$AAVUri@Foundation@Windows@@@Foundation@Windows@@W7E$AAAJAEAVGuid@Platform@@PEAPEAX@Z 000000018002d440 f i _nodert_generated.obj
 0001:0002c44c       ?__abi_Release@?QObject@Platform@@_IAsyncActionToAsyncOperationConverter@details@Concurrency@@WFI@E$AAAKXZ 000000018002d44c f i _nodert_generated.obj
 0001:0002c458       ?__abi_Windows_Foundation_IAsyncInfo____abi_get_ErrorCode@?QIAsyncInfo@Foundation@Windows@@?$_AsyncInfoImpl@PE$AAUIAsyncAction@Foundation@Windows@@VAsyncActionCompletedHandler@23@E@details@Concurrency@@WBA@E$AAAJPEAVHResult@23@@Z 000000018002d458 f i _nodert_generated.obj
 0001:0002c464       ?__abi_GetIids@?QObject@Platform@@_IAsyncActionToAsyncOperationConverter@details@Concurrency@@W7E$AAAJPEAKPEAPEAVGuid@2@@Z 000000018002d464 f i _nodert_generated.obj
 0001:0002c470       ?__abi_GetRuntimeClassName@?$AsyncOperationCompletedHandler@PE$AAVUri@Foundation@Windows@@@Foundation@Windows@@W7E$AAAJPEAPEAUHSTRING__@@@Z 000000018002d470 f i _nodert_generated.obj
 0001:0002c47c       ?__abi_Windows_Foundation_IAsyncInfo____abi_Cancel@?QIAsyncInfo@Foundation@Windows@@?$_AsyncInfoImpl@PE$AAUIAsyncAction@Foundation@Windows@@VAsyncActionCompletedHandler@23@E@details@Concurrency@@WBA@E$AAAJXZ 000000018002d47c f i _nodert_generated.obj
 0001:0002c488       ?__abi_AddRef@?QObject@Platform@@_IAsyncActionToAsyncOperationConverter@details@Concurrency@@WBI@E$AAAKXZ 000000018002d488 f i _nodert_generated.obj
 0001:0002c494       ?get@?QIAsyncInfo@Foundation@Windows@@Id@?$_AsyncInfoImpl@PE$AAUIAsyncAction@Foundation@Windows@@VAsyncActionCompletedHandler@23@E@details@Concurrency@@WBA@E$AAAIXZ 000000018002d494 f i _nodert_generated.obj
 0001:0002c4a0       ?GetResults@?Q?$IAsyncOperation@E@Foundation@Windows@@_IAsyncActionToAsyncOperationConverter@details@Concurrency@@WBA@E$AAAEXZ 000000018002d4a0 f i _nodert_generated.obj
 0001:0002c4ac       ?__abi_GetRuntimeClassName@?QObject@Platform@@_IAsyncActionToAsyncOperationConverter@details@Concurrency@@WBA@E$AAAJPEAPEAUHSTRING__@@@Z 000000018002d4ac f i _nodert_generated.obj
 0001:0002c4b8       ?__abi_AddRef@?QObject@Platform@@_IAsyncActionToAsyncOperationConverter@details@Concurrency@@WFI@E$AAAKXZ 000000018002d4b8 f i _nodert_generated.obj
 0001:0002c4c4       ?__abi_GetRuntimeClassName@?$AsyncOperationCompletedHandler@PE$AAVString@Platform@@@Foundation@Windows@@W7E$AAAJPEAPEAUHSTRING__@@@Z 000000018002d4c4 f i _nodert_generated.obj
 0001:0002c4d0       ?__abi_GetRuntimeClassName@?$AsyncOperationCompletedHandler@_N@Foundation@Windows@@W7E$AAAJPEAPEAUHSTRING__@@@Z 000000018002d4d0 f i _nodert_generated.obj
 0001:0002c4dc       ?__abi_QueryInterface@?$AsyncOperationCompletedHandler@PE$AAVString@Platform@@@Foundation@Windows@@WBA@E$AAAJAEAVGuid@Platform@@PEAPEAX@Z 000000018002d4dc f i _nodert_generated.obj
 0001:0002c4e8       ?__abi_GetIids@?$EventHandler@PE$AAVObject@Platform@@@Foundation@Windows@@WBA@E$AAAJPEAKPEAPEAVGuid@Platform@@@Z 000000018002d4e8 f i _nodert_generated.obj
 0001:0002c4f4       ?GetWeakReference@?QIWeakReferenceSource@Details@Platform@@_IAsyncActionToAsyncOperationConverter@details@Concurrency@@WFI@E$AAAPE$AAUIWeakReference@23@XZ 000000018002d4f4 f i _nodert_generated.obj
 0001:0002c500       ?__abi_QueryInterface@?QObject@Platform@@_IAsyncActionToAsyncOperationConverter@details@Concurrency@@WBI@E$AAAJAEAVGuid@2@PEAPEAX@Z 000000018002d500 f i _nodert_generated.obj
 0001:0002c50c       ?__abi_GetRuntimeClassName@?$EventHandler@PE$AAVObject@Platform@@@Foundation@Windows@@WBA@E$AAAJPEAPEAUHSTRING__@@@Z 000000018002d50c f i _nodert_generated.obj
 0001:0002c518       ?__abi_Release@?QObject@Platform@@_IAsyncActionToAsyncOperationConverter@details@Concurrency@@WCA@E$AAAKXZ 000000018002d518 f i _nodert_generated.obj
 0001:0002c524       ?__abi_QueryInterface@?$AsyncOperationCompletedHandler@PE$AAVUri@Foundation@Windows@@@Foundation@Windows@@WBA@E$AAAJAEAVGuid@Platform@@PEAPEAX@Z 000000018002d524 f i _nodert_generated.obj
 0001:0002c530       ?__abi_QueryInterface@?QObject@Platform@@_IAsyncActionToAsyncOperationConverter@details@Concurrency@@WFI@E$AAAJAEAVGuid@2@PEAPEAX@Z 000000018002d530 f i _nodert_generated.obj
 0001:0002c53c       ?__abi_Release@?QObject@Platform@@_IAsyncActionToAsyncOperationConverter@details@Concurrency@@WGA@E$AAAKXZ 000000018002d53c f i _nodert_generated.obj
 0001:0002c548       ?__abi_GetIids@?QObject@Platform@@_IAsyncActionToAsyncOperationConverter@details@Concurrency@@WBA@E$AAAJPEAKPEAPEAVGuid@2@@Z 000000018002d548 f i _nodert_generated.obj
 0001:0002c554       ?__abi_GetRuntimeClassName@?$AsyncOperationCompletedHandler@PE$AAVUri@Foundation@Windows@@@Foundation@Windows@@WBA@E$AAAJPEAPEAUHSTRING__@@@Z 000000018002d554 f i _nodert_generated.obj
 0001:0002c560       ?__abi_AddRef@?QObject@Platform@@_IAsyncActionToAsyncOperationConverter@details@Concurrency@@WCA@E$AAAKXZ 000000018002d560 f i _nodert_generated.obj
 0001:0002c56c       ?__abi_GetRuntimeClassName@?QObject@Platform@@_IAsyncActionToAsyncOperationConverter@details@Concurrency@@WBI@E$AAAJPEAPEAUHSTRING__@@@Z 000000018002d56c f i _nodert_generated.obj
 0001:0002c578       ?__abi_QueryInterface@?$AsyncOperationCompletedHandler@_N@Foundation@Windows@@W7E$AAAJAEAVGuid@Platform@@PEAPEAX@Z 000000018002d578 f i _nodert_generated.obj
 0001:0002c584       ?__abi_AddRef@?QObject@Platform@@_IAsyncActionToAsyncOperationConverter@details@Concurrency@@WGA@E$AAAKXZ 000000018002d584 f i _nodert_generated.obj
 0001:0002c590       ?__abi_QueryInterface@AsyncActionCompletedHandler@Foundation@Windows@@W7E$AAAJAEAVGuid@Platform@@PEAPEAX@Z 000000018002d590 f i _nodert_generated.obj
 0001:0002c59c       ?__abi_GetRuntimeClassName@?$AsyncOperationCompletedHandler@PE$AAVString@Platform@@@Foundation@Windows@@WBA@E$AAAJPEAPEAUHSTRING__@@@Z 000000018002d59c f i _nodert_generated.obj
 0001:0002c5a8       ?__abi_GetRuntimeClassName@?$AsyncOperationCompletedHandler@_N@Foundation@Windows@@WBA@E$AAAJPEAPEAUHSTRING__@@@Z 000000018002d5a8 f i _nodert_generated.obj
 0001:0002c5b4       ?__abi_GetTrustLevel@?QObject@Platform@@_IAsyncActionToAsyncOperationConverter@details@Concurrency@@WBI@E$AAAJPEAW4__abi_TrustLevel@@@Z 000000018002d5b4 f i _nodert_generated.obj
 0001:0002c5c0       ?__abi_QueryInterface@?$AsyncOperationCompletedHandler@W4SetAccountPictureResult@UserProfile@System@Windows@@@Foundation@Windows@@W7E$AAAJAEAVGuid@Platform@@PEAPEAX@Z 000000018002d5c0 f i _nodert_generated.obj
 0001:0002c5cc       ?__abi_QueryInterface@?QObject@Platform@@_IAsyncActionToAsyncOperationConverter@details@Concurrency@@WCA@E$AAAJAEAVGuid@2@PEAPEAX@Z 000000018002d5cc f i _nodert_generated.obj
 0001:0002c5d8       ?__abi_Windows_Foundation_IAsyncInfo____abi_get_Status@?QIAsyncInfo@Foundation@Windows@@?$_AsyncInfoImpl@PE$AAUIAsyncAction@Foundation@Windows@@VAsyncActionCompletedHandler@23@E@details@Concurrency@@WBA@E$AAAJPEAW4AsyncStatus@23@@Z 000000018002d5d8 f i _nodert_generated.obj
 0001:0002c5e4       ?__abi_Release@?QObject@Platform@@_IAsyncActionToAsyncOperationConverter@details@Concurrency@@W7E$AAAKXZ 000000018002d5e4 f i _nodert_generated.obj
 0001:0002c5f0       ?__abi_GetRuntimeClassName@?$AsyncOperationCompletedHandler@W4SetAccountPictureResult@UserProfile@System@Windows@@@Foundation@Windows@@W7E$AAAJPEAPEAUHSTRING__@@@Z 000000018002d5f0 f i _nodert_generated.obj
 0001:0002c5fc       ?get@?QIAsyncInfo@Foundation@Windows@@ErrorCode@?$_AsyncInfoImpl@PE$AAUIAsyncAction@Foundation@Windows@@VAsyncActionCompletedHandler@23@E@details@Concurrency@@WBA@E$AAA?AVHResult@23@XZ 000000018002d5fc f i _nodert_generated.obj
 0001:0002c608       ?__abi_GetRuntimeClassName@AsyncActionCompletedHandler@Foundation@Windows@@W7E$AAAJPEAPEAUHSTRING__@@@Z 000000018002d608 f i _nodert_generated.obj
 0001:0002c620       ?WinRtExceptionToJsError@Utils@NodeRT@@YA?AV?$Local@VValue@v8@@@v8@@PE$AAVException@Platform@@@Z 000000018002d620 f   NodeRtUtils.obj
 0001:0002c810       ?ThrowWinRtExceptionInJs@Utils@NodeRT@@YAXPE$AAVException@Platform@@@Z 000000018002d810 f   NodeRtUtils.obj
 0001:0002c850       ?CreateCallbackObjectInDomain@Utils@NodeRT@@YA?AV?$Local@VObject@v8@@@v8@@V?$Local@VFunction@v8@@@4@@Z 000000018002d850 f   NodeRtUtils.obj
 0001:0002cbb0       ?GetObjectInstance@Utils@NodeRT@@YAPE$AAVObject@Platform@@V?$Local@VValue@v8@@@v8@@@Z 000000018002dbb0 f   NodeRtUtils.obj
 0001:0002cc50       ?CaseInsenstiveEquals@Utils@NodeRT@@YA_NPEB_WPEBG@Z 000000018002dc50 f   NodeRtUtils.obj
 0001:0002ccb0       ?RegisterNameSpace@Utils@NodeRT@@YAXPEBDV?$Local@VValue@v8@@@v8@@@Z 000000018002dcb0 f   NodeRtUtils.obj
 0001:0002cf30       ?CreateExternalWinRTObject@Utils@NodeRT@@YA?AV?$Local@VValue@v8@@@v8@@PEBD0PE$AAVObject@Platform@@@Z 000000018002df30 f   NodeRtUtils.obj
 0001:0002d390       ?IsWinRtWrapper@Utils@NodeRT@@YA_NV?$Local@VValue@v8@@@v8@@@Z 000000018002e390 f   NodeRtUtils.obj
 0001:0002d520       ?SetHiddenValue@Utils@NodeRT@@YAXV?$Local@VObject@v8@@@v8@@V?$Local@VString@v8@@@4@V?$Local@VPrimitive@v8@@@4@@Z 000000018002e520 f   NodeRtUtils.obj
 0001:0002d580       ?New@OpaqueWrapper@NodeRT@@CAXAEBV?$FunctionCallbackInfo@VValue@v8@@@Nan@@@Z 000000018002e580 f   OpaqueWrapper.obj
 0001:0002d650       ?Init@OpaqueWrapper@NodeRT@@CAXXZ 000000018002e650 f   OpaqueWrapper.obj
 0001:0002d770       ?CreateOpaqueWrapper@NodeRT@@YA?AV?$Local@VValue@v8@@@v8@@PE$AAVObject@Platform@@@Z 000000018002e770 f   OpaqueWrapper.obj
 0001:0002d914       ?Initialize@Details@Platform@@YAHXZ 000000018002e914 f   vccorlib:init.obj
 0001:0002d968       ??_E?$Module@$00VInProcModule@Details@Platform@@@WRL@Microsoft@@UEAAPEAXI@Z 000000018002e968 f i vccorlib:init.obj
 0001:0002d968       ??_G?$Module@$00VInProcModule@Details@Platform@@@WRL@Microsoft@@UEAAPEAXI@Z 000000018002e968 f i vccorlib:init.obj
 0001:0002d9b4       ??_GInProcModule@Details@Platform@@UEAAPEAXI@Z 000000018002e9b4 f i vccorlib:init.obj
 0001:0002d9b4       ??_EInProcModule@Details@Platform@@UEAAPEAXI@Z 000000018002e9b4 f i vccorlib:init.obj
 0001:0002da14       ?Cleanup@Details@Platform@@YAXXZ 000000018002ea14 f   vccorlib:init.obj
 0001:0002da20       ?Create@?$Module@$00VInProcModule@Details@Platform@@@WRL@Microsoft@@SAAEAVInProcModule@Details@Platform@@XZ 000000018002ea20 f i vccorlib:init.obj
 0001:0002da88       ?GetFirstEntryPointer@ModuleBase@Details@WRL@Microsoft@@UEBAPEAPEBUCreatorMap@234@XZ 000000018002ea88 f i vccorlib:init.obj
 0001:0002da90       ?GetLastEntryPointer@ModuleBase@Details@WRL@Microsoft@@UEBAPEAPEBUCreatorMap@234@XZ 000000018002ea90 f i vccorlib:init.obj
 0001:0002da98       ?GetLock@ModuleBase@Details@WRL@Microsoft@@UEBAPEAU_RTL_SRWLOCK@@XZ 000000018002ea98 f i vccorlib:init.obj
 0001:0002daa0       ?GetMidEntryPointer@ModuleBase@Details@WRL@Microsoft@@UEBAPEAPEBUCreatorMap@234@XZ 000000018002eaa0 f i vccorlib:init.obj
 0001:0002daa8       ?GetObjectCount@ModuleBase@Details@WRL@Microsoft@@UEBAKXZ 000000018002eaa8 f i vccorlib:init.obj
 0001:0002dab0       ?LockExclusive@SRWLock@Wrappers@WRL@Microsoft@@SA?AV?$SyncLockT@USRWLockExclusiveTraits@HandleTraits@Wrappers@WRL@Microsoft@@@Details@234@PEAU_RTL_SRWLOCK@@@Z 000000018002eab0 f i vccorlib:init.obj
 0001:0002dadc       ?TerminateMap@Details@WRL@Microsoft@@YA_NPEAVModuleBase@123@PEB_W_N@Z 000000018002eadc f i vccorlib:init.obj
 0001:0002dc68       ?UnregisterCOMObject@?$Module@$00VInProcModule@Details@Platform@@@WRL@Microsoft@@UEAAJPEB_WPEAKI@Z 000000018002ec68 f i vccorlib:init.obj
 0001:0002dc68       ?UnregisterWinRTObject@?$Module@$00VInProcModule@Details@Platform@@@WRL@Microsoft@@UEAAJPEB_WPEAU<unnamed-type-RO_REGISTRATION_COOKIE>@@@Z 000000018002ec68 f i vccorlib:init.obj
 0001:0002dc68       ?RegisterCOMObject@?$Module@$00VInProcModule@Details@Platform@@@WRL@Microsoft@@UEAAJPEB_WPEAU_GUID@@PEAPEAUIClassFactory@@PEAKI@Z 000000018002ec68 f i vccorlib:init.obj
 0001:0002dc68       ?RegisterWinRTObject@?$Module@$00VInProcModule@Details@Platform@@@WRL@Microsoft@@UEAAJPEB_WPEAPEB_WPEAPEAU<unnamed-type-RO_REGISTRATION_COOKIE>@@I@Z 000000018002ec68 f i vccorlib:init.obj
 0001:0002dc70       ?DecrementObjectCount@?$Module@$00VInProcModule@Details@Platform@@@WRL@Microsoft@@UEAAKXZ 000000018002ec70 f i vccorlib:init.obj
 0001:0002dc70       ?__abi_DecrementObjectCount@InProcModule@Details@Platform@@UEAAKXZ 000000018002ec70 f i vccorlib:init.obj
 0001:0002dc80       ?__abi_IncrementObjectCount@InProcModule@Details@Platform@@UEAAKXZ 000000018002ec80 f i vccorlib:init.obj
 0001:0002dc80       ?IncrementObjectCount@?$Module@$00VInProcModule@Details@Platform@@@WRL@Microsoft@@UEAAKXZ 000000018002ec80 f i vccorlib:init.obj
 0001:0002dc90       ?__getIids@__winRT@@YAJHPEAKPEBU__s_GUID@@PEAPEAVGuid@Platform@@@Z 000000018002ec90 f   vccorlib:compiler.obj
 0001:0002dc98       ?__windowsCreateString@__winRT@@YAJPEB_WHPEAPEAUHSTRING__@@@Z 000000018002ec98 f   vccorlib:compiler.obj
 0001:0002dca0       ?__getActivationFactoryByPCWSTR@__winRT@@YAJPEAXAEAVGuid@Platform@@PEAPEAX@Z 000000018002eca0 f   vccorlib:activation.obj
 0001:0002dca6       ?InitializeData@Details@Platform@@YAJH@Z 000000018002eca6 f   vccorlib:vccorlib140.DLL
 0001:0002dcac       ?UninitializeData@Details@Platform@@YAXH@Z 000000018002ecac f   vccorlib:vccorlib140.DLL
 0001:0002dcb2       ?GetIidsFn@@YAJHPEAKPEBU__s_GUID@@PEAPEAVGuid@Platform@@@Z 000000018002ecb2 f   vccorlib:vccorlib140.DLL
 0001:0002dcb8       ?GetActivationFactoryByPCWSTR@@YAJPEAXAEAVGuid@Platform@@PEAPEAX@Z 000000018002ecb8 f   vccorlib:vccorlib140.DLL
 0001:0002dcd0       __security_check_cookie    000000018002ecd0 f   MSVCRT:_amdsecgs_.obj
 0001:0002de3c       _Init_thread_abort         000000018002ee3c f   MSVCRT:thread_safe_statics.obj
 0001:0002de6c       _Init_thread_footer        000000018002ee6c f   MSVCRT:thread_safe_statics.obj
 0001:0002decc       _Init_thread_header        000000018002eecc f   MSVCRT:thread_safe_statics.obj
 0001:0002df34       _Init_thread_notify        000000018002ef34 f   MSVCRT:thread_safe_statics.obj
 0001:0002df90       _Init_thread_wait          000000018002ef90 f   MSVCRT:thread_safe_statics.obj
 0001:0002e028       ??2@YAPEAX_K@Z             000000018002f028 f   MSVCRT:new_scalar.obj
 0001:0002e064       __scrt_acquire_startup_lock 000000018002f064 f   MSVCRT:utility.obj
 0001:0002e0a0       __scrt_dllmain_after_initialize_c 000000018002f0a0 f   MSVCRT:utility.obj
 0001:0002e0d4       __scrt_dllmain_before_initialize_c 000000018002f0d4 f   MSVCRT:utility.obj
 0001:0002e0ec       __scrt_dllmain_crt_thread_attach 000000018002f0ec f   MSVCRT:utility.obj
 0001:0002e114       __scrt_dllmain_crt_thread_detach 000000018002f114 f   MSVCRT:utility.obj
 0001:0002e12c       __scrt_dllmain_exception_filter 000000018002f12c f   MSVCRT:utility.obj
 0001:0002e190       __scrt_dllmain_uninitialize_c 000000018002f190 f   MSVCRT:utility.obj
 0001:0002e1c0       __scrt_dllmain_uninitialize_critical 000000018002f1c0 f   MSVCRT:utility.obj
 0001:0002e1d4       __scrt_initialize_crt      000000018002f1d4 f   MSVCRT:utility.obj
 0001:0002e220       __scrt_initialize_onexit_tables 000000018002f220 f   MSVCRT:utility.obj
 0001:0002e2ec       __scrt_is_nonwritable_in_current_image 000000018002f2ec f   MSVCRT:utility.obj
 0001:0002e388       __scrt_release_startup_lock 000000018002f388 f   MSVCRT:utility.obj
 0001:0002e3ac       __scrt_uninitialize_crt    000000018002f3ac f   MSVCRT:utility.obj
 0001:0002e3d8       _onexit                    000000018002f3d8 f   MSVCRT:utility.obj
 0001:0002e428       atexit                     000000018002f428 f   MSVCRT:utility.obj
 0001:0002e440       ??3@YAXPEAX@Z              000000018002f440 f   MSVCRT:delete_scalar.obj
 0001:0002e448       ??_V@YAXPEAX@Z             000000018002f448 f   MSVCRT:delete_array.obj
 0001:0002e448       ??3@YAXPEAX_K@Z            000000018002f448 f   MSVCRT:delete_scalar_size.obj
 0001:0002e450       ??_U@YAPEAX_K@Z            000000018002f450 f   MSVCRT:new_array.obj
 0001:0002e458       ??_Etype_info@@UEAAPEAXI@Z 000000018002f458 f i MSVCRT:std_type_info_static.obj
 0001:0002e458       ??_Gtype_info@@UEAAPEAXI@Z 000000018002f458 f i MSVCRT:std_type_info_static.obj
 0001:0002e484       __raise_securityfailure    000000018002f484 f   MSVCRT:gs_report.obj
 0001:0002e4b8       __report_gsfailure         000000018002f4b8 f   MSVCRT:gs_report.obj
 0001:0002e94c       _DllMainCRTStartup         000000018002f94c f   MSVCRT:dll_dllmain.obj
 0001:0002e98c       _guard_check_icall         000000018002f98c f i MSVCRT:checkcfg.obj
 0001:0002e994       __scrt_fastfail            000000018002f994 f   MSVCRT:utility_desktop.obj
 0001:0002eadc       ??0bad_alloc@std@@QEAA@AEBV01@@Z 000000018002fadc f i MSVCRT:throw_bad_alloc.obj
 0001:0002eb1c       ??0bad_alloc@std@@QEAA@XZ  000000018002fb1c f i MSVCRT:throw_bad_alloc.obj
 0001:0002eb3c       ??0bad_array_new_length@std@@QEAA@AEBV01@@Z 000000018002fb3c f i MSVCRT:throw_bad_alloc.obj
 0001:0002eb7c       ??0bad_array_new_length@std@@QEAA@XZ 000000018002fb7c f i MSVCRT:throw_bad_alloc.obj
 0001:0002eb9c       ??0exception@std@@QEAA@AEBV01@@Z 000000018002fb9c f i MSVCRT:throw_bad_alloc.obj
 0001:0002ebd4       ??1bad_array_new_length@std@@UEAA@XZ 000000018002fbd4 f i MSVCRT:throw_bad_alloc.obj
 0001:0002ebd4       ??1bad_alloc@std@@UEAA@XZ  000000018002fbd4 f i MSVCRT:throw_bad_alloc.obj
 0001:0002ebe8       ??_Ebad_alloc@std@@UEAAPEAXI@Z 000000018002fbe8 f i MSVCRT:throw_bad_alloc.obj
 0001:0002ebe8       ??_Ebad_array_new_length@std@@UEAAPEAXI@Z 000000018002fbe8 f i MSVCRT:throw_bad_alloc.obj
 0001:0002ebe8       ??_Eexception@std@@UEAAPEAXI@Z 000000018002fbe8 f i MSVCRT:throw_bad_alloc.obj
 0001:0002ebe8       ??_Gbad_array_new_length@std@@UEAAPEAXI@Z 000000018002fbe8 f i MSVCRT:throw_bad_alloc.obj
 0001:0002ebe8       ??_Gbad_alloc@std@@UEAAPEAXI@Z 000000018002fbe8 f i MSVCRT:throw_bad_alloc.obj
 0001:0002ebe8       ??_Gexception@std@@UEAAPEAXI@Z 000000018002fbe8 f i MSVCRT:throw_bad_alloc.obj
 0001:0002ec2c       ?__scrt_throw_std_bad_alloc@@YAXXZ 000000018002fc2c f   MSVCRT:throw_bad_alloc.obj
 0001:0002ec4c       ?__scrt_throw_std_bad_array_new_length@@YAXXZ 000000018002fc4c f   MSVCRT:throw_bad_alloc.obj
 0001:0002ec6c       ?what@exception@std@@UEBAPEBDXZ 000000018002fc6c f i MSVCRT:throw_bad_alloc.obj
 0001:0002ec80       __isa_available_init       000000018002fc80 f   MSVCRT:_cpu_disp_.obj
 0001:0002ee48       _get_startup_argv_mode     000000018002fe48 f   MSVCRT:argv_mode.obj
 0001:0002ee50       __scrt_is_ucrt_dll_in_use  000000018002fe50 f   MSVCRT:ucrt_detection.obj
 0001:0002ee5c       __security_init_cookie     000000018002fe5c f   MSVCRT:gs_support.obj
 0001:0002ef08       DllMain                    000000018002ff08 f   MSVCRT:dll_dllmain_stub.obj
 0001:0002ef2c       ?__scrt_initialize_type_info@@YAXXZ 000000018002ff2c f   MSVCRT:tncleanup.obj
 0001:0002ef3c       ?__scrt_uninitialize_type_info@@YAXXZ 000000018002ff3c f   MSVCRT:tncleanup.obj
 0001:0002ef48       __local_stdio_printf_options 000000018002ff48 f i MSVCRT:default_local_stdio_options.obj
 0001:0002ef50       __local_stdio_scanf_options 000000018002ff50 f i MSVCRT:default_local_stdio_options.obj
 0001:0002ef58       __scrt_initialize_default_local_stdio_options 000000018002ff58 f   MSVCRT:default_local_stdio_options.obj
 0001:0002ef74       __scrt_get_dyn_tls_init_callback 000000018002ff74 f   MSVCRT:dyn_tls_init.obj
 0001:0002ef7c       _RTC_Initialize            000000018002ff7c f   MSVCRT:_initsect_.obj
 0001:0002efc8       _RTC_Terminate             000000018002ffc8 f   MSVCRT:_initsect_.obj
 0001:0002f020       _purecall                  0000000180030020 f   vcruntime:VCRUNTIME140.dll
 0001:0002f026       __std_terminate            0000000180030026 f   vcruntime:VCRUNTIME140.dll
 0001:0002f02c       memset                     000000018003002c f   vcruntime:VCRUNTIME140.dll
 0001:0002f02c       __Platform_memset          000000018003002c f   vcruntime:VCRUNTIME140.dll
 0001:0002f032       __vcrt_InitializeCriticalSectionEx 0000000180030032 f   vcruntime:VCRUNTIME140.dll
 0001:0002f038       __C_specific_handler       0000000180030038 f   vcruntime:VCRUNTIME140.dll
 0001:0002f03e       __std_exception_copy       000000018003003e f   vcruntime:VCRUNTIME140.dll
 0001:0002f044       __std_exception_destroy    0000000180030044 f   vcruntime:VCRUNTIME140.dll
 0001:0002f04a       _CxxThrowException         000000018003004a f   vcruntime:VCRUNTIME140.dll
 0001:0002f050       __std_type_info_destroy_list 0000000180030050 f   vcruntime:VCRUNTIME140.dll
 0001:0002f056       __Platform_wcslen          0000000180030056 f   ucrt:api-ms-win-crt-string-l1-1-0.dll
 0001:0002f056       wcslen                     0000000180030056 f   ucrt:api-ms-win-crt-string-l1-1-0.dll
 0001:0002f05c       _callnewh                  000000018003005c f   ucrt:api-ms-win-crt-heap-l1-1-0.dll
 0001:0002f062       malloc                     0000000180030062 f   ucrt:api-ms-win-crt-heap-l1-1-0.dll
 0001:0002f068       _seh_filter_dll            0000000180030068 f   ucrt:api-ms-win-crt-runtime-l1-1-0.dll
 0001:0002f06e       _configure_narrow_argv     000000018003006e f   ucrt:api-ms-win-crt-runtime-l1-1-0.dll
 0001:0002f074       _initialize_narrow_environment 0000000180030074 f   ucrt:api-ms-win-crt-runtime-l1-1-0.dll
 0001:0002f07a       _initialize_onexit_table   000000018003007a f   ucrt:api-ms-win-crt-runtime-l1-1-0.dll
 0001:0002f080       _register_onexit_function  0000000180030080 f   ucrt:api-ms-win-crt-runtime-l1-1-0.dll
 0001:0002f086       _execute_onexit_table      0000000180030086 f   ucrt:api-ms-win-crt-runtime-l1-1-0.dll
 0001:0002f08c       _crt_atexit                000000018003008c f   ucrt:api-ms-win-crt-runtime-l1-1-0.dll
 0001:0002f092       _cexit                     0000000180030092 f   ucrt:api-ms-win-crt-runtime-l1-1-0.dll
 0001:0002f098       free                       0000000180030098 f   ucrt:api-ms-win-crt-heap-l1-1-0.dll
 0001:0002f09e       _initterm                  000000018003009e f   ucrt:api-ms-win-crt-runtime-l1-1-0.dll
 0001:0002f0a4       _initterm_e                00000001800300a4 f   ucrt:api-ms-win-crt-runtime-l1-1-0.dll
 0001:0002f0aa       IsProcessorFeaturePresent  00000001800300aa f   kernel32:KERNEL32.dll
 0001:0002f0b0       CoCreateFreeThreadedMarshaler 00000001800300b0 f   ole32:ole32.dll
 0001:0002f0b0       __Platform_CoCreateFreeThreadedMarshaler 00000001800300b0 f   ole32:ole32.dll
 0001:0002f0b6       WindowsCreateString        00000001800300b6 f   runtimeobject:api-ms-win-core-winrt-string-l1-1-0.dll
 0001:0002f0b6       __Platform_WindowsCreateString 00000001800300b6 f   runtimeobject:api-ms-win-core-winrt-string-l1-1-0.dll
 0001:0002f0bc       __Platform_WindowsDeleteString 00000001800300bc f   runtimeobject:api-ms-win-core-winrt-string-l1-1-0.dll
 0001:0002f0bc       WindowsDeleteString        00000001800300bc f   runtimeobject:api-ms-win-core-winrt-string-l1-1-0.dll
 0001:0002f0c2       __Platform_WindowsCompareStringOrdinal 00000001800300c2 f   runtimeobject:api-ms-win-core-winrt-string-l1-1-0.dll
 0001:0002f0c2       WindowsCompareStringOrdinal 00000001800300c2 f   runtimeobject:api-ms-win-core-winrt-string-l1-1-0.dll
 0001:0002f0c8       WindowsGetStringRawBuffer  00000001800300c8 f   runtimeobject:api-ms-win-core-winrt-string-l1-1-0.dll
 0001:0002f0c8       __Platform_WindowsGetStringRawBuffer 00000001800300c8 f   runtimeobject:api-ms-win-core-winrt-string-l1-1-0.dll
 0001:0002f0ce       WindowsDuplicateString     00000001800300ce f   runtimeobject:api-ms-win-core-winrt-string-l1-1-0.dll
 0001:0002f0ce       __Platform_WindowsDuplicateString 00000001800300ce f   runtimeobject:api-ms-win-core-winrt-string-l1-1-0.dll
 0001:0002f0d4       __Platform_WindowsGetStringLen 00000001800300d4 f   runtimeobject:api-ms-win-core-winrt-string-l1-1-0.dll
 0001:0002f0d4       WindowsGetStringLen        00000001800300d4 f   runtimeobject:api-ms-win-core-winrt-string-l1-1-0.dll
 0001:0002f0dc       __acrt_thread_attach       00000001800300dc f   MSVCRT:ucrt_stubs.obj
 0001:0002f0dc       __acrt_thread_detach       00000001800300dc f   MSVCRT:ucrt_stubs.obj
 0001:0002f0dc       __vcrt_uninitialize_critical 00000001800300dc f   MSVCRT:ucrt_stubs.obj
 0001:0002f0dc       __vcrt_uninitialize        00000001800300dc f   MSVCRT:ucrt_stubs.obj
 0001:0002f0dc       __scrt_stub_for_acrt_thread_attach 00000001800300dc f   MSVCRT:ucrt_stubs.obj
 0001:0002f0dc       __scrt_stub_for_acrt_uninitialize_critical 00000001800300dc f   MSVCRT:ucrt_stubs.obj
 0001:0002f0dc       __scrt_stub_for_acrt_initialize 00000001800300dc f   MSVCRT:ucrt_stubs.obj
 0001:0002f0dc       __vcrt_thread_attach       00000001800300dc f   MSVCRT:ucrt_stubs.obj
 0001:0002f0dc       __acrt_uninitialize_critical 00000001800300dc f   MSVCRT:ucrt_stubs.obj
 0001:0002f0dc       __scrt_stub_for_acrt_uninitialize 00000001800300dc f   MSVCRT:ucrt_stubs.obj
 0001:0002f0dc       __acrt_initialize          00000001800300dc f   MSVCRT:ucrt_stubs.obj
 0001:0002f0dc       __vcrt_thread_detach       00000001800300dc f   MSVCRT:ucrt_stubs.obj
 0001:0002f0dc       __acrt_uninitialize        00000001800300dc f   MSVCRT:ucrt_stubs.obj
 0001:0002f0dc       __vcrt_initialize          00000001800300dc f   MSVCRT:ucrt_stubs.obj
 0001:0002f0dc       __scrt_stub_for_acrt_thread_detach 00000001800300dc f   MSVCRT:ucrt_stubs.obj
 0001:0002f0e0       __GSHandlerCheck           00000001800300e0 f   MSVCRT:_gshandler_.obj
 0001:0002f100       __GSHandlerCheckCommon     0000000180030100 f   MSVCRT:_gshandler_.obj
 0001:0002f15c       __GSHandlerCheck_EH        000000018003015c f   MSVCRT:gshandlereh.obj
 0001:0002f1dc       __CxxFrameHandler3         00000001800301dc f   vcruntime:VCRUNTIME140.dll
 0001:0002f200       _guard_dispatch_icall_nop  0000000180030200 f   MSVCRT:_guard_dispatch_.obj
 0001:00033cd0       ??__F_S_scheduler@?1??_GetStaticAmbientSchedulerRef@details@Concurrency@@YAAEAV?$shared_ptr@Uscheduler_interface@Concurrency@@@std@@XZ@YAXXZ 0000000180034cd0 f i _nodert_generated.obj
 0001:00033e94       ??__Fmodule@?1??Create@?$Module@$00VInProcModule@Details@Platform@@@WRL@Microsoft@@SAAEAVInProcModule@Details@Platform@@XZ@YAXXZ 0000000180034e94 f i vccorlib:init.obj
 0002:00000000       __imp_Thread32Next         0000000180035000     kernel32:KERNEL32.dll
 0002:00000008       __imp_Thread32First        0000000180035008     kernel32:KERNEL32.dll
 0002:00000010       __imp_CreateToolhelp32Snapshot 0000000180035010     kernel32:KERNEL32.dll
 0002:00000018       __imp_GetLastError         0000000180035018     kernel32:KERNEL32.dll
 0002:00000020       __imp_CloseHandle          0000000180035020     kernel32:KERNEL32.dll
 0002:00000028       __imp_GetCurrentProcessId  0000000180035028     kernel32:KERNEL32.dll
 0002:00000030       __imp_InitializeSListHead  0000000180035030     kernel32:KERNEL32.dll
 0002:00000038       __imp_DisableThreadLibraryCalls 0000000180035038     kernel32:KERNEL32.dll
 0002:00000040       __imp_GetSystemTimeAsFileTime 0000000180035040     kernel32:KERNEL32.dll
 0002:00000048       __imp_GetCurrentThreadId   0000000180035048     kernel32:KERNEL32.dll
 0002:00000050       __imp_QueryPerformanceCounter 0000000180035050     kernel32:KERNEL32.dll
 0002:00000058       __imp_IsDebuggerPresent    0000000180035058     kernel32:KERNEL32.dll
 0002:00000060       __imp_IsProcessorFeaturePresent 0000000180035060     kernel32:KERNEL32.dll
 0002:00000068       __imp_TerminateProcess     0000000180035068     kernel32:KERNEL32.dll
 0002:00000070       __imp_GetCurrentProcess    0000000180035070     kernel32:KERNEL32.dll
 0002:00000078       __imp_SetUnhandledExceptionFilter 0000000180035078     kernel32:KERNEL32.dll
 0002:00000080       __imp_UnhandledExceptionFilter 0000000180035080     kernel32:KERNEL32.dll
 0002:00000088       __imp_RtlVirtualUnwind     0000000180035088     kernel32:KERNEL32.dll
 0002:00000090       __imp_RtlLookupFunctionEntry 0000000180035090     kernel32:KERNEL32.dll
 0002:00000098       __imp_RtlCaptureContext    0000000180035098     kernel32:KERNEL32.dll
 0002:000000a0       __imp_GetModuleHandleW     00000001800350a0     kernel32:KERNEL32.dll
 0002:000000a8       __imp_CreateEventW         00000001800350a8     kernel32:KERNEL32.dll
 0002:000000b0       __imp_WaitForSingleObjectEx 00000001800350b0     kernel32:KERNEL32.dll
 0002:000000b8       __imp_ResetEvent           00000001800350b8     kernel32:KERNEL32.dll
 0002:000000c0       __imp_SetEvent             00000001800350c0     kernel32:KERNEL32.dll
 0002:000000c8       __imp_DeleteCriticalSection 00000001800350c8     kernel32:KERNEL32.dll
 0002:000000d0       __imp_LeaveCriticalSection 00000001800350d0     kernel32:KERNEL32.dll
 0002:000000d8       __imp_EnterCriticalSection 00000001800350d8     kernel32:KERNEL32.dll
 0002:000000e0       __imp_GetProcAddress       00000001800350e0     kernel32:KERNEL32.dll
 0002:000000e8       __imp_AcquireSRWLockExclusive 00000001800350e8     kernel32:KERNEL32.dll
 0002:000000f0       __imp_ReleaseSRWLockExclusive 00000001800350f0     kernel32:KERNEL32.dll
 0002:000000f8       __imp_DecodePointer        00000001800350f8     kernel32:KERNEL32.dll
 0002:00000100       \177KERNEL32_NULL_THUNK_DATA 0000000180035100     kernel32:KERNEL32.dll
 0002:00000108       __imp_?_ReportUnobservedException@details@Concurrency@@YAXXZ 0000000180035108     msvcprt:MSVCP140.dll
 0002:00000110       __imp_?_Schedule_chore@details@Concurrency@@YAHPEAU_Threadpool_chore@12@@Z 0000000180035110     msvcprt:MSVCP140.dll
 0002:00000118       __imp_?_IsNonBlockingThread@_Task_impl_base@details@Concurrency@@SA_NXZ 0000000180035118     msvcprt:MSVCP140.dll
 0002:00000120       __imp_?_LogWorkItemCompleted@_TaskEventLogger@details@Concurrency@@QEAAXXZ 0000000180035120     msvcprt:MSVCP140.dll
 0002:00000128       __imp_?_LogWorkItemStarted@_TaskEventLogger@details@Concurrency@@QEAAXXZ 0000000180035128     msvcprt:MSVCP140.dll
 0002:00000130       __imp_?_LogTaskExecutionCompleted@_TaskEventLogger@details@Concurrency@@QEAAXXZ 0000000180035130     msvcprt:MSVCP140.dll
 0002:00000138       __imp_?_LogTaskCompleted@_TaskEventLogger@details@Concurrency@@QEAAXXZ 0000000180035138     msvcprt:MSVCP140.dll
 0002:00000140       __imp_?GetCurrentThreadId@platform@details@Concurrency@@YAJXZ 0000000180035140     msvcprt:MSVCP140.dll
 0002:00000148       __imp_?_LogCancelTask@_TaskEventLogger@details@Concurrency@@QEAAXXZ 0000000180035148     msvcprt:MSVCP140.dll
 0002:00000150       __imp_?_LogScheduleTask@_TaskEventLogger@details@Concurrency@@QEAAX_N@Z 0000000180035150     msvcprt:MSVCP140.dll
 0002:00000158       __imp_?_Release_chore@details@Concurrency@@YAXPEAU_Threadpool_chore@12@@Z 0000000180035158     msvcprt:MSVCP140.dll
 0002:00000160       __imp_?ReportUnhandledError@_ExceptionHolder@details@Concurrency@@AEAAXXZ 0000000180035160     msvcprt:MSVCP140.dll
 0002:00000168       __imp__Cnd_destroy_in_situ 0000000180035168     msvcprt:MSVCP140.dll
 0002:00000170       __imp__Cnd_broadcast       0000000180035170     msvcprt:MSVCP140.dll
 0002:00000178       __imp__Mtx_unlock          0000000180035178     msvcprt:MSVCP140.dll
 0002:00000180       __imp__Cnd_wait            0000000180035180     msvcprt:MSVCP140.dll
 0002:00000188       __imp__Mtx_init_in_situ    0000000180035188     msvcprt:MSVCP140.dll
 0002:00000190       __imp_?__ExceptionPtrRethrow@@YAXPEBX@Z 0000000180035190     msvcprt:MSVCP140.dll
 0002:00000198       __imp_?__ExceptionPtrCurrentException@@YAXPEAX@Z 0000000180035198     msvcprt:MSVCP140.dll
 0002:000001a0       __imp__Mtx_lock            00000001800351a0     msvcprt:MSVCP140.dll
 0002:000001a8       __imp_?__ExceptionPtrDestroy@@YAXPEAX@Z 00000001800351a8     msvcprt:MSVCP140.dll
 0002:000001b0       __imp__Mtx_destroy_in_situ 00000001800351b0     msvcprt:MSVCP140.dll
 0002:000001b8       __imp_?_Xlength_error@std@@YAXPEBD@Z 00000001800351b8     msvcprt:MSVCP140.dll
 0002:000001c0       __imp_?_Throw_C_error@std@@YAXH@Z 00000001800351c0     msvcprt:MSVCP140.dll
 0002:000001c8       __imp_?_Raise_handler@std@@3P6AXAEBVexception@stdext@@@ZEA 00000001800351c8     msvcprt:MSVCP140.dll
 0002:000001d0       __imp_?_Xbad_function_call@std@@YAXXZ 00000001800351d0     msvcprt:MSVCP140.dll
 0002:000001d8       __imp_?_Xbad_alloc@std@@YAXXZ 00000001800351d8     msvcprt:MSVCP140.dll
 0002:000001e0       __imp_?__ExceptionPtrCopy@@YAXPEAXPEBX@Z 00000001800351e0     msvcprt:MSVCP140.dll
 0002:000001e8       __imp_?__ExceptionPtrCopyException@@YAXPEAXPEBX1@Z 00000001800351e8     msvcprt:MSVCP140.dll
 0002:000001f0       __imp__Cnd_init_in_situ    00000001800351f0     msvcprt:MSVCP140.dll
 0002:000001f8       __imp_?__ExceptionPtrCreate@@YAXPEAX@Z 00000001800351f8     msvcprt:MSVCP140.dll
 0002:00000200       __imp_??0task_continuation_context@Concurrency@@AEAA@XZ 0000000180035200     msvcprt:MSVCP140.dll
 0002:00000208       __imp_?_CallInContext@_ContextCallback@details@Concurrency@@QEBAXV?$function@$$A6AXXZ@std@@_N@Z 0000000180035208     msvcprt:MSVCP140.dll
 0002:00000210       __imp_?_Reset@_ContextCallback@details@Concurrency@@AEAAXXZ 0000000180035210     msvcprt:MSVCP140.dll
 0002:00000218       __imp_?_Assign@_ContextCallback@details@Concurrency@@AEAAXPEAX@Z 0000000180035218     msvcprt:MSVCP140.dll
 0002:00000220       __imp_?_IsCurrentOriginSTA@_ContextCallback@details@Concurrency@@CA_NXZ 0000000180035220     msvcprt:MSVCP140.dll
 0002:00000228       __imp_?_Capture@_ContextCallback@details@Concurrency@@AEAAXXZ 0000000180035228     msvcprt:MSVCP140.dll
 0002:00000230       \177MSVCP140_NULL_THUNK_DATA 0000000180035230     msvcprt:MSVCP140.dll
 0002:00000238       __imp_memmove              0000000180035238     vcruntime:VCRUNTIME140.dll
 0002:00000240       __imp___std_type_info_compare 0000000180035240     vcruntime:VCRUNTIME140.dll
 0002:00000248       __imp__purecall            0000000180035248     vcruntime:VCRUNTIME140.dll
 0002:00000250       __imp___std_terminate      0000000180035250     vcruntime:VCRUNTIME140.dll
 0002:00000258       __imp___vcrt_InitializeCriticalSectionEx 0000000180035258     vcruntime:VCRUNTIME140.dll
 0002:00000260       __imp___C_specific_handler 0000000180035260     vcruntime:VCRUNTIME140.dll
 0002:00000268       __imp___std_exception_copy 0000000180035268     vcruntime:VCRUNTIME140.dll
 0002:00000270       __imp___std_exception_destroy 0000000180035270     vcruntime:VCRUNTIME140.dll
 0002:00000278       __imp__CxxThrowException   0000000180035278     vcruntime:VCRUNTIME140.dll
 0002:00000280       __imp___std_type_info_destroy_list 0000000180035280     vcruntime:VCRUNTIME140.dll
 0002:00000288       __imp_memset               0000000180035288     vcruntime:VCRUNTIME140.dll
 0002:00000290       __imp___CxxFrameHandler3   0000000180035290     vcruntime:VCRUNTIME140.dll
 0002:00000298       \177VCRUNTIME140_NULL_THUNK_DATA 0000000180035298     vcruntime:VCRUNTIME140.dll
 0002:000002a0       __imp_WindowsDuplicateString 00000001800352a0     runtimeobject:api-ms-win-core-winrt-string-l1-1-0.dll
 0002:000002a8       __imp_WindowsDeleteString  00000001800352a8     runtimeobject:api-ms-win-core-winrt-string-l1-1-0.dll
 0002:000002b0       __imp_WindowsCreateString  00000001800352b0     runtimeobject:api-ms-win-core-winrt-string-l1-1-0.dll
 0002:000002b8       __imp_WindowsCompareStringOrdinal 00000001800352b8     runtimeobject:api-ms-win-core-winrt-string-l1-1-0.dll
 0002:000002c0       __imp_WindowsGetStringRawBuffer 00000001800352c0     runtimeobject:api-ms-win-core-winrt-string-l1-1-0.dll
 0002:000002c8       __imp_WindowsGetStringLen  00000001800352c8     runtimeobject:api-ms-win-core-winrt-string-l1-1-0.dll
 0002:000002d0       \177api-ms-win-core-winrt-string-l1-1-0_NULL_THUNK_DATA 00000001800352d0     runtimeobject:api-ms-win-core-winrt-string-l1-1-0.dll
 0002:000002d8       __imp_malloc               00000001800352d8     ucrt:api-ms-win-crt-heap-l1-1-0.dll
 0002:000002e0       __imp_free                 00000001800352e0     ucrt:api-ms-win-crt-heap-l1-1-0.dll
 0002:000002e8       __imp__callnewh            00000001800352e8     ucrt:api-ms-win-crt-heap-l1-1-0.dll
 0002:000002f0       \177api-ms-win-crt-heap-l1-1-0_NULL_THUNK_DATA 00000001800352f0     ucrt:api-ms-win-crt-heap-l1-1-0.dll
 0002:000002f8       __imp__initterm            00000001800352f8     ucrt:api-ms-win-crt-runtime-l1-1-0.dll
 0002:00000300       __imp__initterm_e          0000000180035300     ucrt:api-ms-win-crt-runtime-l1-1-0.dll
 0002:00000308       __imp__invoke_watson       0000000180035308     ucrt:api-ms-win-crt-runtime-l1-1-0.dll
 0002:00000310       __imp__wassert             0000000180035310     ucrt:api-ms-win-crt-runtime-l1-1-0.dll
 0002:00000318       __imp__seh_filter_dll      0000000180035318     ucrt:api-ms-win-crt-runtime-l1-1-0.dll
 0002:00000320       __imp__configure_narrow_argv 0000000180035320     ucrt:api-ms-win-crt-runtime-l1-1-0.dll
 0002:00000328       __imp__initialize_narrow_environment 0000000180035328     ucrt:api-ms-win-crt-runtime-l1-1-0.dll
 0002:00000330       __imp__initialize_onexit_table 0000000180035330     ucrt:api-ms-win-crt-runtime-l1-1-0.dll
 0002:00000338       __imp__register_onexit_function 0000000180035338     ucrt:api-ms-win-crt-runtime-l1-1-0.dll
 0002:00000340       __imp__execute_onexit_table 0000000180035340     ucrt:api-ms-win-crt-runtime-l1-1-0.dll
 0002:00000348       __imp__crt_atexit          0000000180035348     ucrt:api-ms-win-crt-runtime-l1-1-0.dll
 0002:00000350       __imp__invalid_parameter_noinfo_noreturn 0000000180035350     ucrt:api-ms-win-crt-runtime-l1-1-0.dll
 0002:00000358       __imp__cexit               0000000180035358     ucrt:api-ms-win-crt-runtime-l1-1-0.dll
 0002:00000360       \177api-ms-win-crt-runtime-l1-1-0_NULL_THUNK_DATA 0000000180035360     ucrt:api-ms-win-crt-runtime-l1-1-0.dll
 0002:00000368       __imp_wcslen               0000000180035368     ucrt:api-ms-win-crt-string-l1-1-0.dll
 0002:00000370       __imp__wcsnicmp            0000000180035370     ucrt:api-ms-win-crt-string-l1-1-0.dll
 0002:00000378       \177api-ms-win-crt-string-l1-1-0_NULL_THUNK_DATA 0000000180035378     ucrt:api-ms-win-crt-string-l1-1-0.dll
 0002:00000380       __imp_?NewFromTwoByte@String@v8@@SA?AV?$MaybeLocal@VString@v8@@@2@PEAVIsolate@2@PEBGW4NewStringType@2@H@Z 0000000180035380     iojs:node.dll
 0002:00000388       __imp_?IsTrue@Value@v8@@QEBA_NXZ 0000000180035388     iojs:node.dll
 0002:00000390       __imp_?Global@Context@v8@@QEAA?AV?$Local@VObject@v8@@@2@XZ 0000000180035390     iojs:node.dll
 0002:00000398       __imp_?Value@External@v8@@QEBAPEAXXZ 0000000180035398     iojs:node.dll
 0002:000003a0       __imp_?New@External@v8@@SA?AV?$Local@VExternal@v8@@@2@PEAVIsolate@2@PEAX@Z 00000001800353a0     iojs:node.dll
 0002:000003a8       __imp_?NewFromUnsigned@Integer@v8@@SA?AV?$Local@VInteger@v8@@@2@PEAVIsolate@2@I@Z 00000001800353a8     iojs:node.dll
 0002:000003b0       __imp_?New@Integer@v8@@SA?AV?$Local@VInteger@v8@@@2@PEAVIsolate@2@H@Z 00000001800353b0     iojs:node.dll
 0002:000003b8       __imp_?New@Signature@v8@@SA?AV?$Local@VSignature@v8@@@2@PEAVIsolate@2@V?$Local@VFunctionTemplate@v8@@@2@@Z 00000001800353b8     iojs:node.dll
 0002:000003c0       __imp_?ThrowException@Isolate@v8@@QEAA?AV?$Local@VValue@v8@@@2@V32@@Z 00000001800353c0     iojs:node.dll
 0002:000003c8       __imp_?GetCurrentContext@Isolate@v8@@QEAA?AV?$Local@VContext@v8@@@2@XZ 00000001800353c8     iojs:node.dll
 0002:000003d0       __imp_?GetCurrent@Isolate@v8@@SAPEAV12@XZ 00000001800353d0     iojs:node.dll
 0002:000003d8       __imp_?CreateHandle@HandleScope@v8@@KAPEAPEAVObject@internal@2@PEAVIsolate@42@PEAV342@@Z 00000001800353d8     iojs:node.dll
 0002:000003e0       __imp_uv_async_init        00000001800353e0     iojs:node.dll
 0002:000003e8       __imp_?CreateHandle@HandleScope@v8@@CAPEAPEAVObject@internal@2@PEAVHeapObject@42@PEAV342@@Z 00000001800353e8     iojs:node.dll
 0002:000003f0       __imp_??1HandleScope@v8@@QEAA@XZ 00000001800353f0     iojs:node.dll
 0002:000003f8       __imp_??0HandleScope@v8@@QEAA@PEAVIsolate@1@@Z 00000001800353f8     iojs:node.dll
 0002:00000400       __imp_?Set@Template@v8@@QEAAXV?$Local@VName@v8@@@2@V?$Local@VData@v8@@@2@W4PropertyAttribute@2@@Z 0000000180035400     iojs:node.dll
 0002:00000408       __imp_?Error@Exception@v8@@SA?AV?$Local@VValue@v8@@@2@V?$Local@VString@v8@@@2@@Z 0000000180035408     iojs:node.dll
 0002:00000410       __imp_?HasInstance@FunctionTemplate@v8@@QEAA_NV?$Local@VValue@v8@@@2@@Z 0000000180035410     iojs:node.dll
 0002:00000418       __imp_?SetClassName@FunctionTemplate@v8@@QEAAXV?$Local@VString@v8@@@2@@Z 0000000180035418     iojs:node.dll
 0002:00000420       __imp_?PrototypeTemplate@FunctionTemplate@v8@@QEAA?AV?$Local@VObjectTemplate@v8@@@2@XZ 0000000180035420     iojs:node.dll
 0002:00000428       __imp_?InstanceTemplate@FunctionTemplate@v8@@QEAA?AV?$Local@VObjectTemplate@v8@@@2@XZ 0000000180035428     iojs:node.dll
 0002:00000430       __imp_?GetFunction@FunctionTemplate@v8@@QEAA?AV?$MaybeLocal@VFunction@v8@@@2@V?$Local@VContext@v8@@@2@@Z 0000000180035430     iojs:node.dll
 0002:00000438       __imp_?New@FunctionTemplate@v8@@SA?AV?$Local@VFunctionTemplate@v8@@@2@PEAVIsolate@2@P6AXAEBV?$FunctionCallbackInfo@VValue@v8@@@2@@ZV?$Local@VValue@v8@@@2@V?$Local@VSignature@v8@@@2@HW4ConstructorBehavior@2@@Z 0000000180035438     iojs:node.dll
 0002:00000440       __imp_??1EscapableHandleScope@v8@@QEAA@XZ 0000000180035440     iojs:node.dll
 0002:00000448       __imp_?MakeCallback@node@@YA?AV?$Local@VValue@v8@@@v8@@PEAVIsolate@3@V?$Local@VObject@v8@@@3@V?$Local@VString@v8@@@3@HPEAV23@@Z 0000000180035448     iojs:node.dll
 0002:00000450       __imp_node_module_register 0000000180035450     iojs:node.dll
 0002:00000458       __imp_uv_close             0000000180035458     iojs:node.dll
 0002:00000460       __imp_?New@ObjectTemplate@v8@@SA?AV?$Local@VObjectTemplate@v8@@@2@PEAVIsolate@2@V?$Local@VFunctionTemplate@v8@@@2@@Z 0000000180035460     iojs:node.dll
 0002:00000468       __imp_?NewInstance@ObjectTemplate@v8@@QEAA?AV?$MaybeLocal@VObject@v8@@@2@V?$Local@VContext@v8@@@2@@Z 0000000180035468     iojs:node.dll
 0002:00000470       __imp_?SetAccessor@ObjectTemplate@v8@@QEAAXV?$Local@VName@v8@@@2@P6AX0AEBV?$PropertyCallbackInfo@VValue@v8@@@2@@ZP6AX0V?$Local@VValue@v8@@@2@AEBV?$PropertyCallbackInfo@X@2@@Z3W4AccessControl@2@W4PropertyAttribute@2@V?$Local@VAccessorSignature@v8@@@2@@Z 0000000180035470     iojs:node.dll
 0002:00000478       __imp_?SetHandler@ObjectTemplate@v8@@QEAAXAEBUIndexedPropertyHandlerConfiguration@2@@Z 0000000180035478     iojs:node.dll
 0002:00000480       __imp_?SetInternalFieldCount@ObjectTemplate@v8@@QEAAXH@Z 0000000180035480     iojs:node.dll
 0002:00000488       __imp_?Has@Object@v8@@QEAA?AV?$Maybe@_N@2@V?$Local@VContext@v8@@@2@V?$Local@VValue@v8@@@2@@Z 0000000180035488     iojs:node.dll
 0002:00000490       __imp_?Set@Object@v8@@QEAA?AV?$Maybe@_N@2@V?$Local@VContext@v8@@@2@V?$Local@VValue@v8@@@2@1@Z 0000000180035490     iojs:node.dll
 0002:00000498       __imp_?Set@Object@v8@@QEAA_NV?$Local@VValue@v8@@@2@0@Z 0000000180035498     iojs:node.dll
 0002:000004a0       __imp_?Get@Object@v8@@QEAA?AV?$MaybeLocal@VValue@v8@@@2@V?$Local@VContext@v8@@@2@V?$Local@VValue@v8@@@2@@Z 00000001800354a0     iojs:node.dll
 0002:000004a8       __imp_?Get@Object@v8@@QEAA?AV?$Local@VValue@v8@@@2@V32@@Z 00000001800354a8     iojs:node.dll
 0002:000004b0       __imp_?Delete@Object@v8@@QEAA?AV?$Maybe@_N@2@V?$Local@VContext@v8@@@2@V?$Local@VValue@v8@@@2@@Z 00000001800354b0     iojs:node.dll
 0002:000004b8       __imp_?SetAccessor@Object@v8@@QEAA?AV?$Maybe@_N@2@V?$Local@VContext@v8@@@2@V?$Local@VName@v8@@@2@P6AX1AEBV?$PropertyCallbackInfo@VValue@v8@@@2@@ZP6AX1V?$Local@VValue@v8@@@2@AEBV?$PropertyCallbackInfo@X@2@@ZV?$MaybeLocal@VValue@v8@@@2@W4AccessControl@2@W4PropertyAttribute@2@@Z 00000001800354b8     iojs:node.dll
 0002:000004c0       __imp_?SetPrototype@Object@v8@@QEAA?AV?$Maybe@_N@2@V?$Local@VContext@v8@@@2@V?$Local@VValue@v8@@@2@@Z 00000001800354c0     iojs:node.dll
 0002:000004c8       __imp_?InternalFieldCount@Object@v8@@QEAAHXZ 00000001800354c8     iojs:node.dll
 0002:000004d0       __imp_?SetInternalField@Object@v8@@QEAAXHV?$Local@VValue@v8@@@2@@Z 00000001800354d0     iojs:node.dll
 0002:000004d8       __imp_?SetAlignedPointerInInternalField@Object@v8@@QEAAXHPEAX@Z 00000001800354d8     iojs:node.dll
 0002:000004e0       __imp_?CallAsConstructor@Object@v8@@QEAA?AV?$MaybeLocal@VValue@v8@@@2@V?$Local@VContext@v8@@@2@HQEAV?$Local@VValue@v8@@@2@@Z 00000001800354e0     iojs:node.dll
 0002:000004e8       __imp_?New@Object@v8@@SA?AV?$Local@VObject@v8@@@2@PEAVIsolate@2@@Z 00000001800354e8     iojs:node.dll
 0002:000004f0       __imp_?SlowGetInternalField@Object@v8@@AEAA?AV?$Local@VValue@v8@@@2@H@Z 00000001800354f0     iojs:node.dll
 0002:000004f8       __imp_?SlowGetAlignedPointerFromInternalField@Object@v8@@AEAAPEAXH@Z 00000001800354f8     iojs:node.dll
 0002:00000500       __imp_?NewFromUtf8@String@v8@@SA?AV?$MaybeLocal@VString@v8@@@2@PEAVIsolate@2@PEBDW4NewStringType@2@H@Z 0000000180035500     iojs:node.dll
 0002:00000508       __imp_?Concat@String@v8@@SA?AV?$Local@VString@v8@@@2@V32@0@Z 0000000180035508     iojs:node.dll
 0002:00000510       __imp_??0Value@String@v8@@QEAA@V?$Local@VValue@v8@@@2@@Z 0000000180035510     iojs:node.dll
 0002:00000518       __imp_??1Value@String@v8@@QEAA@XZ 0000000180035518     iojs:node.dll
 0002:00000520       __imp_??0EscapableHandleScope@v8@@QEAA@PEAVIsolate@1@@Z 0000000180035520     iojs:node.dll
 0002:00000528       __imp_?Escape@EscapableHandleScope@v8@@AEAAPEAPEAVObject@internal@2@PEAPEAV342@@Z 0000000180035528     iojs:node.dll
 0002:00000530       __imp_??0TryCatch@v8@@QEAA@PEAVIsolate@1@@Z 0000000180035530     iojs:node.dll
 0002:00000538       __imp_??1TryCatch@v8@@QEAA@XZ 0000000180035538     iojs:node.dll
 0002:00000540       __imp_?HasCaught@TryCatch@v8@@QEBA_NXZ 0000000180035540     iojs:node.dll
 0002:00000548       __imp_?Exception@TryCatch@v8@@QEBA?AV?$Local@VValue@v8@@@2@XZ 0000000180035548     iojs:node.dll
 0002:00000550       __imp_?IsFunction@Value@v8@@QEBA_NXZ 0000000180035550     iojs:node.dll
 0002:00000558       __imp_?IsObject@Value@v8@@QEBA_NXZ 0000000180035558     iojs:node.dll
 0002:00000560       __imp_?IsBoolean@Value@v8@@QEBA_NXZ 0000000180035560     iojs:node.dll
 0002:00000568       __imp_?IsInt32@Value@v8@@QEBA_NXZ 0000000180035568     iojs:node.dll
 0002:00000570       __imp_?IsUint32@Value@v8@@QEBA_NXZ 0000000180035570     iojs:node.dll
 0002:00000578       __imp_?ToString@Value@v8@@QEBA?AV?$MaybeLocal@VString@v8@@@2@V?$Local@VContext@v8@@@2@@Z 0000000180035578     iojs:node.dll
 0002:00000580       __imp_?ToObject@Value@v8@@QEBA?AV?$MaybeLocal@VObject@v8@@@2@V?$Local@VContext@v8@@@2@@Z 0000000180035580     iojs:node.dll
 0002:00000588       __imp_?ToInteger@Value@v8@@QEBA?AV?$MaybeLocal@VInteger@v8@@@2@V?$Local@VContext@v8@@@2@@Z 0000000180035588     iojs:node.dll
 0002:00000590       __imp_?Uint32Value@Value@v8@@QEBAIXZ 0000000180035590     iojs:node.dll
 0002:00000598       __imp_?Int32Value@Value@v8@@QEBA?AV?$Maybe@H@2@V?$Local@VContext@v8@@@2@@Z 0000000180035598     iojs:node.dll
 0002:000005a0       __imp_?Equals@Value@v8@@QEBA?AV?$Maybe@_N@2@V?$Local@VContext@v8@@@2@V?$Local@VValue@v8@@@2@@Z 00000001800355a0     iojs:node.dll
 0002:000005a8       __imp_?Equals@Value@v8@@QEBA_NV?$Local@VValue@v8@@@2@@Z 00000001800355a8     iojs:node.dll
 0002:000005b0       __imp_?GlobalizeReference@V8@v8@@CAPEAPEAVObject@internal@2@PEAVIsolate@42@PEAPEAV342@@Z 00000001800355b0     iojs:node.dll
 0002:000005b8       __imp_?DisposeGlobal@V8@v8@@CAXPEAPEAVObject@internal@2@@Z 00000001800355b8     iojs:node.dll
 0002:000005c0       __imp_?MakeWeak@V8@v8@@CAXPEAPEAVObject@internal@2@PEAXP6AXAEBV?$WeakCallbackInfo@X@2@@ZW4WeakCallbackType@2@@Z 00000001800355c0     iojs:node.dll
 0002:000005c8       __imp_?ClearWeak@V8@v8@@CAPEAXPEAPEAVObject@internal@2@@Z 00000001800355c8     iojs:node.dll
 0002:000005d0       __imp_?ToLocalEmpty@V8@v8@@CAXXZ 00000001800355d0     iojs:node.dll
 0002:000005d8       __imp_?ForceSet@Object@v8@@QEAA?AV?$Maybe@_N@2@V?$Local@VContext@v8@@@2@V?$Local@VValue@v8@@@2@1W4PropertyAttribute@2@@Z 00000001800355d8     iojs:node.dll
 0002:000005e0       __imp_?NewInstance@Function@v8@@QEBA?AV?$MaybeLocal@VObject@v8@@@2@V?$Local@VContext@v8@@@2@HQEAV?$Local@VValue@v8@@@2@@Z 00000001800355e0     iojs:node.dll
 0002:000005e8       __imp_uv_default_loop      00000001800355e8     iojs:node.dll
 0002:000005f0       __imp_uv_async_send        00000001800355f0     iojs:node.dll
 0002:000005f8       __imp_uv_thread_self       00000001800355f8     iojs:node.dll
 0002:00000600       \177node_NULL_THUNK_DATA   0000000180035600     iojs:node.dll
 0002:00000608       __imp_CoCreateFreeThreadedMarshaler 0000000180035608     ole32:ole32.dll
 0002:00000610       __imp_CoInitializeEx       0000000180035610     ole32:ole32.dll
 0002:00000618       __imp_CoGetContextToken    0000000180035618     ole32:ole32.dll
 0002:00000620       \177ole32_NULL_THUNK_DATA  0000000180035620     ole32:ole32.dll
 0002:00000628       __imp_?__abi_WinRTraiseObjectDisposedException@@YAXXZ 0000000180035628     vccorlib:vccorlib140.DLL
 0002:00000630       __imp_?__abi_WinRTraiseInvalidCastException@@YAXXZ 0000000180035630     vccorlib:vccorlib140.DLL
 0002:00000638       __imp_?__abi_WinRTraiseNotImplementedException@@YAXXZ 0000000180035638     vccorlib:vccorlib140.DLL
 0002:00000640       __imp_??0Delegate@Platform@@QE$AAA@XZ 0000000180035640     vccorlib:vccorlib140.DLL
 0002:00000648       __imp_??0Object@Platform@@QE$AAA@XZ 0000000180035648     vccorlib:vccorlib140.DLL
 0002:00000650       __imp_??0NullReferenceException@Platform@@QE$AAA@XZ 0000000180035650     vccorlib:vccorlib140.DLL
 0002:00000658       __imp_?GetObjectContext@Details@Platform@@YAPEAUIUnknown@@XZ 0000000180035658     vccorlib:vccorlib140.DLL
 0002:00000660       __imp_?get@Message@Exception@Platform@@QE$AAAPE$AAVString@3@XZ 0000000180035660     vccorlib:vccorlib140.DLL
 0002:00000668       __imp_?Allocate@Heap@Details@Platform@@SAPEAX_K0@Z 0000000180035668     vccorlib:vccorlib140.DLL
 0002:00000670       __imp_?Free@Heap@Details@Platform@@SAXPEAX@Z 0000000180035670     vccorlib:vccorlib140.DLL
 0002:00000678       __imp_?AlignedFree@Heap@Details@Platform@@SAXPEAX@Z 0000000180035678     vccorlib:vccorlib140.DLL
 0002:00000680       __imp_?AllocateException@Heap@Details@Platform@@SAPEAX_K0@Z 0000000180035680     vccorlib:vccorlib140.DLL
 0002:00000688       __imp_?GetProxyImpl@Details@Platform@@YAJPEAUIUnknown@@AEBU_GUID@@0PEAPEAU3@@Z 0000000180035688     vccorlib:vccorlib140.DLL
 0002:00000690       __imp_?ReleaseTarget@ControlBlock@Details@Platform@@AEAAXXZ 0000000180035690     vccorlib:vccorlib140.DLL
 0002:00000698       __imp_?ReCreateException@Exception@Platform@@SAPE$AAV12@H@Z 0000000180035698     vccorlib:vccorlib140.DLL
 0002:000006a0       __imp_?__abi_WinRTraiseDisconnectedException@@YAXXZ 00000001800356a0     vccorlib:vccorlib140.DLL
 0002:000006a8       __imp_?__abi_WinRTraiseFailureException@@YAXXZ 00000001800356a8     vccorlib:vccorlib140.DLL
 0002:000006b0       __imp_?__abi_WinRTraiseOperationCanceledException@@YAXXZ 00000001800356b0     vccorlib:vccorlib140.DLL
 0002:000006b8       __imp_?__abi_WinRTraiseAccessDeniedException@@YAXXZ 00000001800356b8     vccorlib:vccorlib140.DLL
 0002:000006c0       __imp_?InitializeData@Details@Platform@@YAJH@Z 00000001800356c0     vccorlib:vccorlib140.DLL
 0002:000006c8       __imp_?UninitializeData@Details@Platform@@YAXH@Z 00000001800356c8     vccorlib:vccorlib140.DLL
 0002:000006d0       __imp_?GetIidsFn@@YAJHPEAKPEBU__s_GUID@@PEAPEAVGuid@Platform@@@Z 00000001800356d0     vccorlib:vccorlib140.DLL
 0002:000006d8       __imp_?GetActivationFactoryByPCWSTR@@YAJPEAXAEAVGuid@Platform@@PEAPEAX@Z 00000001800356d8     vccorlib:vccorlib140.DLL
 0002:000006e0       __imp_?ReleaseInContextImpl@Details@Platform@@YAJPEAUIUnknown@@0@Z 00000001800356e0     vccorlib:vccorlib140.DLL
 0002:000006e8       __imp_?__abi_cast_String_to_Object@__abi_details@@YAPE$AAVObject@Platform@@PE$AAVString@3@@Z 00000001800356e8     vccorlib:vccorlib140.DLL
 0002:000006f0       __imp_?__abi_WinRTraiseInvalidArgumentException@@YAXXZ 00000001800356f0     vccorlib:vccorlib140.DLL
 0002:000006f8       __imp_?__abi_WinRTraiseClassNotRegisteredException@@YAXXZ 00000001800356f8     vccorlib:vccorlib140.DLL
 0002:00000700       __imp_?__abi_WinRTraiseCOMException@@YAXJ@Z 0000000180035700     vccorlib:vccorlib140.DLL
 0002:00000708       __imp_?__abi_translateCurrentException@@YAJ_N@Z 0000000180035708     vccorlib:vccorlib140.DLL
 0002:00000710       __imp_?__abi_WinRTraiseNullReferenceException@@YAXXZ 0000000180035710     vccorlib:vccorlib140.DLL
 0002:00000718       __imp_?__abi_WinRTraiseChangedStateException@@YAXXZ 0000000180035718     vccorlib:vccorlib140.DLL
 0002:00000720       __imp_?__abi_WinRTraiseOutOfBoundsException@@YAXXZ 0000000180035720     vccorlib:vccorlib140.DLL
 0002:00000728       __imp_?__abi_WinRTraiseWrongThreadException@@YAXXZ 0000000180035728     vccorlib:vccorlib140.DLL
 0002:00000730       __imp_?__abi_WinRTraiseOutOfMemoryException@@YAXXZ 0000000180035730     vccorlib:vccorlib140.DLL
 0002:00000738       \177vccorlib140_NULL_THUNK_DATA 0000000180035738     vccorlib:vccorlib140.DLL
 0002:00000740       __guard_check_icall_fptr   0000000180035740     MSVCRT:guard_support.obj
 0002:00000748       __guard_dispatch_icall_fptr 0000000180035748     MSVCRT:guard_support.obj
 0002:00000750       __xc_a                     0000000180035750     MSVCRT:initializers.obj
 0002:00000760       _register_binding_         0000000180035760     _nodert_generated.obj
 0002:000007c0       __xc_z                     00000001800357c0     MSVCRT:initializers.obj
 0002:000007c8       __xi_a                     00000001800357c8     MSVCRT:initializers.obj
 0002:000007d8       __abi__initialize          00000001800357d8     vccorlib:init.obj
 0002:000007e0       __xi_z                     00000001800357e0     MSVCRT:initializers.obj
 0002:000007e8       __xl_a                     00000001800357e8     MSVCRT:tlssup.obj
 0002:000007f0       __xl_z                     00000001800357f0     MSVCRT:tlssup.obj
 0002:000007f8       __xp_a                     00000001800357f8     MSVCRT:initializers.obj
 0002:00000800       __xp_z                     0000000180035800     MSVCRT:initializers.obj
 0002:00000808       __xt_a                     0000000180035808     MSVCRT:initializers.obj
 0002:00000810       __xt_z                     0000000180035810     MSVCRT:initializers.obj
 0002:00000820       ??_C@_1BK@MGMFAEKH@?$AAk?$AAe?$AAr?$AAn?$AAe?$AAl?$AA3?$AA2?$AA?4?$AAd?$AAl?$AAl?$AA?$AA@ 0000000180035820     MSVCRT:thread_safe_statics.obj
 0002:00000840       ??_C@_0BM@HLJJNPAH@InitializeConditionVariable?$AA@ 0000000180035840     MSVCRT:thread_safe_statics.obj
 0002:00000860       ??_C@_0BJ@JEBJOJFJ@SleepConditionVariableCS?$AA@ 0000000180035860     MSVCRT:thread_safe_statics.obj
 0002:00000880       ??_C@_0BJ@PGPPEPCC@WakeAllConditionVariable?$AA@ 0000000180035880     MSVCRT:thread_safe_statics.obj
 0002:000008a8       ??_7type_info@@6B@         00000001800358a8     MSVCRT:std_type_info_static.obj
 0002:000008c0       _pRawDllMain               00000001800358c0     MSVCRT:dll_dllmain.obj
 0002:000008c0       _pDefaultRawDllMain        00000001800358c0     MSVCRT:dll_dllmain.obj
 0002:000008d0       ??_7exception@std@@6B@     00000001800358d0     MSVCRT:throw_bad_alloc.obj
 0002:000008e0       ??_C@_0BC@EOODALEL@Unknown?5exception?$AA@ 00000001800358e0     MSVCRT:throw_bad_alloc.obj
 0002:00000900       ??_7bad_alloc@std@@6B@     0000000180035900     MSVCRT:throw_bad_alloc.obj
 0002:00000910       ??_C@_0P@GHFPNOJB@bad?5allocation?$AA@ 0000000180035910     MSVCRT:throw_bad_alloc.obj
 0002:00000928       ??_7bad_array_new_length@std@@6B@ 0000000180035928     MSVCRT:throw_bad_alloc.obj
 0002:00000938       ??_C@_0BF@KINCDENJ@bad?5array?5new?5length?$AA@ 0000000180035938     MSVCRT:throw_bad_alloc.obj
 0002:00000950       ??_C@_0BC@BDKFLDHL@unknown?5exception?$AA@ 0000000180035950     _nodert_generated.obj
 0002:00000968       ??_C@_1DG@OKCGPKIB@?$AAp?$AAe?$AAr?$AAs?$AAi?$AAs?$AAt?$AAe?$AAn?$AAt?$AA?$CI?$AA?$CJ?$AA?4?$AAI?$AAs?$AAN?$AAe?$AAa?$AAr?$AAD?$AAe?$AAa?$AAt?$AAh?$AA?$CI?$AA?$CJ?$AA?$AA@ 0000000180035968     _nodert_generated.obj
 0002:000009a0       ??_C@_1CO@EGNPJLKI@?$AAp?$AAe?$AAr?$AAs?$AAi?$AAs?$AAt?$AAe?$AAn?$AAt?$AA?$CI?$AA?$CJ?$AA?4?$AAI?$AAs?$AAE?$AAm?$AAp?$AAt?$AAy?$AA?$CI?$AA?$CJ?$AA?$AA@ 00000001800359a0     _nodert_generated.obj
 0002:000009d0       ??_C@_1DA@FBGAEOIO@?$AA?$CB?$AAp?$AAe?$AAr?$AAs?$AAi?$AAs?$AAt?$AAe?$AAn?$AAt?$AA?$CI?$AA?$CJ?$AA?4?$AAI?$AAs?$AAE?$AAm?$AAp?$AAt?$AAy?$AA?$CI?$AA?$CJ?$AA?$AA@ 00000001800359d0     _nodert_generated.obj
 0002:00000a00       ??_C@_1CO@JCKLEFMA@?$AA?$CB?$AAp?$AAe?$AAr?$AAs?$AAi?$AAs?$AAt?$AAe?$AAn?$AAt?$AA?$CI?$AA?$CJ?$AA?4?$AAI?$AAs?$AAW?$AAe?$AAa?$AAk?$AA?$CI?$AA?$CJ?$AA?$AA@ 0000000180035a00     _nodert_generated.obj
 0002:00000a30       ??_C@_1BE@GMLLOIPJ@?$AAr?$AAe?$AAf?$AAs?$AA_?$AA?5?$AA?$DO?$AA?5?$AA0?$AA?$AA@ 0000000180035a30     _nodert_generated.obj
 0002:00000a48       ??_C@_1CC@GBFLAAPF@?$AAw?$AAr?$AAa?$AAp?$AA?9?$AA?$DO?$AAr?$AAe?$AAf?$AAs?$AA_?$AA?5?$AA?$DN?$AA?$DN?$AA?5?$AA0?$AA?$AA@ 0000000180035a48     _nodert_generated.obj
 0002:00000a70       ??_C@_1OA@NMLIJPFN@?$AAc?$AA?3?$AA?2?$AAu?$AAs?$AAe?$AAr?$AAs?$AA?2?$AAg?$AAa?$AAb?$AAr?$AAi?$AAe?$AAl?$AA?4?$AAr?$AAo?$AAh?$AAd?$AAe?$AAn?$AA?2?$AAd?$AAe?$AAs?$AAk?$AAt?$AAo?$AAp?$AA?2@ 0000000180035a70     _nodert_generated.obj
 0002:00000b50       ??_C@_1EC@MGGLMBLC@?$AAo?$AAb?$AAj?$AAe?$AAc?$AAt?$AA?9?$AA?$DO?$AAI?$AAn?$AAt?$AAe?$AAr?$AAn?$AAa?$AAl?$AAF?$AAi?$AAe?$AAl?$AAd?$AAC?$AAo?$AAu?$AAn?$AAt?$AA?$CI?$AA?$CJ?$AA?5?$AA?$DO?$AA?5?$AA0@ 0000000180035b50     _nodert_generated.obj
 0002:00000b98       ??_C@_1DI@ELDBKNAK@?$AAw?$AAr?$AAa?$AAp?$AA?9?$AA?$DO?$AAh?$AAa?$AAn?$AAd?$AAl?$AAe?$AA_?$AA?4?$AAI?$AAs?$AAN?$AAe?$AAa?$AAr?$AAD?$AAe?$AAa?$AAt?$AAh?$AA?$CI?$AA?$CJ?$AA?$AA@ 0000000180035b98     _nodert_generated.obj
 0002:00000bd0       ??_C@_07CIFAGBMG@unknown?$AA@ 0000000180035bd0     _nodert_generated.obj
 0002:00000bd8       ??_C@_0BM@DMDJGFCM@Fail?5to?5schedule?5the?5chore?$CB?$AA@ 0000000180035bd8     _nodert_generated.obj
 0002:00000bf8       ??_C@_0DN@ELCPICKL@This?5function?5cannot?5be?5called?5o@ 0000000180035bf8     _nodert_generated.obj
 0002:00000c38       ??_C@_0DD@NJEIIHCG@Illegal?5to?5wait?5on?5a?5task?5in?5a?5W@ 0000000180035c38     _nodert_generated.obj
 0002:00000c6c       ??_C@_03ICHNJLJF@key?$AA@  0000000180035c6c     _nodert_generated.obj
 0002:00000c70       ??_C@_05MFEJDJP@value?$AA@ 0000000180035c70     _nodert_generated.obj
 0002:00000c78       ??_C@_0BH@LAEGKBN@__winrtOpaqueWrapper__?$AA@ 0000000180035c78     _nodert_generated.obj
 0002:00000c90       ??_C@_08PPIJGMPL@callback?$AA@ 0000000180035c90     _nodert_generated.obj
 0002:00000ca0       ??_C@_07DEBHDLBL@process?$AA@ 0000000180035ca0     _nodert_generated.obj
 0002:00000ca8       ??_C@_06LKIIGAOE@domain?$AA@ 0000000180035ca8     _nodert_generated.obj
 0002:00000cb0       ??_C@_0BJ@LJPDLIMA@__registrationTokenMap__?$AA@ 0000000180035cb0     _nodert_generated.obj
 0002:00000cd0       ??_C@_0BD@EAICIHCF@AccountPictureKind?$AA@ 0000000180035cd0     _nodert_generated.obj
 0002:00000ce8       ??_C@_0L@MIJGMJNK@smallImage?$AA@ 0000000180035ce8     _nodert_generated.obj
 0002:00000cf8       ??_C@_0L@LCBLDOGI@largeImage?$AA@ 0000000180035cf8     _nodert_generated.obj
 0002:00000d04       ??_C@_05BPFJLLEL@video?$AA@ 0000000180035d04     _nodert_generated.obj
 0002:00000d10       ??_C@_0BI@KMALGHFO@SetAccountPictureResult?$AA@ 0000000180035d10     _nodert_generated.obj
 0002:00000d28       ??_C@_07IPNMCAN@success?$AA@ 0000000180035d28     _nodert_generated.obj
 0002:00000d30       ??_C@_0P@BHLBIGPD@changeDisabled?$AA@ 0000000180035d30     _nodert_generated.obj
 0002:00000d40       ??_C@_0BE@JKGCDGMK@largeOrDynamicError?$AA@ 0000000180035d40     _nodert_generated.obj
 0002:00000d58       ??_C@_0BE@HAFCFEJH@videoFrameSizeError?$AA@ 0000000180035d58     _nodert_generated.obj
 0002:00000d70       ??_C@_0O@NKCILKEC@fileSizeError?$AA@ 0000000180035d70     _nodert_generated.obj
 0002:00000d80       ??_C@_07MBLPHJFH@failure?$AA@ 0000000180035d80     _nodert_generated.obj
 0002:00000d88       ??_C@_0BD@BMOIBFNI@SetImageFeedResult?$AA@ 0000000180035d88     _nodert_generated.obj
 0002:00000da0       ??_C@_0N@BGKDIIHE@userCanceled?$AA@ 0000000180035da0     _nodert_generated.obj
 0002:00000db0       ??_C@_0BK@OMNOCEFB@AdvertisingManagerForUser?$AA@ 0000000180035db0     _nodert_generated.obj
 0002:00000dd0       ??_C@_0O@IHCNLAHD@advertisingId?$AA@ 0000000180035dd0     _nodert_generated.obj
 0002:00000de0       ??_C@_04CCHAHKJA@user?$AA@ 0000000180035de0     _nodert_generated.obj
 0002:00000de8       ??_C@_08KIDHCPHN@castFrom?$AA@ 0000000180035de8     _nodert_generated.obj
 0002:00000e00       ??_C@_1GC@KBHNNFGK@?$AAI?$AAn?$AAv?$AAa?$AAl?$AAi?$AAd?$AA?5?$AAa?$AAr?$AAg?$AAu?$AAm?$AAe?$AAn?$AAt?$AAs?$AA?0?$AA?5?$AAn?$AAo?$AA?5?$AAs?$AAu?$AAi?$AAt?$AAa?$AAb?$AAl?$AAe?$AA?5?$AAc@ 0000000180035e00     _nodert_generated.obj
 0002:00000e68       ??_C@_0BC@HNKGPEBE@__winRtInstance__?$AA@ 0000000180035e68     _nodert_generated.obj
 0002:00000e80       ??_C@_1LK@MDDHJJID@?$AAI?$AAn?$AAv?$AAa?$AAl?$AAi?$AAd?$AA?5?$AAa?$AAr?$AAg?$AAu?$AAm?$AAe?$AAn?$AAt?$AAs?$AA?0?$AA?5?$AAn?$AAo?$AA?5?$AAo?$AAb?$AAj?$AAe?$AAc?$AAt?$AA?5?$AAp?$AAr?$AAo@ 0000000180035e80     _nodert_generated.obj
 0002:00000f3c       ??_C@_04ODLBFFJE@User?$AA@ 0000000180035f3c     _nodert_generated.obj
 0002:00000f48       ??_C@_0P@MIGFILHN@Windows?4System?$AA@ 0000000180035f48     _nodert_generated.obj
 0002:00000f58       ??_C@_0BD@HEOJLFCB@AdvertisingManager?$AA@ 0000000180035f58     _nodert_generated.obj
 0002:00000f70       ??_C@_0L@HJJMJGJP@getForUser?$AA@ 0000000180035f70     _nodert_generated.obj
 0002:00000f80       ??_C@_1FE@FAFBJCBD@?$AAB?$AAa?$AAd?$AA?5?$AAa?$AAr?$AAg?$AAu?$AAm?$AAe?$AAn?$AAt?$AAs?$AA?3?$AA?5?$AAn?$AAo?$AA?5?$AAs?$AAu?$AAi?$AAt?$AAa?$AAb?$AAl?$AAe?$AA?5?$AAo?$AAv?$AAe?$AAr?$AAl@ 0000000180035f80     _nodert_generated.obj
 0002:00000fd8       ??_C@_0CD@MLLLEJHA@UserProfilePersonalizationSettin@ 0000000180035fd8     _nodert_generated.obj
 0002:00001000       ??_C@_0BL@FOIDJMEM@trySetLockScreenImageAsync?$AA@ 0000000180036000     _nodert_generated.obj
 0002:00001020       ??_C@_0BK@MMBGGHOM@trySetWallpaperImageAsync?$AA@ 0000000180036020     _nodert_generated.obj
 0002:00001040       ??_C@_0M@CPFODPBC@isSupported?$AA@ 0000000180036040     _nodert_generated.obj
 0002:00001050       ??_C@_07LKPDDKMO@current?$AA@ 0000000180036050     _nodert_generated.obj
 0002:00001060       ??_C@_1EK@NFKCAPKC@?$AAB?$AAa?$AAd?$AA?5?$AAa?$AAr?$AAg?$AAu?$AAm?$AAe?$AAn?$AAt?$AAs?$AA?3?$AA?5?$AAN?$AAo?$AA?5?$AAc?$AAa?$AAl?$AAl?$AAb?$AAa?$AAc?$AAk?$AA?5?$AAw?$AAa?$AAs?$AA?5?$AAg@ 0000000180036060     _nodert_generated.obj
 0002:000010b0       ??_C@_0BJ@OKNNOPIN@GlobalizationPreferences?$AA@ 00000001800360b0     _nodert_generated.obj
 0002:000010d0       ??_C@_09LNMGNCGB@calendars?$AA@ 00000001800360d0     _nodert_generated.obj
 0002:000010dc       ??_C@_06NFJKAPFN@clocks?$AA@ 00000001800360dc     _nodert_generated.obj
 0002:000010e8       ??_C@_0L@EEMMBGMK@currencies?$AA@ 00000001800360e8     _nodert_generated.obj
 0002:000010f8       ??_C@_0BF@PHBEECPF@homeGeographicRegion?$AA@ 00000001800360f8     _nodert_generated.obj
 0002:00001110       ??_C@_09EIEAILJ@languages?$AA@ 0000000180036110     _nodert_generated.obj
 0002:00001120       ??_C@_0N@HCPHNBKP@weekStartsOn?$AA@ 0000000180036120     _nodert_generated.obj
 0002:00001130       ??_C@_0BE@DEENEPHG@FirstSignInSettings?$AA@ 0000000180036130     _nodert_generated.obj
 0002:00001144       ??_C@_06FNGHPIEM@lookup?$AA@ 0000000180036144     _nodert_generated.obj
 0002:0000114c       ??_C@_06FLOEHAKL@hasKey?$AA@ 000000018003614c     _nodert_generated.obj
 0002:00001154       ??_C@_05EHPMMFBK@split?$AA@ 0000000180036154     _nodert_generated.obj
 0002:0000115c       ??_C@_05NIGAKFML@first?$AA@ 000000018003615c     _nodert_generated.obj
 0002:00001168       ??_C@_0L@CPMPFDLC@getDefault?$AA@ 0000000180036168     _nodert_generated.obj
 0002:00001174       ??_C@_06BJCFNGJP@second?$AA@ 0000000180036174     _nodert_generated.obj
 0002:00001180       ??_C@_0BA@KBMNGABO@UserInformation?$AA@ 0000000180036180     _nodert_generated.obj
 0002:00001190       ??_C@_0BC@EPGOBDMG@getAccountPicture?$AA@ 0000000180036190     _nodert_generated.obj
 0002:000011a8       ??_C@_0BH@HAKHAFLL@setAccountPictureAsync?$AA@ 00000001800361a8     _nodert_generated.obj
 0002:000011c0       ??_C@_0BI@OLPLADGM@setAccountPicturesAsync?$AA@ 00000001800361c0     _nodert_generated.obj
 0002:000011d8       ??_C@_0CB@DPLLEKAD@setAccountPictureFromStreamAsync@ 00000001800361d8     _nodert_generated.obj
 0002:00001200       ??_C@_0CD@ODPILDCH@setAccountPicturesFromStreamsAsy@ 0000000180036200     _nodert_generated.obj
 0002:00001228       ??_C@_0BE@FJEINCA@getDisplayNameAsync?$AA@ 0000000180036228     _nodert_generated.obj
 0002:00001240       ??_C@_0BC@CGMDNEJE@getFirstNameAsync?$AA@ 0000000180036240     _nodert_generated.obj
 0002:00001258       ??_C@_0BB@DGIKNLHJ@getLastNameAsync?$AA@ 0000000180036258     _nodert_generated.obj
 0002:00001270       ??_C@_0BG@JNELBPJN@getPrincipalNameAsync?$AA@ 0000000180036270     _nodert_generated.obj
 0002:00001288       ??_C@_0CF@EFMPJEKK@getSessionInitiationProtocolUriA@ 0000000180036288     _nodert_generated.obj
 0002:000012b0       ??_C@_0BD@JKPJEKLD@getDomainNameAsync?$AA@ 00000001800362b0     _nodert_generated.obj
 0002:000012c8       ??_C@_0BM@EIBOCOKM@accountPictureChangeEnabled?$AA@ 00000001800362c8     _nodert_generated.obj
 0002:000012e8       ??_C@_0BC@GCHDFDJM@nameAccessAllowed?$AA@ 00000001800362e8     _nodert_generated.obj
 0002:00001300       ??_C@_0M@GMNDPMBH@addListener?$AA@ 0000000180036300     _nodert_generated.obj
 0002:0000130c       ??_C@_02LIELOMNJ@on?$AA@   000000018003630c     _nodert_generated.obj
 0002:00001310       ??_C@_0P@NPMHMMOM@removeListener?$AA@ 0000000180036310     _nodert_generated.obj
 0002:00001320       ??_C@_03MCADLMAF@off?$AA@  0000000180036320     _nodert_generated.obj
 0002:00001324       ??_C@_03MBCCLDKD@Uri?$AA@  0000000180036324     _nodert_generated.obj
 0002:00001328       ??_C@_0BD@LBEMGLHC@Windows?4Foundation?$AA@ 0000000180036328     _nodert_generated.obj
 0002:00001340       ??_C@_0N@PDIHMLHM@IStorageFile?$AA@ 0000000180036340     _nodert_generated.obj
 0002:00001350       ??_C@_0BA@COIALDOJ@Windows?4Storage?$AA@ 0000000180036350     _nodert_generated.obj
 0002:00001360       ??_C@_1JK@DNJLCGHE@?$AAw?$AAr?$AAo?$AAn?$AAg?$AA?5?$AAa?$AAr?$AAg?$AAu?$AAm?$AAe?$AAn?$AAt?$AAs?$AA?0?$AA?5?$AAe?$AAx?$AAp?$AAe?$AAc?$AAt?$AAe?$AAd?$AA?5?$AAa?$AAr?$AAg?$AAu?$AAm?$AAe@ 0000000180036360     _nodert_generated.obj
 0002:00001400       ??_C@_1CM@LMMMJENK@?$AAa?$AAc?$AAc?$AAo?$AAu?$AAn?$AAt?$AAP?$AAi?$AAc?$AAt?$AAu?$AAr?$AAe?$AAC?$AAh?$AAa?$AAn?$AAg?$AAe?$AAd?$AA?$AA@ 0000000180036400     _nodert_generated.obj
 0002:00001430       ??_C@_1EG@KBCEIIBD@?$AAg?$AAi?$AAv?$AAe?$AAn?$AA?5?$AAe?$AAv?$AAe?$AAn?$AAt?$AA?5?$AAn?$AAa?$AAm?$AAe?$AA?5?$AAi?$AAs?$AAn?$AA?8?$AAt?$AA?5?$AAs?$AAu?$AAp?$AAp?$AAo?$AAr?$AAt?$AAe?$AAd@ 0000000180036430     _nodert_generated.obj
 0002:00001480       ??_C@_1GE@DOIICCMG@?$AAw?$AAr?$AAo?$AAn?$AAg?$AA?5?$AAa?$AAr?$AAg?$AAu?$AAm?$AAe?$AAn?$AAt?$AAs?$AA?0?$AA?5?$AAe?$AAx?$AAp?$AAe?$AAc?$AAt?$AAe?$AAd?$AA?5?$AAa?$AA?5?$AAs?$AAt?$AAr?$AAi@ 0000000180036480     _nodert_generated.obj
 0002:000014e8       ??_C@_0L@CGHMOOOI@LockScreen?$AA@ 00000001800364e8     _nodert_generated.obj
 0002:000014f8       ??_C@_0BD@OKNDNMLH@tryRemoveImageFeed?$AA@ 00000001800364f8     _nodert_generated.obj
 0002:00001510       ??_C@_0P@LPKEIGIL@getImageStream?$AA@ 0000000180036510     _nodert_generated.obj
 0002:00001520       ??_C@_0BJ@BOGBGHKF@requestSetImageFeedAsync?$AA@ 0000000180036520     _nodert_generated.obj
 0002:00001540       ??_C@_0BC@EDOCPGOC@setImageFileAsync?$AA@ 0000000180036540     _nodert_generated.obj
 0002:00001558       ??_C@_0BE@HNNLBNFN@setImageStreamAsync?$AA@ 0000000180036558     _nodert_generated.obj
 0002:00001570       ??_C@_0BC@DGEKPHHJ@originalImageFile?$AA@ 0000000180036570     _nodert_generated.obj
 0002:00001588       ??_C@_0BE@FDNFINEA@IRandomAccessStream?$AA@ 0000000180036588     _nodert_generated.obj
 0002:000015a0       ??_C@_0BI@LEEBABDB@Windows?4Storage?4Streams?$AA@ 00000001800365a0     _nodert_generated.obj
 0002:000015b8       ??_C@_0BL@GHIHDOOA@Windows?4System?4UserProfile?$AA@ 00000001800365b8     _nodert_generated.obj
 0002:000015d8       ??_C@_0BJ@CIOFOAKP@?4?4?2_nodert_generated?4cpp?$AA@ 00000001800365d8     _nodert_generated.obj
 0002:000015f8       ??_C@_07GGKKJCAC@binding?$AA@ 00000001800365f8     _nodert_generated.obj
 0002:00001600       ??_C@_1HG@EMHIMOFK@?$AAC?$AAo?$AAn?$AAc?$AAu?$AAr?$AAr?$AAe?$AAn?$AAc?$AAy?$AA?4?$AAd?$AAe?$AAt?$AAa?$AAi?$AAl?$AAs?$AA?4?$AA_?$AAI?$AAA?$AAs?$AAy?$AAn?$AAc?$AAA?$AAc?$AAt?$AAi?$AAo@ 0000000180036600     _nodert_generated.obj
 0002:00001680       ??_C@_1FM@CFHMFKA@?$AAW?$AAi?$AAn?$AAd?$AAo?$AAw?$AAs?$AA?4?$AAS?$AAy?$AAs?$AAt?$AAe?$AAm?$AA?4?$AAU?$AAs?$AAe?$AAr?$AAP?$AAr?$AAo?$AAf?$AAi?$AAl?$AAe?$AA?4?$AAA?$AAd?$AAv?$AAe?$AAr@ 0000000180036680     _nodert_generated.obj
 0002:000016e0       ??_C@_1HM@DCGJCBPI@?$AAW?$AAi?$AAn?$AAd?$AAo?$AAw?$AAs?$AA?4?$AAS?$AAy?$AAs?$AAt?$AAe?$AAm?$AA?4?$AAU?$AAs?$AAe?$AAr?$AAP?$AAr?$AAo?$AAf?$AAi?$AAl?$AAe?$AA?4?$AAU?$AAs?$AAe?$AAr?$AAP@ 00000001800366e0     _nodert_generated.obj
 0002:00001760       ??_C@_1GI@GFLHGJJ@?$AAW?$AAi?$AAn?$AAd?$AAo?$AAw?$AAs?$AA?4?$AAS?$AAy?$AAs?$AAt?$AAe?$AAm?$AA?4?$AAU?$AAs?$AAe?$AAr?$AAP?$AAr?$AAo?$AAf?$AAi?$AAl?$AAe?$AA?4?$AAG?$AAl?$AAo?$AAb?$AAa@ 0000000180036760     _nodert_generated.obj
 0002:000017d0       ??_C@_1FO@LKEJFHO@?$AAW?$AAi?$AAn?$AAd?$AAo?$AAw?$AAs?$AA?4?$AAS?$AAy?$AAs?$AAt?$AAe?$AAm?$AA?4?$AAU?$AAs?$AAe?$AAr?$AAP?$AAr?$AAo?$AAf?$AAi?$AAl?$AAe?$AA?4?$AAF?$AAi?$AAr?$AAs?$AAt@ 00000001800367d0     _nodert_generated.obj
 0002:00001830       ??_C@_1FE@MGINNLMK@?$AAW?$AAi?$AAn?$AAd?$AAo?$AAw?$AAs?$AA?4?$AAF?$AAo?$AAu?$AAn?$AAd?$AAa?$AAt?$AAi?$AAo?$AAn?$AA?4?$AAE?$AAv?$AAe?$AAn?$AAt?$AAH?$AAa?$AAn?$AAd?$AAl?$AAe?$AAr?$AA?$GA@ 0000000180036830     _nodert_generated.obj
 0002:00001890       ??_C@_1FG@NEKELKJN@?$AAW?$AAi?$AAn?$AAd?$AAo?$AAw?$AAs?$AA?4?$AAS?$AAy?$AAs?$AAt?$AAe?$AAm?$AA?4?$AAU?$AAs?$AAe?$AAr?$AAP?$AAr?$AAo?$AAf?$AAi?$AAl?$AAe?$AA?4?$AAU?$AAs?$AAe?$AAr?$AAI@ 0000000180036890     _nodert_generated.obj
 0002:000018f0       ??_C@_1EC@HNHEILEH@?$AAW?$AAi?$AAn?$AAd?$AAo?$AAw?$AAs?$AA?4?$AAF?$AAo?$AAu?$AAn?$AAd?$AAa?$AAt?$AAi?$AAo?$AAn?$AA?4?$AAP?$AAr?$AAo?$AAp?$AAe?$AAr?$AAt?$AAy?$AAV?$AAa?$AAl?$AAu?$AAe@ 00000001800368f0     _nodert_generated.obj
 0002:00001940       ??_C@_1EM@CCLNBMGG@?$AAW?$AAi?$AAn?$AAd?$AAo?$AAw?$AAs?$AA?4?$AAS?$AAy?$AAs?$AAt?$AAe?$AAm?$AA?4?$AAU?$AAs?$AAe?$AAr?$AAP?$AAr?$AAo?$AAf?$AAi?$AAl?$AAe?$AA?4?$AAL?$AAo?$AAc?$AAk?$AAS@ 0000000180036940     _nodert_generated.obj
 0002:00001990       ??_C@_1FO@BJPPPDOI@?$AAW?$AAi?$AAn?$AAd?$AAo?$AAw?$AAs?$AA?4?$AAF?$AAo?$AAu?$AAn?$AAd?$AAa?$AAt?$AAi?$AAo?$AAn?$AA?4?$AAA?$AAs?$AAy?$AAn?$AAc?$AAA?$AAc?$AAt?$AAi?$AAo?$AAn?$AAC?$AAo@ 0000000180036990     _nodert_generated.obj
 0002:000019f0       ??_C@_1HG@EOHCBGNB@?$AAW?$AAi?$AAn?$AAd?$AAo?$AAw?$AAs?$AA?4?$AAF?$AAo?$AAu?$AAn?$AAd?$AAa?$AAt?$AAi?$AAo?$AAn?$AA?4?$AAA?$AAs?$AAy?$AAn?$AAc?$AAO?$AAp?$AAe?$AAr?$AAa?$AAt?$AAi?$AAo@ 00000001800369f0     _nodert_generated.obj
 0002:00001a68       ??_C@_0BN@MNEGDHPD@derived?5class?5must?5implement?$AA@ 0000000180036a68     _nodert_generated.obj
 0002:00001a88       ??_C@_0CP@BMLFNKNO@Windows?3?3Foundation?3?3Collections@ 0000000180036a88     _nodert_generated.obj
 0002:00001ab8       ??_C@_0CL@EPAAJAFM@Windows?3?3Foundation?3?3Collections@ 0000000180036ab8     _nodert_generated.obj
 0002:00001ae8       ??_C@_07JGIDINKK@getMany?$AA@ 0000000180036ae8     _nodert_generated.obj
 0002:00001af0       ??_C@_08JABKCAEO@moveNext?$AA@ 0000000180036af0     _nodert_generated.obj
 0002:00001b00       ??_C@_0L@FADMNBDO@hasCurrent?$AA@ 0000000180036b00     _nodert_generated.obj
 0002:00001b10       ??_C@_0CK@ONNEMADN@Windows?3?3Foundation?3?3Collections@ 0000000180036b10     _nodert_generated.obj
 0002:00001b3c       ??_C@_04IAGNFIBA@size?$AA@ 0000000180036b3c     _nodert_generated.obj
 0002:00001b44       ??_C@_06IJDLPEM@length?$AA@ 0000000180036b44     _nodert_generated.obj
 0002:00001b50       ??_C@_0CN@CFDLBABJ@Windows?3?3Foundation?3?3Collections@ 0000000180036b50     _nodert_generated.obj
 0002:00001b80       ??_C@_05NEEIPFEN@getAt?$AA@ 0000000180036b80     _nodert_generated.obj
 0002:00001b88       ??_C@_07KKKNJHGA@indexOf?$AA@ 0000000180036b88     _nodert_generated.obj
 0002:00001b90       ??_C@_1CA@EIFFEMAD@?$AAN?$AAo?$AAt?$AA?5?$AAi?$AAm?$AAp?$AAl?$AAe?$AAm?$AAe?$AAn?$AAt?$AAe?$AAd?$AA?$AA@ 0000000180036b90     _nodert_generated.obj
 0002:00001bb0       ??_C@_1CO@CKJHFEP@?$AAM?$AAe?$AAt?$AAh?$AAo?$AAd?$AA?5?$AAi?$AAs?$AAn?$AA?8?$AAt?$AA?5?$AAs?$AAu?$AAp?$AAp?$AAo?$AAr?$AAt?$AAe?$AAd?$AA?$AA@ 0000000180036bb0     _nodert_generated.obj
 0002:00001be0       ??_C@_07GOBOHMJA@boolean?$AA@ 0000000180036be0     _nodert_generated.obj
 0002:00001be8       ??_C@_05FKHKFDID@index?$AA@ 0000000180036be8     _nodert_generated.obj
 0002:00001bf0       ??_C@_0BD@OLBABOEK@vector?$DMT?$DO?5too?5long?$AA@ 0000000180036bf0     _nodert_generated.obj
 0002:00001c08       ??_C@_1CE@LNAGEONJ@?$AA?$CB?$AAo?$AAb?$AAj?$AAe?$AAc?$AAt?$AA?4?$AAI?$AAs?$AAE?$AAm?$AAp?$AAt?$AAy?$AA?$CI?$AA?$CJ?$AA?$AA@ 0000000180036c08     _nodert_generated.obj
 0002:00001c30       ??_C@_1HK@PEPAEFGG@?$AAW?$AAi?$AAn?$AAd?$AAo?$AAw?$AAs?$AA?4?$AAF?$AAo?$AAu?$AAn?$AAd?$AAa?$AAt?$AAi?$AAo?$AAn?$AA?4?$AAA?$AAs?$AAy?$AAn?$AAc?$AAO?$AAp?$AAe?$AAr?$AAa?$AAt?$AAi?$AAo@ 0000000180036c30     _nodert_generated.obj
 0002:00001cb0       ??_C@_1MG@ECDHOMDN@?$AAW?$AAi?$AAn?$AAd?$AAo?$AAw?$AAs?$AA?4?$AAF?$AAo?$AAu?$AAn?$AAd?$AAa?$AAt?$AAi?$AAo?$AAn?$AA?4?$AAA?$AAs?$AAy?$AAn?$AAc?$AAO?$AAp?$AAe?$AAr?$AAa?$AAt?$AAi?$AAo@ 0000000180036cb0     _nodert_generated.obj
 0002:00001d80       ??_C@_1JI@FKBCNPMJ@?$AAW?$AAi?$AAn?$AAd?$AAo?$AAw?$AAs?$AA?4?$AAF?$AAo?$AAu?$AAn?$AAd?$AAa?$AAt?$AAi?$AAo?$AAn?$AA?4?$AAA?$AAs?$AAy?$AAn?$AAc?$AAO?$AAp?$AAe?$AAr?$AAa?$AAt?$AAi?$AAo@ 0000000180036d80     _nodert_generated.obj
 0002:00001e20       ??_C@_1HI@FADENELP@?$AAW?$AAi?$AAn?$AAd?$AAo?$AAw?$AAs?$AA?4?$AAF?$AAo?$AAu?$AAn?$AAd?$AAa?$AAt?$AAi?$AAo?$AAn?$AA?4?$AAA?$AAs?$AAy?$AAn?$AAc?$AAO?$AAp?$AAe?$AAr?$AAa?$AAt?$AAi?$AAo@ 0000000180036e20     _nodert_generated.obj
 0002:00001ea0       ??_C@_1NA@MEJDMCH@?$AAW?$AAi?$AAn?$AAd?$AAo?$AAw?$AAs?$AA?4?$AAF?$AAo?$AAu?$AAn?$AAd?$AAa?$AAt?$AAi?$AAo?$AAn?$AA?4?$AAA?$AAs?$AAy?$AAn?$AAc?$AAO?$AAp?$AAe?$AAr?$AAa?$AAt?$AAi?$AAo@ 0000000180036ea0     _nodert_generated.obj
 0002:00001f70       __uuidof_?AU?$IIterator@PE$AAVString@Platform@@@Collections@Foundation@Windows@@ 0000000180036f70     _nodert_generated.obj
 0002:00001f80       __uuidof_?AU__abi_IDelegate@?$AsyncOperationCompletedHandler@W4SetImageFeedResult@UserProfile@System@Windows@@@Foundation@Windows@@ 0000000180036f80     _nodert_generated.obj
 0002:00001f80       __uuidof_?AU__abi_IDelegate@?$AsyncOperationCompletedHandler@PE$AAVUri@Foundation@Windows@@@Foundation@Windows@@ 0000000180036f80     _nodert_generated.obj
 0002:00001f80       __uuidof_?AU__abi_IDelegate@?$AsyncOperationCompletedHandler@_N@Foundation@Windows@@ 0000000180036f80     _nodert_generated.obj
 0002:00001f80       __uuidof_?AU__abi_IDelegate@?$AsyncOperationCompletedHandler@E@Foundation@Windows@@ 0000000180036f80     _nodert_generated.obj
 0002:00001f80       __uuidof_?AU__abi_IDelegate@?$AsyncOperationCompletedHandler@PE$AAVString@Platform@@@Foundation@Windows@@ 0000000180036f80     _nodert_generated.obj
 0002:00001f80       __uuidof_?AU__abi_IDelegate@?$AsyncOperationCompletedHandler@W4SetAccountPictureResult@UserProfile@System@Windows@@@Foundation@Windows@@ 0000000180036f80     _nodert_generated.obj
 0002:00001f90       ?REGISTRATION_TOKEN_MAP_PROPERTY_NAME@@3PEBDEB 0000000180036f90     _nodert_generated.obj
 0002:00001f98       __uuidof_?AVUserProfilePersonalizationSettings@UserProfile@System@Windows@@ 0000000180036f98     _nodert_generated.obj
 0002:00001fa8       __uuidof_?AVAdvertisingManagerForUser@UserProfile@System@Windows@@ 0000000180036fa8     _nodert_generated.obj
 0002:00001fb8       __uuidof_?AU?$IIterator@PE$AAU?$IKeyValuePair@PE$AAVString@Platform@@PE$AAVObject@2@@Collections@Foundation@Windows@@@Collections@Foundation@Windows@@ 0000000180036fb8     _nodert_generated.obj
 0002:00001fc8       __uuidof_?AU?$IIterable@PE$AAU?$IKeyValuePair@PE$AAVString@Platform@@PE$AAVObject@2@@Collections@Foundation@Windows@@@Collections@Foundation@Windows@@ 0000000180036fc8     _nodert_generated.obj
 0002:00001fd8       __uuidof_?AV?$Box@_J@Platform@@ 0000000180036fd8     _nodert_generated.obj
 0002:00001fd8       __uuidof_?AU?$IBox@_J@Platform@@ 0000000180036fd8     _nodert_generated.obj
 0002:00001fe8       __uuidof_?AU__I?$_AsyncInfoImpl@PE$AAUIAsyncAction@Foundation@Windows@@VAsyncActionCompletedHandler@23@EPublicNonVirtuals@details@Concurrency@@ 0000000180036fe8     _nodert_generated.obj
 0002:00001ff8       __uuidof_?AVUri@Foundation@Windows@@ 0000000180036ff8     _nodert_generated.obj
 0002:00002008       __uuidof_?AUIWeakReferenceSource@Details@Platform@@ 0000000180037008     _nodert_generated.obj
 0002:00002018       __uuidof_?AV?$AsyncOperationCompletedHandler@E@Foundation@Windows@@ 0000000180037018     _nodert_generated.obj
 0002:00002028       __uuidof_?AUIAgileObject@Details@Platform@@ 0000000180037028     _nodert_generated.obj
 0002:00002028       _GUID_94ea2b94_e9cc_49e0_c0ff_ee64ca8f5b90 0000000180037028     _nodert_generated.obj
 0002:00002038       __uuidof_?AUIAsyncAction@Foundation@Windows@@ 0000000180037038     _nodert_generated.obj
 0002:00002048       _GUID_00000003_0000_0000_c000_000000000046 0000000180037048     _nodert_generated.obj
 0002:00002058       __uuidof_?AVLockScreen@UserProfile@System@Windows@@ 0000000180037058     _nodert_generated.obj
 0002:00002058       __uuidof_?AVAdvertisingManager@UserProfile@System@Windows@@ 0000000180037058     _nodert_generated.obj
 0002:00002058       _GUID_00000000_0000_0000_c000_000000000046 0000000180037058     _nodert_generated.obj
 0002:00002058       __uuidof_?AVGlobalizationPreferences@UserProfile@System@Windows@@ 0000000180037058     _nodert_generated.obj
 0002:00002058       __uuidof_?AVUserInformation@UserProfile@System@Windows@@ 0000000180037058     _nodert_generated.obj
 0002:00002068       __uuidof_?AU?$IKeyValuePair@PE$AAVString@Platform@@PE$AAVObject@2@@Collections@Foundation@Windows@@ 0000000180037068     _nodert_generated.obj
 0002:00002078       __uuidof_?AVStorageFile@Storage@Windows@@ 0000000180037078     _nodert_generated.obj
 0002:00002078       __uuidof_?AUIStorageFile@Storage@Windows@@ 0000000180037078     _nodert_generated.obj
 0002:00002088       __uuidof_?AUIRandomAccessStream@Streams@Storage@Windows@@ 0000000180037088     _nodert_generated.obj
 0002:00002098       __uuidof_?AU?$IMapView@PE$AAVString@Platform@@PE$AAVObject@2@@Collections@Foundation@Windows@@ 0000000180037098     _nodert_generated.obj
 0002:000020a8       __uuidof_?AVFirstSignInSettings@UserProfile@System@Windows@@ 00000001800370a8     _nodert_generated.obj
 0002:000020b8       __uuidof_?AU?$IAsyncOperation@E@Foundation@Windows@@ 00000001800370b8     _nodert_generated.obj
 0002:000020c8       __uuidof_?AU?$IVectorView@PE$AAVString@Platform@@@Collections@Foundation@Windows@@ 00000001800370c8     _nodert_generated.obj
 0002:000020d8       __uuidof_?AV?$AsyncOperationCompletedHandler@W4SetImageFeedResult@UserProfile@System@Windows@@@Foundation@Windows@@ 00000001800370d8     _nodert_generated.obj
 0002:000020e8       __uuidof_?AUIAsyncInfo@Foundation@Windows@@ 00000001800370e8     _nodert_generated.obj
 0002:000020f8       __uuidof_?AV?$EventHandler@PE$AAVObject@Platform@@@Foundation@Windows@@ 00000001800370f8     _nodert_generated.obj
 0002:00002108       __uuidof_?AU?$IIterable@PE$AAVString@Platform@@@Collections@Foundation@Windows@@ 0000000180037108     _nodert_generated.obj
 0002:00002118       __uuidof_?AV?$AsyncOperationCompletedHandler@PE$AAVUri@Foundation@Windows@@@Foundation@Windows@@ 0000000180037118     _nodert_generated.obj
 0002:00002128       __uuidof_?AV?$AsyncOperationCompletedHandler@W4SetAccountPictureResult@UserProfile@System@Windows@@@Foundation@Windows@@ 0000000180037128     _nodert_generated.obj
 0002:00002138       _GUID_af86e2e0_b12d_4c6a_9c5a_d7aa65101e90 0000000180037138     _nodert_generated.obj
 0002:00002148       __uuidof_?AVUser@System@Windows@@ 0000000180037148     _nodert_generated.obj
 0002:00002158       __uuidof_?AV?$AsyncOperationCompletedHandler@_N@Foundation@Windows@@ 0000000180037158     _nodert_generated.obj
 0002:00002168       __uuidof_?AU__abi_IDelegate@?$EventHandler@PE$AAVObject@Platform@@@Foundation@Windows@@ 0000000180037168     _nodert_generated.obj
 0002:00002178       __uuidof_?AU__I_IAsyncActionToAsyncOperationConverterPublicNonVirtuals@details@Concurrency@@ 0000000180037178     _nodert_generated.obj
 0002:00002188       __uuidof_?AVAsyncActionCompletedHandler@Foundation@Windows@@ 0000000180037188     _nodert_generated.obj
 0002:00002188       __uuidof_?AU__abi_IDelegate@AsyncActionCompletedHandler@Foundation@Windows@@ 0000000180037188     _nodert_generated.obj
 0002:00002198       __uuidof_?AV?$AsyncOperationCompletedHandler@PE$AAVString@Platform@@@Foundation@Windows@@ 0000000180037198     _nodert_generated.obj
 0002:000021a8       ??_C@_07KPENDMPA@HRESULT?$AA@ 00000001800371a8     NodeRtUtils.obj
 0002:000021b0       ??_C@_0BE@FOACCDKJ@__winRtNamespaces__?$AA@ 00000001800371b0     NodeRtUtils.obj
 0002:000021d0       ??_C@_1FG@NEAKPMBB@?$AAF?$AAa?$AAi?$AAl?$AAe?$AAd?$AA?5?$AAt?$AAo?$AA?5?$AAo?$AAb?$AAt?$AAa?$AAi?$AAn?$AA?5?$AAe?$AAx?$AAt?$AAe?$AAr?$AAn?$AAa?$AAl?$AA?5?$AAn?$AAa?$AAm?$AAe?$AAs?$AAp@ 00000001800371d0     NodeRtUtils.obj
 0002:00002228       ??_C@_0O@CPBGCLBG@OpaqueWrapper?$AA@ 0000000180037228     OpaqueWrapper.obj
 0002:00007630       _load_config_used          000000018003c630     MSVCRT:loadcfg.obj
 0002:000076c8       _tls_used                  000000018003c6c8     MSVCRT:tlssup.obj
 0002:000076f0       ??_R3ModuleBase@Details@WRL@Microsoft@@8 000000018003c6f0     vccorlib:init.obj
 0002:00007708       ??_R2ModuleBase@Details@WRL@Microsoft@@8 000000018003c708     vccorlib:init.obj
 0002:00007718       ??_R1A@?0A@EA@ModuleBase@Details@WRL@Microsoft@@8 000000018003c718     vccorlib:init.obj
 0002:00007740       ??_R4InProcModule@Details@Platform@@6B?$Module@$04VInProcModule@Details@Platform@@@WRL@Microsoft@@@ 000000018003c740     vccorlib:init.obj
 0002:00007768       ??_R3InProcModule@Details@Platform@@8 000000018003c768     vccorlib:init.obj
 0002:00007780       ??_R2InProcModule@Details@Platform@@8 000000018003c780     vccorlib:init.obj
 0002:000077b0       ??_R1A@?0A@EA@InProcModule@Details@Platform@@8 000000018003c7b0     vccorlib:init.obj
 0002:000077d8       ??_R1A@?0A@EA@?$Module@$04VInProcModule@Details@Platform@@@WRL@Microsoft@@8 000000018003c7d8     vccorlib:init.obj
 0002:00007800       ??_R3?$Module@$04VInProcModule@Details@Platform@@@WRL@Microsoft@@8 000000018003c800     vccorlib:init.obj
 0002:00007818       ??_R2?$Module@$04VInProcModule@Details@Platform@@@WRL@Microsoft@@8 000000018003c818     vccorlib:init.obj
 0002:00007838       ??_R1A@?0A@EA@?$Module@$00VInProcModule@Details@Platform@@@WRL@Microsoft@@8 000000018003c838     vccorlib:init.obj
 0002:00007860       ??_R3?$Module@$00VInProcModule@Details@Platform@@@WRL@Microsoft@@8 000000018003c860     vccorlib:init.obj
 0002:00007878       ??_R2?$Module@$00VInProcModule@Details@Platform@@@WRL@Microsoft@@8 000000018003c878     vccorlib:init.obj
 0002:00007890       ??_R17?0A@EA@__abi_Module@@8 000000018003c890     vccorlib:init.obj
 0002:000078b8       ??_R3__abi_Module@@8       000000018003c8b8     vccorlib:init.obj
 0002:000078d0       ??_R2__abi_Module@@8       000000018003c8d0     vccorlib:init.obj
 0002:000078e0       ??_R1A@?0A@EA@__abi_Module@@8 000000018003c8e0     vccorlib:init.obj
 0002:00007908       ??_R4InProcModule@Details@Platform@@6B__abi_Module@@@ 000000018003c908     vccorlib:init.obj
 0002:00007930       ??_R4?$Module@$00VInProcModule@Details@Platform@@@WRL@Microsoft@@6B@ 000000018003c930     vccorlib:init.obj
 0002:00007958       ??_R4type_info@@6B@        000000018003c958     MSVCRT:std_type_info_static.obj
 0002:00007980       ??_R3type_info@@8          000000018003c980     MSVCRT:std_type_info_static.obj
 0002:00007998       ??_R2type_info@@8          000000018003c998     MSVCRT:std_type_info_static.obj
 0002:000079a8       ??_R1A@?0A@EA@type_info@@8 000000018003c9a8     MSVCRT:std_type_info_static.obj
 0002:000079d0       ??_R4exception@std@@6B@    000000018003c9d0     MSVCRT:throw_bad_alloc.obj
 0002:000079f8       ??_R3exception@std@@8      000000018003c9f8     MSVCRT:throw_bad_alloc.obj
 0002:00007a10       ??_R2exception@std@@8      000000018003ca10     MSVCRT:throw_bad_alloc.obj
 0002:00007a20       ??_R1A@?0A@EA@exception@std@@8 000000018003ca20     MSVCRT:throw_bad_alloc.obj
 0002:00007a48       ??_R4bad_alloc@std@@6B@    000000018003ca48     MSVCRT:throw_bad_alloc.obj
 0002:00007a70       ??_R3bad_alloc@std@@8      000000018003ca70     MSVCRT:throw_bad_alloc.obj
 0002:00007a88       ??_R2bad_alloc@std@@8      000000018003ca88     MSVCRT:throw_bad_alloc.obj
 0002:00007aa0       ??_R1A@?0A@EA@bad_alloc@std@@8 000000018003caa0     MSVCRT:throw_bad_alloc.obj
 0002:00007ac8       ??_R4bad_array_new_length@std@@6B@ 000000018003cac8     MSVCRT:throw_bad_alloc.obj
 0002:00007af0       ??_R3bad_array_new_length@std@@8 000000018003caf0     MSVCRT:throw_bad_alloc.obj
 0002:00007b08       ??_R2bad_array_new_length@std@@8 000000018003cb08     MSVCRT:throw_bad_alloc.obj
 0002:00007b28       ??_R1A@?0A@EA@bad_array_new_length@std@@8 000000018003cb28     MSVCRT:throw_bad_alloc.obj
 0002:00007f90       __rtc_iaa                  000000018003cf90     MSVCRT:_initsect_.obj
 0002:00007f98       __rtc_izz                  000000018003cf98     MSVCRT:_initsect_.obj
 0002:00007fa0       __rtc_taa                  000000018003cfa0     MSVCRT:_initsect_.obj
 0002:00007fa8       __rtc_tzz                  000000018003cfa8     MSVCRT:_initsect_.obj
 0002:00016840       _TI2?AVbad_alloc@std@@     000000018004b840     MSVCRT:throw_bad_alloc.obj
 0002:00016860       _CTA2?AVbad_alloc@std@@    000000018004b860     MSVCRT:throw_bad_alloc.obj
 0002:00016878       _CT??_R0?AVbad_alloc@std@@@8??0bad_alloc@std@@QEAA@AEBV01@@Z24 000000018004b878     MSVCRT:throw_bad_alloc.obj
 0002:000168a0       _CT??_R0?AVexception@std@@@8??0exception@std@@QEAA@AEBV01@@Z24 000000018004b8a0     MSVCRT:throw_bad_alloc.obj
 0002:000168c8       _TI3?AVbad_array_new_length@std@@ 000000018004b8c8     MSVCRT:throw_bad_alloc.obj
 0002:000168e8       _CTA3?AVbad_array_new_length@std@@ 000000018004b8e8     MSVCRT:throw_bad_alloc.obj
 0002:00016908       _CT??_R0?AVbad_array_new_length@std@@@8??0bad_array_new_length@std@@QEAA@AEBV01@@Z24 000000018004b908     MSVCRT:throw_bad_alloc.obj
 0002:00016930       _TI9PE$AAVException@Platform@@ 000000018004b930     _nodert_generated.obj
 0002:00016950       _CT??_R0PE$AAUIEquatable@Details@Platform@@@8816 000000018004b950     _nodert_generated.obj
 0002:00016980       _CTA9PE$AAVException@Platform@@ 000000018004b980     _nodert_generated.obj
 0002:000169d0       _CTA11PE$AAVNullReferenceException@Platform@@ 000000018004b9d0     _nodert_generated.obj
 0002:00016a30       _CT??_R0PE$AAVObject@Platform@@@888 000000018004ba30     _nodert_generated.obj
 0002:00016a58       _TI11PE$AAVNullReferenceException@Platform@@ 000000018004ba58     _nodert_generated.obj
 0002:00016a78       _CT??_R0PE$AAVException@Platform@@@88 000000018004ba78     _nodert_generated.obj
 0002:00016aa0       _TI2?AVruntime_error@std@@ 000000018004baa0     _nodert_generated.obj
 0002:00016ac0       _CT??_R0PE$AAUIPrintable@Details@Platform@@@888 000000018004bac0     _nodert_generated.obj
 0002:00016ae8       _CT??_R0PE$AAVObject@Platform@@@8816 000000018004bae8     _nodert_generated.obj
 0002:00016b10       _CT??_R0PE$AAVNullReferenceException@Platform@@@88 000000018004bb10     _nodert_generated.obj
 0002:00016b38       _CT??_R0PE$AAVObject@Platform@@@88 000000018004bb38     _nodert_generated.obj
 0002:00016b60       _CT??_R0PE$AAUIDisposable@Platform@@@8824 000000018004bb60     _nodert_generated.obj
 0002:00016b88       _CT??_R0PE$AAVCOMException@Platform@@@88 000000018004bb88     _nodert_generated.obj
 0002:00016bb0       _CTA2?AVruntime_error@std@@ 000000018004bbb0     _nodert_generated.obj
 0002:00016bc8       _CT??_R0PEAX@88            000000018004bbc8     _nodert_generated.obj
 0002:00016bf0       _CT??_R0?AVexception@stdext@@@816 000000018004bbf0     _nodert_generated.obj
 0002:00016c18       _CT??_R0?AVruntime_error@std@@@816 000000018004bc18     _nodert_generated.obj
 0002:00016c40       _CT??_R0PE$AAVObject@Platform@@@8824 000000018004bc40     _nodert_generated.obj
 0002:00016cc4       __IMPORT_DESCRIPTOR_KERNEL32 000000018004bcc4     kernel32:KERNEL32.dll
 0002:00016cd8       __IMPORT_DESCRIPTOR_ole32  000000018004bcd8     ole32:ole32.dll
 0002:00016cec       __IMPORT_DESCRIPTOR_node   000000018004bcec     iojs:node.dll
 0002:00016d00       __IMPORT_DESCRIPTOR_vccorlib140 000000018004bd00     vccorlib:vccorlib140.DLL
 0002:00016d14       __IMPORT_DESCRIPTOR_MSVCP140 000000018004bd14     msvcprt:MSVCP140.dll
 0002:00016d28       __IMPORT_DESCRIPTOR_VCRUNTIME140 000000018004bd28     vcruntime:VCRUNTIME140.dll
 0002:00016d3c       __IMPORT_DESCRIPTOR_api-ms-win-crt-runtime-l1-1-0 000000018004bd3c     ucrt:api-ms-win-crt-runtime-l1-1-0.dll
 0002:00016d50       __IMPORT_DESCRIPTOR_api-ms-win-crt-string-l1-1-0 000000018004bd50     ucrt:api-ms-win-crt-string-l1-1-0.dll
 0002:00016d64       __IMPORT_DESCRIPTOR_api-ms-win-crt-heap-l1-1-0 000000018004bd64     ucrt:api-ms-win-crt-heap-l1-1-0.dll
 0002:00016d78       __IMPORT_DESCRIPTOR_api-ms-win-core-winrt-string-l1-1-0 000000018004bd78     runtimeobject:api-ms-win-core-winrt-string-l1-1-0.dll
 0002:00016d8c       __NULL_IMPORT_DESCRIPTOR   000000018004bd8c     kernel32:KERNEL32.dll
 0003:00000008       ??_7?$Module@$00VInProcModule@Details@Platform@@@WRL@Microsoft@@6B@ 000000018004f008     vccorlib:init.obj
 0003:00000070       ??_7InProcModule@Details@Platform@@6B?$Module@$04VInProcModule@Details@Platform@@@WRL@Microsoft@@@ 000000018004f070     vccorlib:init.obj
 0003:000000d8       ??_7InProcModule@Details@Platform@@6B__abi_Module@@@ 000000018004f0d8     vccorlib:init.obj
 0003:000000f0       _Init_global_epoch         000000018004f0f0     MSVCRT:thread_safe_statics.obj
 0003:000000f4       __scrt_native_dllmain_reason 000000018004f0f4     MSVCRT:utility.obj
 0003:000000f8       __security_cookie          000000018004f0f8     MSVCRT:gs_cookie.obj
 0003:00000100       __security_cookie_complement 000000018004f100     MSVCRT:gs_cookie.obj
 0003:00000108       __isa_available            000000018004f108     MSVCRT:_cpu_disp_.obj
 0003:0000010c       __isa_enabled              000000018004f10c     MSVCRT:_cpu_disp_.obj
 0003:00000110       __memcpy_nt_iters          000000018004f110     MSVCRT:_cpu_disp_.obj
 0003:00000120       __scrt_ucrt_dll_is_in_use  000000018004f120     MSVCRT:ucrt_stubs.obj
 0003:00000128       ??_7?$AsyncOperationCompletedHandler@W4SetImageFeedResult@UserProfile@System@Windows@@@Foundation@Windows@@6B@ 000000018004f128     _nodert_generated.obj
 0003:00000158       ??_7?$_Func_impl@V<lambda_34d5782f3f5521aea81e3edfb7162e5f>@@V?$allocator@H@std@@XV?$function@$$A6AXHPEAV?$Local@VValue@v8@@@v8@@@Z@3@@std@@6B@ 000000018004f158     _nodert_generated.obj
 0003:00000188       ??_7_IAsyncActionToAsyncOperationConverter@details@Concurrency@@6B__abi_IUnknown@@@ 000000018004f188     _nodert_generated.obj
 0003:000001b0       ??_7?$AsyncOperationCompletedHandler@E@Foundation@Windows@@6B@ 000000018004f1b0     _nodert_generated.obj
 0003:000001e0       ??_7?$_Func_base@V?$Local@VValue@v8@@@v8@@PE$AAVObject@Platform@@@std@@6B@ 000000018004f1e0     _nodert_generated.obj
 0003:00000210       ??_7AsyncActionCompletedHandler@Foundation@Windows@@6B__abi_IUnknown@@@ 000000018004f210     _nodert_generated.obj
 0003:00000238       ??_7?$_Func_impl@V<lambda_7fe100d452bfc50bc5609b497b51776a>@@V?$allocator@H@std@@XV?$task@PE$AAVString@Platform@@@Concurrency@@@std@@6B@ 000000018004f238     _nodert_generated.obj
 0003:00000268       ??_7?$_Func_impl@V<lambda_88a6fc8dc694f47ad77b7fd720085f6f>@@V?$allocator@H@std@@EV?$task@W4SetImageFeedResult@UserProfile@System@Windows@@@Concurrency@@@std@@6B@ 000000018004f268     _nodert_generated.obj
 0003:00000298       ??_7?$AsyncOperationCompletedHandler@W4SetAccountPictureResult@UserProfile@System@Windows@@@Foundation@Windows@@6B__abi_IUnknown@@@ 000000018004f298     _nodert_generated.obj
 0003:000002c0       ??_7?$__abi_FunctorCapture@V<lambda_5788598dc246eca24bc8735a696d9b3a>@@XPE$AAU?$IAsyncOperation@PE$AAVString@Platform@@@Foundation@Windows@@W4AsyncStatus@34@@Details@Platform@@6B@ 000000018004f2c0     _nodert_generated.obj
 0003:000002d0       ??_7?$_Func_impl@V<lambda_cc078ed2b0c8209a59551d1a1c4abe97>@@V?$allocator@H@std@@XV?$function@$$A6AXHPEAV?$Local@VValue@v8@@@v8@@@Z@3@@std@@6B@ 000000018004f2d0     _nodert_generated.obj
 0003:00000300       ??_7?$_Func_impl@V<lambda_bb3ea35c7a129712676a4a6472ecdc6a>@@V?$allocator@H@std@@X$$V@std@@6B@ 000000018004f300     _nodert_generated.obj
 0003:00000330       ??_7?$AsyncOperationCompletedHandler@E@Foundation@Windows@@6BObject@Platform@@@ 000000018004f330     _nodert_generated.obj
 0003:00000360       ??_7?$_Func_base@XV?$task@W4SetAccountPictureResult@UserProfile@System@Windows@@@Concurrency@@@std@@6B@ 000000018004f360     _nodert_generated.obj
 0003:00000390       ??_7?$_Func_impl@V<lambda_231b748b8da94b7eb54bd82ce5de0e20>@@V?$allocator@H@std@@X$$V@std@@6B@ 000000018004f390     _nodert_generated.obj
 0003:000003c0       ??_7?$_Func_impl@V<lambda_326f6c7fd35a5e479c8f23ef8a4cb891>@@V?$allocator@H@std@@XV?$function@$$A6AXHPEAV?$Local@VValue@v8@@@v8@@@Z@3@@std@@6B@ 000000018004f3c0     _nodert_generated.obj
 0003:000003f0       ??_7?$_Func_impl@V<lambda_a17e3eb8892ab9825149c4ba725890fa>@@V?$allocator@H@std@@XV?$function@$$A6AXHPEAV?$Local@VValue@v8@@@v8@@@Z@3@@std@@6B@ 000000018004f3f0     _nodert_generated.obj
 0003:00000420       ??_7?$_Func_impl@V<lambda_5cd250c4e6f910ea43081ee63870250a>@@V?$allocator@H@std@@XV?$function@$$A6AXHPEAV?$Local@VValue@v8@@@v8@@@Z@3@@std@@6B@ 000000018004f420     _nodert_generated.obj
 0003:00000450       ??_7?$_Func_impl@V<lambda_f670e7edba470851bf82d4b0912a66c9>@@V?$allocator@H@std@@PE$AAVString@Platform@@V?$Local@VValue@v8@@@v8@@@std@@6B@ 000000018004f450     _nodert_generated.obj
 0003:00000480       ??_7?$_Func_base@XV?$task@_N@Concurrency@@@std@@6B@ 000000018004f480     _nodert_generated.obj
 0003:000004b0       ??_7?$_Func_impl@V<lambda_f09785eba58e50f096cc8fed22f3cc63>@@V?$allocator@H@std@@V?$Local@VValue@v8@@@v8@@PE$AAVString@Platform@@@std@@6B@ 000000018004f4b0     _nodert_generated.obj
 0003:000004e0       ??_7?$_Func_impl@V<lambda_587670df7112283a5c24be1cf3e10d12>@@V?$allocator@H@std@@V?$Local@VValue@v8@@@v8@@PE$AAVObject@Platform@@@std@@6B@ 000000018004f4e0     _nodert_generated.obj
 0003:00000510       ??_7?$AsyncOperationCompletedHandler@PE$AAVString@Platform@@@Foundation@Windows@@6B@ 000000018004f510     _nodert_generated.obj
 0003:00000540       ??_7?$_Func_impl@V<lambda_4b6c9b9cdf3bd454ea74273f1cd1ed83>@@V?$allocator@H@std@@X$$V@std@@6B@ 000000018004f540     _nodert_generated.obj
 0003:00000570       ??_7?$_Ref_count_obj@U?$_Task_impl@W4SetImageFeedResult@UserProfile@System@Windows@@@details@Concurrency@@@std@@6B@ 000000018004f570     _nodert_generated.obj
 0003:00000590       ??_7?$_AsyncInfoImpl@PE$AAUIAsyncAction@Foundation@Windows@@VAsyncActionCompletedHandler@23@E@details@Concurrency@@6BObject@Platform@@?$IAsyncOperation@E@Foundation@Windows@@@ 000000018004f590     _nodert_generated.obj
 0003:000005f0       ??_7?$_Func_impl@V<lambda_f690099ae625f80b95a1d81ffb1845cf>@@V?$allocator@H@std@@XV?$function@$$A6AXHPEAV?$Local@VValue@v8@@@v8@@@Z@3@@std@@6B@ 000000018004f5f0     _nodert_generated.obj
 0003:00000620       ??_7?$IteratorWrapper@PE$AAVString@Platform@@@Collections@NodeRT@@6B@ 000000018004f620     _nodert_generated.obj
 0003:00000640       ??_7?$AsyncOperationCompletedHandler@_N@Foundation@Windows@@6BObject@Platform@@@ 000000018004f640     _nodert_generated.obj
 0003:00000670       ??_7_DefaultPPLTaskScheduler@details@Concurrency@@6B@ 000000018004f670     _nodert_generated.obj
 0003:00000678       ??_7?$_Func_impl@V<lambda_09190bd06ab069a832e2523f3781087c>@@V?$allocator@H@std@@XV?$function@$$A6AXHPEAV?$Local@VValue@v8@@@v8@@@Z@3@@std@@6B@ 000000018004f678     _nodert_generated.obj
 0003:000006a8       ??_7?$_Func_base@V?$Local@VValue@v8@@@v8@@PE$AAVString@Platform@@@std@@6B@ 000000018004f6a8     _nodert_generated.obj
 0003:000006d8       ??_7TokenData@Async@NodeUtils@@6B@ 000000018004f6d8     _nodert_generated.obj
 0003:000006e0       ??_7?$_Func_impl@V<lambda_621e08f071ba6e5d5373417c49677dca>@@V?$allocator@H@std@@XV?$function@$$A6AXHPEAV?$Local@VValue@v8@@@v8@@@Z@3@@std@@6B@ 000000018004f6e0     _nodert_generated.obj
 0003:00000710       ??_7?$_Func_impl@V<lambda_09e6080208e0b35848a7b34c2a0656fe>@@V?$allocator@H@std@@XV?$task@W4SetAccountPictureResult@UserProfile@System@Windows@@@Concurrency@@@std@@6B@ 000000018004f710     _nodert_generated.obj
 0003:00000740       ??_7?$_Task_impl@PE$AAVUri@Foundation@Windows@@@details@Concurrency@@6B@ 000000018004f740     _nodert_generated.obj
 0003:00000750       ??_7?$_Func_impl@V<lambda_18b2633ead7fc6f6e4469ed3eeb4e6fa>@@V?$allocator@H@std@@XV?$function@$$A6AXHPEAV?$Local@VValue@v8@@@v8@@@Z@3@@std@@6B@ 000000018004f750     _nodert_generated.obj
 0003:00000780       ??_7?$_Ref_count_obj@U?$_Task_impl@_N@details@Concurrency@@@std@@6B@ 000000018004f780     _nodert_generated.obj
 0003:000007a0       ??_7?$EventHandler@PE$AAVObject@Platform@@@Foundation@Windows@@6BObject@Platform@@@ 000000018004f7a0     _nodert_generated.obj
 0003:000007d0       ??_7?$_Func_impl@V<lambda_4ccdb47b7f1ffbf2ccf188975fda679b>@@V?$allocator@H@std@@XV?$function@$$A6AXHPEAV?$Local@VValue@v8@@@v8@@@Z@3@@std@@6B@ 000000018004f7d0     _nodert_generated.obj
 0003:00000800       ??_7?$_ContinuationTaskHandle@PE$AAVString@Platform@@XV?$function@$$A6AXV?$task@PE$AAVString@Platform@@@Concurrency@@@Z@std@@U?$integral_constant@_N$00@4@U_TypeSelectorNoAsync@details@Concurrency@@@?$task@PE$AAVString@Platform@@@Concurrency@@6B@ 000000018004f800     _nodert_generated.obj
 0003:00000818       ??_7?$_Func_impl@V<lambda_4531d86c204c1c2cbe2cef4be8195a23>@@V?$allocator@H@std@@XV?$function@$$A6AXHPEAV?$Local@VValue@v8@@@v8@@@Z@3@@std@@6B@ 000000018004f818     _nodert_generated.obj
 0003:00000848       ??_7?$AsyncOperationCompletedHandler@PE$AAVString@Platform@@@Foundation@Windows@@6BObject@Platform@@@ 000000018004f848     _nodert_generated.obj
 0003:00000878       ??_7?$_Func_impl@V<lambda_d8c8bc66ae64912877885a1264c60903>@@V?$allocator@H@std@@_NV?$Local@VValue@v8@@@v8@@@std@@6B@ 000000018004f878     _nodert_generated.obj
 0003:000008a8       ??_7?$AsyncOperationCompletedHandler@PE$AAVUri@Foundation@Windows@@@Foundation@Windows@@6B@ 000000018004f8a8     _nodert_generated.obj
 0003:000008d8       ??_7?$_Func_impl@V<lambda_b360fbdf5b4ffbfcd8c64068c8670886>@@V?$allocator@H@std@@V?$Local@VValue@v8@@@v8@@PE$AAVString@Platform@@@std@@6B@ 000000018004f8d8     _nodert_generated.obj
 0003:00000908       ??_7?$_Func_impl@V<lambda_b0459761a89b1478eff3530a12ff80c5>@@V?$allocator@H@std@@XV?$function@$$A6AXHPEAV?$Local@VValue@v8@@@v8@@@Z@3@@std@@6B@ 000000018004f908     _nodert_generated.obj
 0003:00000938       ??_7_CancellationTokenRegistration@details@Concurrency@@6B@ 000000018004f938     _nodert_generated.obj
 0003:00000950       ??_7?$_Func_impl@V<lambda_ac0fbf381b812e535c5187d22631972a>@@V?$allocator@H@std@@X$$V@std@@6B@ 000000018004f950     _nodert_generated.obj
 0003:00000980       ??_7?$KeyValuePairWrapper@PE$AAVString@Platform@@PE$AAVObject@2@@Collections@NodeRT@@6B@ 000000018004f980     _nodert_generated.obj
 0003:000009a0       ??_7?$_Func_impl@V<lambda_713d43ab4c57f2fa914cada6953956e0>@@V?$allocator@H@std@@XV?$function@$$A6AXHPEAV?$Local@VValue@v8@@@v8@@@Z@3@@std@@6B@ 000000018004f9a0     _nodert_generated.obj
 0003:000009d0       ??_7?$_Func_impl@V<lambda_2ade840f8176aa66a6fbfe3c3eead4f6>@@V?$allocator@H@std@@XV?$task@PE$AAVString@Platform@@@Concurrency@@@std@@6B@ 000000018004f9d0     _nodert_generated.obj
 0003:00000a00       ??_7?$_Func_impl@V<lambda_cbae8c6cf33875e01c338a5f99abe71d>@@V?$allocator@H@std@@XV?$task@X@Concurrency@@@std@@6B@ 000000018004fa00     _nodert_generated.obj
 0003:00000a30       ??_7UserProfilePersonalizationSettings@UserProfile@System@Windows@NodeRT@@6B@ 000000018004fa30     _nodert_generated.obj
 0003:00000a50       ??_7?$_Func_impl@V<lambda_dcb12585ed824e6d01e61282120cf55e>@@V?$allocator@H@std@@XV?$function@$$A6AXHPEAV?$Local@VValue@v8@@@v8@@@Z@3@@std@@6B@ 000000018004fa50     _nodert_generated.obj
 0003:00000a80       ??_7?$_Func_impl@V<lambda_33f6d1522ba7a677218c6b9422376f67>@@V?$allocator@H@std@@XV?$task@W4SetAccountPictureResult@UserProfile@System@Windows@@@Concurrency@@@std@@6B@ 000000018004fa80     _nodert_generated.obj
 0003:00000ab0       ??_7?$_Func_impl@V<lambda_205294ac9d93e11a49f76c7d4aaeec33>@@V?$allocator@H@std@@XV?$task@_N@Concurrency@@@std@@6B@ 000000018004fab0     _nodert_generated.obj
 0003:00000ae0       ??_7?$_Func_base@XV?$task@PE$AAVString@Platform@@@Concurrency@@@std@@6B@ 000000018004fae0     _nodert_generated.obj
 0003:00000b10       ??_7?$_Func_impl@V<lambda_14a9c0ba59923c0da6a7a331b40a12a7>@@V?$allocator@H@std@@XV?$function@$$A6AXHPEAV?$Local@VValue@v8@@@v8@@@Z@3@@std@@6B@ 000000018004fb10     _nodert_generated.obj
 0003:00000b40       ??_7?$_Ref_count_obj@U_ExceptionHolder@details@Concurrency@@@std@@6B@ 000000018004fb40     _nodert_generated.obj
 0003:00000b60       ??_7_RefCounter@details@Concurrency@@6B@ 000000018004fb60     _nodert_generated.obj
 0003:00000b70       ??_7_IAsyncActionToAsyncOperationConverter@details@Concurrency@@6B@ 000000018004fb70     _nodert_generated.obj
 0003:00000ba0       ??_7?$_Func_base@XV?$task@PE$AAVUri@Foundation@Windows@@@Concurrency@@@std@@6B@ 000000018004fba0     _nodert_generated.obj
 0003:00000bd0       ??_7?$_PPLTaskHandle@EU?$_ContinuationTaskHandle@W4SetImageFeedResult@UserProfile@System@Windows@@XV?$function@$$A6AXV?$task@W4SetImageFeedResult@UserProfile@System@Windows@@@Concurrency@@@Z@std@@U?$integral_constant@_N$00@6@U_TypeSelectorNoAsync@details@Concurrency@@@?$task@W4SetImageFeedResult@UserProfile@System@Windows@@@Concurrency@@U_ContinuationTaskHandleBase@details@3@@details@Concurrency@@6B@ 000000018004fbd0     _nodert_generated.obj
 0003:00000be8       ??_7?$_Func_impl@V<lambda_763529b0c7473cbc215a52d189ac9b18>@@V?$allocator@H@std@@X$$V@std@@6B@ 000000018004fbe8     _nodert_generated.obj
 0003:00000c18       ??_7?$_Func_impl@V<lambda_560709c181b7cb4e9c377fd68c191fda>@@V?$allocator@H@std@@_NV?$Local@VValue@v8@@@v8@@@std@@6B@ 000000018004fc18     _nodert_generated.obj
 0003:00000c48       ??_7?$AsyncOperationCompletedHandler@W4SetAccountPictureResult@UserProfile@System@Windows@@@Foundation@Windows@@6BObject@Platform@@@ 000000018004fc48     _nodert_generated.obj
 0003:00000c78       ??_7?$_Task_impl@_N@details@Concurrency@@6B@ 000000018004fc78     _nodert_generated.obj
 0003:00000c88       ??_7?$_Func_impl@V<lambda_fc0d6554ea59c755c55dae328d38f34b>@@V?$allocator@H@std@@X$$V@std@@6B@ 000000018004fc88     _nodert_generated.obj
 0003:00000cb8       ??_7?$AsyncOperationCompletedHandler@PE$AAVUri@Foundation@Windows@@@Foundation@Windows@@6BObject@Platform@@@ 000000018004fcb8     _nodert_generated.obj
 0003:00000ce8       ??_7?$AsyncOperationCompletedHandler@W4SetImageFeedResult@UserProfile@System@Windows@@@Foundation@Windows@@6B__abi_IUnknown@@@ 000000018004fce8     _nodert_generated.obj
 0003:00000d10       ??_7?$VectorViewWrapper@PE$AAVString@Platform@@@Collections@NodeRT@@6B@ 000000018004fd10     _nodert_generated.obj
 0003:00000d30       ??_7?$_Func_impl@V<lambda_4574c27cff692f6a20728303ac3ff8b2>@@V?$allocator@H@std@@XV?$function@$$A6AXHPEAV?$Local@VValue@v8@@@v8@@@Z@3@@std@@6B@ 000000018004fd30     _nodert_generated.obj
 0003:00000d60       ??_7?$_Func_base@XV?$task@W4SetImageFeedResult@UserProfile@System@Windows@@@Concurrency@@@std@@6B@ 000000018004fd60     _nodert_generated.obj
 0003:00000d90       ??_7?$_Func_impl@V<lambda_1af583cf6945007177c61d87505abd8e>@@V?$allocator@H@std@@XHPEAV?$Local@VValue@v8@@@v8@@@std@@6B@ 000000018004fd90     _nodert_generated.obj
 0003:00000dc0       ??_7?$__abi_FunctorCapture@V<lambda_af8508c7722addee579d0ffcec46034b>@@XPE$AAUIAsyncAction@Foundation@Windows@@W4AsyncStatus@34@@Details@Platform@@6B@ 000000018004fdc0     _nodert_generated.obj
 0003:00000dd0       ??_7?$_Func_impl@V<lambda_10c4459c2f81eb5b686592d24c9f1c09>@@V?$allocator@H@std@@PE$AAVString@Platform@@V?$Local@VValue@v8@@@v8@@@std@@6B@ 000000018004fdd0     _nodert_generated.obj
 0003:00000e00       ??_7LockScreen@UserProfile@System@Windows@NodeRT@@6B@ 000000018004fe00     _nodert_generated.obj
 0003:00000e20       ??_7?$_Func_base@XV?$task@X@Concurrency@@@std@@6B@ 000000018004fe20     _nodert_generated.obj
 0003:00000e50       ??_7?$_Func_impl@V<lambda_d5c67d5179cb9592a8ec5c4f5f4cbd46>@@V?$allocator@H@std@@XV?$task@PE$AAVUri@Foundation@Windows@@@Concurrency@@@std@@6B@ 000000018004fe50     _nodert_generated.obj
 0003:00000e80       ??_7?$_Func_base@_NV?$Local@VValue@v8@@@v8@@@std@@6B@ 000000018004fe80     _nodert_generated.obj
 0003:00000eb0       ??_7?$_Func_impl@V<lambda_dcad5dba0a743a99876a5c6849440f1f>@@V?$allocator@H@std@@XV?$function@$$A6AXHPEAV?$Local@VValue@v8@@@v8@@@Z@3@@std@@6B@ 000000018004feb0     _nodert_generated.obj
 0003:00000ee0       ??_7?$_Func_impl@V<lambda_8b9caa19dc40ec7419aa4be5d662b6a6>@@V?$allocator@H@std@@XV?$function@$$A6AXHPEAV?$Local@VValue@v8@@@v8@@@Z@3@@std@@6B@ 000000018004fee0     _nodert_generated.obj
 0003:00000f10       ??_7?$EventHandler@PE$AAVObject@Platform@@@Foundation@Windows@@6B__abi_IUnknown@@@ 000000018004ff10     _nodert_generated.obj
 0003:00000f38       ??_7?$_Func_impl@V<lambda_fcddfbb588d6d178324b6e9cbb1f8253>@@V?$allocator@H@std@@X$$V@std@@6B@ 000000018004ff38     _nodert_generated.obj
 0003:00000f68       ??_7?$_Func_base@V?$Local@VValue@v8@@@v8@@PE$AAU?$IKeyValuePair@PE$AAVString@Platform@@PE$AAVObject@2@@Collections@Foundation@Windows@@@std@@6B@ 000000018004ff68     _nodert_generated.obj
 0003:00000f98       ??_7?$_Func_impl@V<lambda_39b061c4dcc493158582a0e51eceb8d8>@@V?$allocator@H@std@@PE$AAVString@Platform@@V?$Local@VValue@v8@@@v8@@@std@@6B@ 000000018004ff98     _nodert_generated.obj
 0003:00000fc8       ??_7?$_Func_impl@V<lambda_19fd5fc6a920c979b743ae35727eef78>@@V?$allocator@H@std@@_NV?$Local@VValue@v8@@@v8@@@std@@6B@ 000000018004ffc8     _nodert_generated.obj
 0003:00000ff8       ??_7?$_Func_base@EV?$task@X@Concurrency@@@std@@6B@ 000000018004fff8     _nodert_generated.obj
 0003:00001028       ??_7?$_Func_impl@V<lambda_b0e3d2bdc7554e03e713ca9347ec6901>@@V?$allocator@H@std@@XV?$function@$$A6AXHPEAV?$Local@VValue@v8@@@v8@@@Z@3@@std@@6B@ 0000000180050028     _nodert_generated.obj
 0003:00001058       ??_7?$_Func_impl@V<lambda_f22ae8650c56c333ae2e36071b93234d>@@V?$allocator@H@std@@XV?$task@W4SetAccountPictureResult@UserProfile@System@Windows@@@Concurrency@@@std@@6B@ 0000000180050058     _nodert_generated.obj
 0003:00001088       ??_7?$AsyncOperationCompletedHandler@W4SetImageFeedResult@UserProfile@System@Windows@@@Foundation@Windows@@6BObject@Platform@@@ 0000000180050088     _nodert_generated.obj
 0003:000010b8       ??_7AdvertisingManager@UserProfile@System@Windows@NodeRT@@6B@ 00000001800500b8     _nodert_generated.obj
 0003:000010d8       ??_7?$_ContinuationTaskHandle@W4SetImageFeedResult@UserProfile@System@Windows@@XV?$function@$$A6AXV?$task@W4SetImageFeedResult@UserProfile@System@Windows@@@Concurrency@@@Z@std@@U?$integral_constant@_N$00@6@U_TypeSelectorNoAsync@details@Concurrency@@@?$task@W4SetImageFeedResult@UserProfile@System@Windows@@@Concurrency@@6B@ 00000001800500d8     _nodert_generated.obj
 0003:000010f0       ??_7UserInformation@UserProfile@System@Windows@NodeRT@@6B@ 00000001800500f0     _nodert_generated.obj
 0003:00001110       ??_7?$_Func_impl@V<lambda_e9925fcb3d885ef5d135703b17266fe6>@@V?$allocator@H@std@@EV?$task@W4SetAccountPictureResult@UserProfile@System@Windows@@@Concurrency@@@std@@6B@ 0000000180050110     _nodert_generated.obj
 0003:00001140       ??_7?$_Func_impl@V<lambda_252a23a4c4e06e57aa01918ce60919db>@@V?$allocator@H@std@@EV?$task@PE$AAVString@Platform@@@Concurrency@@@std@@6B@ 0000000180050140     _nodert_generated.obj
 0003:00001170       ??_7?$_Func_impl@V<lambda_eb54b70ebb75077bd41b4b5eb7f9699c>@@V?$allocator@H@std@@PE$AAVString@Platform@@V?$Local@VValue@v8@@@v8@@@std@@6B@ 0000000180050170     _nodert_generated.obj
 0003:000011a0       ??_7?$_Func_impl@V<lambda_849986207adba1f7efb90e156e6a7b76>@@V?$allocator@H@std@@XV?$function@$$A6AXHPEAV?$Local@VValue@v8@@@v8@@@Z@3@@std@@6B@ 00000001800501a0     _nodert_generated.obj
 0003:000011d0       ??_7?$_Func_impl@V<lambda_7c85cdcc7b722a73124a4747dd95cece>@@V?$allocator@H@std@@V?$Local@VValue@v8@@@v8@@PE$AAU?$IKeyValuePair@PE$AAVString@Platform@@PE$AAVObject@2@@Collections@Foundation@Windows@@@std@@6B@ 00000001800501d0     _nodert_generated.obj
 0003:00001200       ??_7?$_Func_impl@V<lambda_5a1c437f17fa466aabaf7b0153a0ecc3>@@V?$allocator@H@std@@EV?$task@_N@Concurrency@@@std@@6B@ 0000000180050200     _nodert_generated.obj
 0003:00001230       ??_7?$__abi_FunctorCapture@V<lambda_25518ce64e668348e750903f4cd6cc24>@@XPE$AAVObject@Platform@@PE$AAV23@@Details@Platform@@6B@ 0000000180050230     _nodert_generated.obj
 0003:00001240       ??_7?$_Task_impl@PE$AAVString@Platform@@@details@Concurrency@@6B@ 0000000180050240     _nodert_generated.obj
 0003:00001250       ??_7_IAsyncActionToAsyncOperationConverter@details@Concurrency@@6BIAsyncInfo@Foundation@Windows@@@ 0000000180050250     _nodert_generated.obj
 0003:000012d0       ??_7?$_Func_impl@V<lambda_cc72383f0805d59c97333d5cd58436ef>@@V?$allocator@H@std@@V?$Local@VValue@v8@@@v8@@PE$AAVString@Platform@@@std@@6B@ 00000001800502d0     _nodert_generated.obj
 0003:00001300       ??_7?$_Func_impl@V<lambda_f654db1f4b3763a2796792ed092520e3>@@V?$allocator@H@std@@XV?$task@PE$AAVString@Platform@@@Concurrency@@@std@@6B@ 0000000180050300     _nodert_generated.obj
 0003:00001330       ??_7?$_Ref_count_del@V?$Persistent@VObject@v8@@V?$NonCopyablePersistentTraits@VObject@v8@@@2@@Nan@@V<lambda_9a5068aaf379780d6b6b94ab8a1eb0ff>@@@std@@6B@ 0000000180050330     _nodert_generated.obj
 0003:00001350       ??_7?$_Func_base@X$$V@std@@6B@ 0000000180050350     _nodert_generated.obj
 0003:00001380       ??_7_Ref_count_base@std@@6B@ 0000000180050380     _nodert_generated.obj
 0003:000013a0       ??_7?$_Func_impl@V<lambda_34316d8807e26dc07711d920bbc983e2>@@V?$allocator@H@std@@XV?$function@$$A6AXHPEAV?$Local@VValue@v8@@@v8@@@Z@3@@std@@6B@ 00000001800503a0     _nodert_generated.obj
 0003:000013d0       ??_7?$_Func_impl@V<lambda_de0b6cb514951d25629a6327c06abf7c>@@V?$allocator@H@std@@_NV?$Local@VValue@v8@@@v8@@@std@@6B@ 00000001800503d0     _nodert_generated.obj
 0003:00001400       ??_7?$__abi_FunctorCapture@V<lambda_9c267cdafd8e064f323ec4e1c7ae30d4>@@XPE$AAU?$IAsyncOperation@_N@Foundation@Windows@@W4AsyncStatus@34@@Details@Platform@@6B@ 0000000180050400     _nodert_generated.obj
 0003:00001410       ??_7exception@stdext@@6B@  0000000180050410     _nodert_generated.obj
 0003:00001428       ??_7?$_Func_impl@V<lambda_05094e775daa4fff3e8cfe85cffce6d0>@@V?$allocator@H@std@@XV?$function@$$A6AXHPEAV?$Local@VValue@v8@@@v8@@@Z@3@@std@@6B@ 0000000180050428     _nodert_generated.obj
 0003:00001458       ??_7__abi_CaptureBase@Details@Platform@@6B@ 0000000180050458     _nodert_generated.obj
 0003:00001460       ??_7?$__abi_FunctorCapture@V<lambda_fb67dae22ed10e0de1c659f623c67076>@@XPE$AAU?$IAsyncOperation@W4SetAccountPictureResult@UserProfile@System@Windows@@@Foundation@Windows@@W4AsyncStatus@34@@Details@Platform@@6B@ 0000000180050460     _nodert_generated.obj
 0003:00001470       ??_7?$_Func_impl@V<lambda_81d13eba1fa31f29a54d9486b3b4a8ac>@@V?$allocator@H@std@@XV?$task@W4SetImageFeedResult@UserProfile@System@Windows@@@Concurrency@@@std@@6B@ 0000000180050470     _nodert_generated.obj
 0003:000014a0       ??_7?$_Task_impl@W4SetAccountPictureResult@UserProfile@System@Windows@@@details@Concurrency@@6B@ 00000001800504a0     _nodert_generated.obj
 0003:000014b0       ??_7?$_Func_impl@V<lambda_824e81c3567191544e8b6219b1196035>@@V?$allocator@H@std@@X$$V@std@@6B@ 00000001800504b0     _nodert_generated.obj
 0003:000014e0       ??_7?$_Func_impl@V<lambda_41c33d0cb9f9b5c0b079696186e35e5b>@@V?$allocator@H@std@@PE$AAVString@Platform@@V?$Local@VValue@v8@@@v8@@@std@@6B@ 00000001800504e0     _nodert_generated.obj
 0003:00001510       ??_7?$_Func_impl@V<lambda_00dae82a930d63f88c9fd3675f67fbee>@@V?$allocator@H@std@@_NV?$Local@VValue@v8@@@v8@@@std@@6B@ 0000000180050510     _nodert_generated.obj
 0003:00001540       ??_7?$_Func_impl@V<lambda_5a6aa9a858230c5449dfcdc2049eeb97>@@V?$allocator@H@std@@EV?$task@PE$AAVUri@Foundation@Windows@@@Concurrency@@@std@@6B@ 0000000180050540     _nodert_generated.obj
 0003:00001570       ??_7?$_AsyncInfoImpl@PE$AAUIAsyncAction@Foundation@Windows@@VAsyncActionCompletedHandler@23@E@details@Concurrency@@6BObject@Platform@@@ 0000000180050570     _nodert_generated.obj
 0003:000015a0       ??_7?$__abi_FunctorCapture@V<lambda_db80035d952e9a216ce91aaae9489895>@@XPE$AAU?$IAsyncOperation@E@Foundation@Windows@@W4AsyncStatus@34@@Details@Platform@@6B@ 00000001800505a0     _nodert_generated.obj
 0003:000015b0       ??_7?$_Func_impl@V<lambda_58626b52514f991d8245102f56304a1b>@@V?$allocator@H@std@@X$$V@std@@6B@ 00000001800505b0     _nodert_generated.obj
 0003:000015e0       ??_7?$_ContinuationTaskHandle@PE$AAVUri@Foundation@Windows@@XV?$function@$$A6AXV?$task@PE$AAVUri@Foundation@Windows@@@Concurrency@@@Z@std@@U?$integral_constant@_N$00@5@U_TypeSelectorNoAsync@details@Concurrency@@@?$task@PE$AAVUri@Foundation@Windows@@@Concurrency@@6B@ 00000001800505e0     _nodert_generated.obj
 0003:000015f8       ??_7?$__abi_FunctorCapture@V<lambda_70c5370cca94cc9c04a5fde8327df7e8>@@XPE$AAU?$IAsyncOperation@PE$AAVUri@Foundation@Windows@@@Foundation@Windows@@W4AsyncStatus@34@@Details@Platform@@6B@ 00000001800505f8     _nodert_generated.obj
 0003:00001650       ??_7?$AsyncOperationCompletedHandler@PE$AAVUri@Foundation@Windows@@@Foundation@Windows@@6B__abi_IUnknown@@@ 0000000180050650     _nodert_generated.obj
 0003:00001678       ??_7?$_Func_impl@V<lambda_7f4cebe17154362a5bec736b55156997>@@V?$allocator@H@std@@XV?$task@_N@Concurrency@@@std@@6B@ 0000000180050678     _nodert_generated.obj
 0003:000016a8       ??_7?$_Func_impl@V<lambda_83d3d7b70820dd48fe4cc6e62c961ea6>@@V?$allocator@H@std@@XV?$function@$$A6AXHPEAV?$Local@VValue@v8@@@v8@@@Z@3@@std@@6B@ 00000001800506a8     _nodert_generated.obj
 0003:000016d8       ??_7?$_Ref_count_obj@U?$_Task_impl@W4SetAccountPictureResult@UserProfile@System@Windows@@@details@Concurrency@@@std@@6B@ 00000001800506d8     _nodert_generated.obj
 0003:000016f8       ??_7AsyncActionCompletedHandler@Foundation@Windows@@6B@ 00000001800506f8     _nodert_generated.obj
 0003:00001728       ??_7?$_AsyncInfoImpl@PE$AAUIAsyncAction@Foundation@Windows@@VAsyncActionCompletedHandler@23@E@details@Concurrency@@6BIAsyncInfo@Foundation@Windows@@@ 0000000180050728     _nodert_generated.obj
 0003:000017a8       ??_7_TaskProcHandle@details@Concurrency@@6B@ 00000001800507a8     _nodert_generated.obj
 0003:000017b8       ??_7?$_Func_impl@V<lambda_92e205d7db2179ec6d65e88270e1e91c>@@V?$allocator@H@std@@XV?$task@PE$AAVString@Platform@@@Concurrency@@@std@@6B@ 00000001800507b8     _nodert_generated.obj
 0003:000017e8       ??_7runtime_error@std@@6B@ 00000001800507e8     _nodert_generated.obj
 0003:00001800       ??_7?$_Func_impl@V<lambda_8beb44cf918d84b3ab274f7936494749>@@V?$allocator@H@std@@XV?$function@$$A6AXHPEAV?$Local@VValue@v8@@@v8@@@Z@3@@std@@6B@ 0000000180050800     _nodert_generated.obj
 0003:00001830       ??_7_IAsyncActionToAsyncOperationConverter@details@Concurrency@@6BObject@Platform@@?$IAsyncOperation@E@Foundation@Windows@@@ 0000000180050830     _nodert_generated.obj
 0003:00001890       ??_7?$MapViewWrapper@PE$AAVString@Platform@@PE$AAVObject@2@@Collections@NodeRT@@6B@ 0000000180050890     _nodert_generated.obj
 0003:000018b0       ??_7task_canceled@Concurrency@@6B@ 00000001800508b0     _nodert_generated.obj
 0003:000018c8       ??_7?$_Func_impl@V<lambda_8215ac15cdc9e56d811858647c76cf66>@@V?$allocator@H@std@@V?$Local@VValue@v8@@@v8@@PE$AAVObject@Platform@@@std@@6B@ 00000001800508c8     _nodert_generated.obj
 0003:000018f8       ??_7?$_ContinuationTaskHandle@_NXV?$function@$$A6AXV?$task@_N@Concurrency@@@Z@std@@U?$integral_constant@_N$00@2@U_TypeSelectorNoAsync@details@Concurrency@@@?$task@_N@Concurrency@@6B@ 00000001800508f8     _nodert_generated.obj
 0003:00001910       ??_7AdvertisingManagerForUser@UserProfile@System@Windows@NodeRT@@6B@ 0000000180050910     _nodert_generated.obj
 0003:00001930       ??_7?$_Func_impl@V<lambda_8c935bb9b796b248181a9d1da9394bdb>@@V?$allocator@H@std@@X$$V@std@@6B@ 0000000180050930     _nodert_generated.obj
 0003:00001960       ??_7?$EventHandler@PE$AAVObject@Platform@@@Foundation@Windows@@6B@ 0000000180050960     _nodert_generated.obj
 0003:00001990       ??_7?$_Ref_count_del@XP6AHPEAX@Z@std@@6B@ 0000000180050990     _nodert_generated.obj
 0003:000019b0       ??_7?$_Func_impl@V<lambda_0c35f08fa008bd0bd75f4471027a7740>@@V?$allocator@H@std@@X$$V@std@@6B@ 00000001800509b0     _nodert_generated.obj
 0003:000019e0       ??_7?$_PPLTaskHandle@EU?$_ContinuationTaskHandle@W4SetAccountPictureResult@UserProfile@System@Windows@@XV?$function@$$A6AXV?$task@W4SetAccountPictureResult@UserProfile@System@Windows@@@Concurrency@@@Z@std@@U?$integral_constant@_N$00@6@U_TypeSelectorNoAsync@details@Concurrency@@@?$task@W4SetAccountPictureResult@UserProfile@System@Windows@@@Concurrency@@U_ContinuationTaskHandleBase@details@3@@details@Concurrency@@6B@ 00000001800509e0     _nodert_generated.obj
 0003:000019f8       ??_7?$_Func_base@XV?$function@$$A6AXHPEAV?$Local@VValue@v8@@@v8@@@Z@std@@@std@@6B@ 00000001800509f8     _nodert_generated.obj
 0003:00001a28       ??_7?$_PPLTaskHandle@EU?$_ContinuationTaskHandle@PE$AAVUri@Foundation@Windows@@XV?$function@$$A6AXV?$task@PE$AAVUri@Foundation@Windows@@@Concurrency@@@Z@std@@U?$integral_constant@_N$00@5@U_TypeSelectorNoAsync@details@Concurrency@@@?$task@PE$AAVUri@Foundation@Windows@@@Concurrency@@U_ContinuationTaskHandleBase@details@3@@details@Concurrency@@6B@ 0000000180050a28     _nodert_generated.obj
 0003:00001a40       ??_7ObjectWrap@Nan@@6B@    0000000180050a40     _nodert_generated.obj
 0003:00001a58       ??_7?$_Func_base@EV?$task@W4SetAccountPictureResult@UserProfile@System@Windows@@@Concurrency@@@std@@6B@ 0000000180050a58     _nodert_generated.obj
 0003:00001a88       ??_7_IAsyncActionToAsyncOperationConverter@details@Concurrency@@6BObject@Platform@@?$_AsyncInfoImpl@PE$AAUIAsyncAction@Foundation@Windows@@VAsyncActionCompletedHandler@23@E@12@@ 0000000180050a88     _nodert_generated.obj
 0003:00001ab8       ??_7?$_Func_impl@V<lambda_91b301a193aeb16ed51fb62a7ad09106>@@V?$allocator@H@std@@V?$Local@VValue@v8@@@v8@@PE$AAVObject@Platform@@@std@@6B@ 0000000180050ab8     _nodert_generated.obj
 0003:00001ae8       ??_7?$AsyncOperationCompletedHandler@_N@Foundation@Windows@@6B@ 0000000180050ae8     _nodert_generated.obj
 0003:00001b18       ??_7?$_Func_impl@V<lambda_b8357930ac6bf88aeb68092f05f6b942>@@V?$allocator@H@std@@V?$Local@VValue@v8@@@v8@@PE$AAVString@Platform@@@std@@6B@ 0000000180050b18     _nodert_generated.obj
 0003:00001b48       ??_7?$_Func_impl@V<lambda_368464cdf42a21fb3463ea12bcbd2820>@@V?$allocator@H@std@@X$$V@std@@6B@ 0000000180050b48     _nodert_generated.obj
 0003:00001b78       ??_7?$_Func_impl@V<lambda_f3af825ce7732aca5e01be2fe411dff0>@@V?$allocator@H@std@@PE$AAVString@Platform@@V?$Local@VValue@v8@@@v8@@@std@@6B@ 0000000180050b78     _nodert_generated.obj
 0003:00001ba8       ??_7?$_Func_impl@V<lambda_790fb16f6c871e6c2624916e0240bd11>@@V?$allocator@H@std@@XV?$function@$$A6AXHPEAV?$Local@VValue@v8@@@v8@@@Z@3@@std@@6B@ 0000000180050ba8     _nodert_generated.obj
 0003:00001bd8       ??_7_IAsyncActionToAsyncOperationConverter@details@Concurrency@@6B__I?$_AsyncInfoImpl@PE$AAUIAsyncAction@Foundation@Windows@@VAsyncActionCompletedHandler@23@EPublicNonVirtuals@12@@ 0000000180050bd8     _nodert_generated.obj
 0003:00001c08       ??_7?$_Func_impl@V<lambda_897d889871fbdfd64b4d57af573b0f8b>@@V?$allocator@H@std@@X$$V@std@@6B@ 0000000180050c08     _nodert_generated.obj
 0003:00001c38       ??_7?$_Func_base@PE$AAVString@Platform@@V?$Local@VValue@v8@@@v8@@@std@@6B@ 0000000180050c38     _nodert_generated.obj
 0003:00001c68       ??_7?$_Func_impl@V<lambda_f25c37099038263181b5186a3fa41b37>@@V?$allocator@H@std@@X$$V@std@@6B@ 0000000180050c68     _nodert_generated.obj
 0003:00001c98       ??_7?$_Func_impl@V<lambda_d3f551485d104f6ae14b804d71843104>@@V?$allocator@H@std@@XV?$function@$$A6AXHPEAV?$Local@VValue@v8@@@v8@@@Z@3@@std@@6B@ 0000000180050c98     _nodert_generated.obj
 0003:00001cc8       ??_7?$_Ref_count_obj@U?$_Task_impl@PE$AAVString@Platform@@@details@Concurrency@@@std@@6B@ 0000000180050cc8     _nodert_generated.obj
 0003:00001ce8       ??_7?$_Func_impl@V<lambda_14342bb0fc1a34e7de91090c40164206>@@V?$allocator@H@std@@V?$Local@VValue@v8@@@v8@@PE$AAVString@Platform@@@std@@6B@ 0000000180050ce8     _nodert_generated.obj
 0003:00001d18       ??_7?$_Func_impl@V<lambda_30ce2cebd3e1f6a190e64ff404c2202a>@@V?$allocator@H@std@@XV?$function@$$A6AXHPEAV?$Local@VValue@v8@@@v8@@@Z@3@@std@@6B@ 0000000180050d18     _nodert_generated.obj
 0003:00001d48       ??_7?$_Task_impl@E@details@Concurrency@@6B@ 0000000180050d48     _nodert_generated.obj
 0003:00001d58       ??_7?$_Ref_count_obj@U?$_Task_impl@E@details@Concurrency@@@std@@6B@ 0000000180050d58     _nodert_generated.obj
 0003:00001d78       ??_7?$_Task_impl@W4SetImageFeedResult@UserProfile@System@Windows@@@details@Concurrency@@6B@ 0000000180050d78     _nodert_generated.obj
 0003:00001d88       ??_7?$_Func_impl@V<lambda_49d40b44faff285b2ab5bf950335b63e>@@V?$allocator@H@std@@V?$Local@VValue@v8@@@v8@@PE$AAU?$IKeyValuePair@PE$AAVString@Platform@@PE$AAVObject@2@@Collections@Foundation@Windows@@@std@@6B@ 0000000180050d88     _nodert_generated.obj
 0003:00001db8       ??_7AsyncActionCompletedHandler@Foundation@Windows@@6BObject@Platform@@@ 0000000180050db8     _nodert_generated.obj
 0003:00001de8       ??_7?$_Func_impl@V<lambda_d4a8bb1d3b7ec2bea7766c2745f0ce11>@@V?$allocator@H@std@@EV?$task@X@Concurrency@@@std@@6B@ 0000000180050de8     _nodert_generated.obj
 0003:00001e18       ??_7?$_ContinuationTaskHandle@W4SetAccountPictureResult@UserProfile@System@Windows@@XV?$function@$$A6AXV?$task@W4SetAccountPictureResult@UserProfile@System@Windows@@@Concurrency@@@Z@std@@U?$integral_constant@_N$00@6@U_TypeSelectorNoAsync@details@Concurrency@@@?$task@W4SetAccountPictureResult@UserProfile@System@Windows@@@Concurrency@@6B@ 0000000180050e18     _nodert_generated.obj
 0003:00001e30       ??_7?$_Func_impl@V<lambda_9933a21befe6e47ae479e016e2f1250c>@@V?$allocator@H@std@@X$$V@std@@6B@ 0000000180050e30     _nodert_generated.obj
 0003:00001e60       ??_7?$_Func_impl@V<lambda_e135d44f95a3367d5ad1b22011e27c85>@@V?$allocator@H@std@@XV?$task@PE$AAVString@Platform@@@Concurrency@@@std@@6B@ 0000000180050e60     _nodert_generated.obj
 0003:00001e90       ??_7?$AsyncOperationCompletedHandler@_N@Foundation@Windows@@6B__abi_IUnknown@@@ 0000000180050e90     _nodert_generated.obj
 0003:00001eb8       ??_7?$_Func_impl@V<lambda_eb246f27357fe68214346abbac0891b9>@@V?$allocator@H@std@@XV?$function@$$A6AXHPEAV?$Local@VValue@v8@@@v8@@@Z@3@@std@@6B@ 0000000180050eb8     _nodert_generated.obj
 0003:00001ee8       ??_7?$_ContinuationTaskHandle@XXV?$function@$$A6AXV?$task@X@Concurrency@@@Z@std@@U?$integral_constant@_N$00@2@U_TypeSelectorNoAsync@details@Concurrency@@@?$task@E@Concurrency@@6B@ 0000000180050ee8     _nodert_generated.obj
 0003:00001f00       ??_7?$_Func_base@EV?$task@W4SetImageFeedResult@UserProfile@System@Windows@@@Concurrency@@@std@@6B@ 0000000180050f00     _nodert_generated.obj
 0003:00001f30       ??_7?$_AsyncInfoImpl@PE$AAUIAsyncAction@Foundation@Windows@@VAsyncActionCompletedHandler@23@E@details@Concurrency@@6B__I?$_AsyncInfoImpl@PE$AAUIAsyncAction@Foundation@Windows@@VAsyncActionCompletedHandler@23@EPublicNonVirtuals@12@@ 0000000180050f30     _nodert_generated.obj
 0003:00001f60       ??_7?$AsyncOperationCompletedHandler@E@Foundation@Windows@@6B__abi_IUnknown@@@ 0000000180050f60     _nodert_generated.obj
 0003:00001f88       ??_7?$_Func_impl@V<lambda_18fe36498142698896b2505f11ad50c3>@@V?$allocator@H@std@@_NV?$Local@VValue@v8@@@v8@@@std@@6B@ 0000000180050f88     _nodert_generated.obj
 0003:00001fb8       ??_7?$_PPLTaskHandle@EU?$_ContinuationTaskHandle@PE$AAVString@Platform@@XV?$function@$$A6AXV?$task@PE$AAVString@Platform@@@Concurrency@@@Z@std@@U?$integral_constant@_N$00@4@U_TypeSelectorNoAsync@details@Concurrency@@@?$task@PE$AAVString@Platform@@@Concurrency@@U_ContinuationTaskHandleBase@details@3@@details@Concurrency@@6B@ 0000000180050fb8     _nodert_generated.obj
 0003:00001fd0       ??_7invalid_operation@Concurrency@@6B@ 0000000180050fd0     _nodert_generated.obj
 0003:00001fe8       ??_7?$_Func_impl@V<lambda_77c2d008ad3a4cbef47859d7b5cd645e>@@V?$allocator@H@std@@XV?$task@X@Concurrency@@@std@@6B@ 0000000180050fe8     _nodert_generated.obj
 0003:00002018       ??_7?$_PPLTaskHandle@EU?$_ContinuationTaskHandle@XXV?$function@$$A6AXV?$task@X@Concurrency@@@Z@std@@U?$integral_constant@_N$00@2@U_TypeSelectorNoAsync@details@Concurrency@@@?$task@E@Concurrency@@U_ContinuationTaskHandleBase@details@3@@details@Concurrency@@6B@ 0000000180051018     _nodert_generated.obj
 0003:00002030       ??_7?$_Ref_count_obj@U?$_Task_impl@PE$AAVUri@Foundation@Windows@@@details@Concurrency@@@std@@6B@ 0000000180051030     _nodert_generated.obj
 0003:00002050       ??_7?$AsyncOperationCompletedHandler@PE$AAVString@Platform@@@Foundation@Windows@@6B__abi_IUnknown@@@ 0000000180051050     _nodert_generated.obj
 0003:00002078       ??_7FirstSignInSettings@UserProfile@System@Windows@NodeRT@@6B@ 0000000180051078     _nodert_generated.obj
 0003:00002098       ??_7?$_Func_base@EV?$task@PE$AAVString@Platform@@@Concurrency@@@std@@6B@ 0000000180051098     _nodert_generated.obj
 0003:000020c8       ??_7?$_Func_impl@V<lambda_2acd1b0984ddbf84da226d7169f8db72>@@V?$allocator@H@std@@XV?$function@$$A6AXHPEAV?$Local@VValue@v8@@@v8@@@Z@3@@std@@6B@ 00000001800510c8     _nodert_generated.obj
 0003:000020f8       ??_7?$IteratorWrapper@PE$AAU?$IKeyValuePair@PE$AAVString@Platform@@PE$AAVObject@2@@Collections@Foundation@Windows@@@Collections@NodeRT@@6B@ 00000001800510f8     _nodert_generated.obj
 0003:00002118       ??_7?$_Func_base@XHPEAV?$Local@VValue@v8@@@v8@@@std@@6B@ 0000000180051118     _nodert_generated.obj
 0003:00002148       ??_7?$AsyncOperationCompletedHandler@W4SetAccountPictureResult@UserProfile@System@Windows@@@Foundation@Windows@@6B@ 0000000180051148     _nodert_generated.obj
 0003:00002178       ??_7?$__abi_FunctorCapture@V<lambda_e0cba0e0128fb4af122087e68d5a5f3f>@@XPE$AAU?$IAsyncOperation@W4SetImageFeedResult@UserProfile@System@Windows@@@Foundation@Windows@@W4AsyncStatus@34@@Details@Platform@@6B@ 0000000180051178     _nodert_generated.obj
 0003:00002188       ??_7?$_Func_impl@V<lambda_ee2800ccd2b011420c5de0c63356449b>@@V?$allocator@H@std@@X$$V@std@@6B@ 0000000180051188     _nodert_generated.obj
 0003:000021b8       ??_7?$_Func_impl@V<lambda_fc55a96778b695da9907353a9fdacbca>@@V?$allocator@H@std@@X$$V@std@@6B@ 00000001800511b8     _nodert_generated.obj
 0003:000021e8       ??_7?$_Func_base@EV?$task@_N@Concurrency@@@std@@6B@ 00000001800511e8     _nodert_generated.obj
 0003:00002218       ??_7?$_PPLTaskHandle@EU?$_ContinuationTaskHandle@_NXV?$function@$$A6AXV?$task@_N@Concurrency@@@Z@std@@U?$integral_constant@_N$00@2@U_TypeSelectorNoAsync@details@Concurrency@@@?$task@_N@Concurrency@@U_ContinuationTaskHandleBase@details@3@@details@Concurrency@@6B@ 0000000180051218     _nodert_generated.obj
 0003:00002230       ??_7?$_Func_impl@V<lambda_29689827c0425fd227f4adf15f3a4534>@@V?$allocator@H@std@@V?$Local@VValue@v8@@@v8@@PE$AAVString@Platform@@@std@@6B@ 0000000180051230     _nodert_generated.obj
 0003:00002260       ??_7?$_Func_base@EV?$task@PE$AAVUri@Foundation@Windows@@@Concurrency@@@std@@6B@ 0000000180051260     _nodert_generated.obj
 0003:00002290       ??_7?$_CancellationTokenCallback@V<lambda_be3e5d9dce35d2c8dbfa8485373731d5>@@@details@Concurrency@@6B@ 0000000180051290     _nodert_generated.obj
 0003:000022a8       ??_7?$_Func_impl@V<lambda_24e96e65de0221e212c62b01719a71c5>@@V?$allocator@H@std@@XV?$task@W4SetAccountPictureResult@UserProfile@System@Windows@@@Concurrency@@@std@@6B@ 00000001800512a8     _nodert_generated.obj
 0003:000022d8       ??_7?$_Func_impl@V<lambda_0a4cdb8f1c9e05c22050feac4901f75f>@@V?$allocator@H@std@@V?$Local@VValue@v8@@@v8@@PE$AAVString@Platform@@@std@@6B@ 00000001800512d8     _nodert_generated.obj
 0003:00002308       ??_7?$_Func_impl@V<lambda_90b09dac011223b89e660207ea92210b>@@V?$allocator@H@std@@XV?$function@$$A6AXHPEAV?$Local@VValue@v8@@@v8@@@Z@3@@std@@6B@ 0000000180051308     _nodert_generated.obj
 0003:00002338       ??_7?$_Func_impl@V<lambda_07dd6612f4a3f3115d9ecc964b8ae3dc>@@V?$allocator@H@std@@_NV?$Local@VValue@v8@@@v8@@@std@@6B@ 0000000180051338     _nodert_generated.obj
 0003:00002368       ??_7GlobalizationPreferences@UserProfile@System@Windows@NodeRT@@6B@ 0000000180051368     _nodert_generated.obj
 0003:00002388       ??_7_IAsyncActionToAsyncOperationConverter@details@Concurrency@@6BObject@Platform@@IWeakReferenceSource@Details@4@@ 0000000180051388     _nodert_generated.obj
 0003:000023b8       ??_7_ContinuationTaskHandleBase@details@Concurrency@@6B@ 00000001800513b8     _nodert_generated.obj
 0003:000023d0       ??_7_Task_impl_base@details@Concurrency@@6B@ 00000001800513d0     _nodert_generated.obj
 0003:000023e0       ??_7OpaqueWrapper@NodeRT@@6B@ 00000001800513e0     OpaqueWrapper.obj
 0003:00002400       ??_R0?AVModuleBase@Details@WRL@Microsoft@@@8 0000000180051400     vccorlib:init.obj
 0003:00002438       ??_R0?AVInProcModule@Details@Platform@@@8 0000000180051438     vccorlib:init.obj
 0003:00002470       ??_R0?AV?$Module@$04VInProcModule@Details@Platform@@@WRL@Microsoft@@@8 0000000180051470     vccorlib:init.obj
 0003:000024d0       ??_R0?AV?$Module@$00VInProcModule@Details@Platform@@@WRL@Microsoft@@@8 00000001800514d0     vccorlib:init.obj
 0003:00002528       ??_R0?AU__abi_Module@@@8   0000000180051528     vccorlib:init.obj
 0003:00002550       ??_R0?AVtype_info@@@8      0000000180051550     MSVCRT:std_type_info_static.obj
 0003:00002570       ??_R0?AVbad_alloc@std@@@8  0000000180051570     MSVCRT:throw_bad_alloc.obj
 0003:00002598       ??_R0?AVexception@std@@@8  0000000180051598     MSVCRT:throw_bad_alloc.obj
 0003:000025c0       ??_R0?AVbad_array_new_length@std@@@8 00000001800515c0     MSVCRT:throw_bad_alloc.obj
 0003:000025f0       ??_R0?AV<lambda_5a6aa9a858230c5449dfcdc2049eeb97>@@@8 00000001800515f0     _nodert_generated.obj
 0003:00002630       ??_R0?AV<lambda_88a6fc8dc694f47ad77b7fd720085f6f>@@@8 0000000180051630     _nodert_generated.obj
 0003:00002670       ??_R0?AV<lambda_34d5782f3f5521aea81e3edfb7162e5f>@@@8 0000000180051670     _nodert_generated.obj
 0003:000026b0       ??_R0?AVruntime_error@std@@@8 00000001800516b0     _nodert_generated.obj
 0003:000026e0       ??_R0?AV<lambda_29689827c0425fd227f4adf15f3a4534>@@@8 00000001800516e0     _nodert_generated.obj
 0003:00002720       ??_R0?AV<lambda_14a9c0ba59923c0da6a7a331b40a12a7>@@@8 0000000180051720     _nodert_generated.obj
 0003:00002760       ??_R0?AV<lambda_91b301a193aeb16ed51fb62a7ad09106>@@@8 0000000180051760     _nodert_generated.obj
 0003:000027a0       ??_R0?AVexception@stdext@@@8 00000001800517a0     _nodert_generated.obj
 0003:000027d0       ??_R0?AV<lambda_e135d44f95a3367d5ad1b22011e27c85>@@@8 00000001800517d0     _nodert_generated.obj
 0003:00002810       ??_R0?AV<lambda_00dae82a930d63f88c9fd3675f67fbee>@@@8 0000000180051810     _nodert_generated.obj
 0003:00002850       ??_R0?AV<lambda_368464cdf42a21fb3463ea12bcbd2820>@@@8 0000000180051850     _nodert_generated.obj
 0003:00002890       ??_R0?AV<lambda_14342bb0fc1a34e7de91090c40164206>@@@8 0000000180051890     _nodert_generated.obj
 0003:000028d0       ??_R0?AV<lambda_cc078ed2b0c8209a59551d1a1c4abe97>@@@8 00000001800518d0     _nodert_generated.obj
 0003:00002910       ??_R0?AV<lambda_92e205d7db2179ec6d65e88270e1e91c>@@@8 0000000180051910     _nodert_generated.obj
 0003:00002950       ??_R0PE$AAUIDisposable@Platform@@@8 0000000180051950     _nodert_generated.obj
 0003:00002980       ??_R0?AV<lambda_18fe36498142698896b2505f11ad50c3>@@@8 0000000180051980     _nodert_generated.obj
 0003:000029c0       ??_R0?AV<lambda_d5c67d5179cb9592a8ec5c4f5f4cbd46>@@@8 00000001800519c0     _nodert_generated.obj
 0003:00002a00       ??_R0?AV<lambda_f670e7edba470851bf82d4b0912a66c9>@@@8 0000000180051a00     _nodert_generated.obj
 0003:00002a40       ??_R0?AV<lambda_dcad5dba0a743a99876a5c6849440f1f>@@@8 0000000180051a40     _nodert_generated.obj
 0003:00002a80       ??_R0?AV<lambda_05094e775daa4fff3e8cfe85cffce6d0>@@@8 0000000180051a80     _nodert_generated.obj
 0003:00002ac0       ??_R0?AV<lambda_39b061c4dcc493158582a0e51eceb8d8>@@@8 0000000180051ac0     _nodert_generated.obj
 0003:00002b00       ??_R0PE$AAUIEquatable@Details@Platform@@@8 0000000180051b00     _nodert_generated.obj
 0003:00002b40       ??_R0?AV<lambda_4574c27cff692f6a20728303ac3ff8b2>@@@8 0000000180051b40     _nodert_generated.obj
 0003:00002b80       ??_R0?AV<lambda_0a4cdb8f1c9e05c22050feac4901f75f>@@@8 0000000180051b80     _nodert_generated.obj
 0003:00002bc0       ??_R0?AV<lambda_de0b6cb514951d25629a6327c06abf7c>@@@8 0000000180051bc0     _nodert_generated.obj
 0003:00002c00       ??_R0?AV<lambda_205294ac9d93e11a49f76c7d4aaeec33>@@@8 0000000180051c00     _nodert_generated.obj
 0003:00002c40       ??_R0?AV<lambda_8c935bb9b796b248181a9d1da9394bdb>@@@8 0000000180051c40     _nodert_generated.obj
 0003:00002c80       ??_R0?AV<lambda_231b748b8da94b7eb54bd82ce5de0e20>@@@8 0000000180051c80     _nodert_generated.obj
 0003:00002cc0       ??_R0?AV<lambda_cc72383f0805d59c97333d5cd58436ef>@@@8 0000000180051cc0     _nodert_generated.obj
 0003:00002d00       ??_R0?AV<lambda_41c33d0cb9f9b5c0b079696186e35e5b>@@@8 0000000180051d00     _nodert_generated.obj
 0003:00002d40       ??_R0?AV<lambda_897d889871fbdfd64b4d57af573b0f8b>@@@8 0000000180051d40     _nodert_generated.obj
 0003:00002d80       ??_R0?AV<lambda_560709c181b7cb4e9c377fd68c191fda>@@@8 0000000180051d80     _nodert_generated.obj
 0003:00002dc0       ??_R0?AV<lambda_33f6d1522ba7a677218c6b9422376f67>@@@8 0000000180051dc0     _nodert_generated.obj
 0003:00002e00       ??_R0?AV<lambda_8beb44cf918d84b3ab274f7936494749>@@@8 0000000180051e00     _nodert_generated.obj
 0003:00002e40       ??_R0?AV<lambda_07dd6612f4a3f3115d9ecc964b8ae3dc>@@@8 0000000180051e40     _nodert_generated.obj
 0003:00002e80       ??_R0?AV<lambda_83d3d7b70820dd48fe4cc6e62c961ea6>@@@8 0000000180051e80     _nodert_generated.obj
 0003:00002ec0       ??_R0?AV<lambda_81d13eba1fa31f29a54d9486b3b4a8ac>@@@8 0000000180051ec0     _nodert_generated.obj
 0003:00002f00       ??_R0?AV<lambda_8b9caa19dc40ec7419aa4be5d662b6a6>@@@8 0000000180051f00     _nodert_generated.obj
 0003:00002f40       ??_R0?AV<lambda_4b6c9b9cdf3bd454ea74273f1cd1ed83>@@@8 0000000180051f40     _nodert_generated.obj
 0003:00002f80       ??_R0?AV<lambda_fc55a96778b695da9907353a9fdacbca>@@@8 0000000180051f80     _nodert_generated.obj
 0003:00002fc0       ??_R0PE$AAVObject@Platform@@@8 0000000180051fc0     _nodert_generated.obj
 0003:00002ff0       ??_R0?AV<lambda_d8c8bc66ae64912877885a1264c60903>@@@8 0000000180051ff0     _nodert_generated.obj
 0003:00003030       ??_R0?AV<lambda_b360fbdf5b4ffbfcd8c64068c8670886>@@@8 0000000180052030     _nodert_generated.obj
 0003:00003070       ??_R0?AV<lambda_eb54b70ebb75077bd41b4b5eb7f9699c>@@@8 0000000180052070     _nodert_generated.obj
 0003:000030b0       ??_R0?AV<lambda_1af583cf6945007177c61d87505abd8e>@@@8 00000001800520b0     _nodert_generated.obj
 0003:000030f0       ??_R0?AV<lambda_a17e3eb8892ab9825149c4ba725890fa>@@@8 00000001800520f0     _nodert_generated.obj
 0003:00003130       ??_R0?AV<lambda_f690099ae625f80b95a1d81ffb1845cf>@@@8 0000000180052130     _nodert_generated.obj
 0003:00003170       ??_R0?AV<lambda_326f6c7fd35a5e479c8f23ef8a4cb891>@@@8 0000000180052170     _nodert_generated.obj
 0003:000031b0       ??_R0?AV<lambda_4ccdb47b7f1ffbf2ccf188975fda679b>@@@8 00000001800521b0     _nodert_generated.obj
 0003:000031f0       ??_R0PE$AAUIPrintable@Details@Platform@@@8 00000001800521f0     _nodert_generated.obj
 0003:00003230       ??_R0?AV<lambda_f654db1f4b3763a2796792ed092520e3>@@@8 0000000180052230     _nodert_generated.obj
 0003:00003270       ??_R0?AV<lambda_b0459761a89b1478eff3530a12ff80c5>@@@8 0000000180052270     _nodert_generated.obj
 0003:000032b0       ??_R0?AV<lambda_f22ae8650c56c333ae2e36071b93234d>@@@8 00000001800522b0     _nodert_generated.obj
 0003:000032f0       ??_R0?AV<lambda_e9925fcb3d885ef5d135703b17266fe6>@@@8 00000001800522f0     _nodert_generated.obj
 0003:00003330       ??_R0?AV<lambda_d4a8bb1d3b7ec2bea7766c2745f0ce11>@@@8 0000000180052330     _nodert_generated.obj
 0003:00003370       ??_R0PE$AAVCOMException@Platform@@@8 0000000180052370     _nodert_generated.obj
 0003:000033a0       ??_R0?AV<lambda_cbae8c6cf33875e01c338a5f99abe71d>@@@8 00000001800523a0     _nodert_generated.obj
 0003:000033e0       ??_R0?AV<lambda_19fd5fc6a920c979b743ae35727eef78>@@@8 00000001800523e0     _nodert_generated.obj
 0003:00003420       ??_R0?AV<lambda_24e96e65de0221e212c62b01719a71c5>@@@8 0000000180052420     _nodert_generated.obj
 0003:00003460       ??_R0?AV<lambda_7f4cebe17154362a5bec736b55156997>@@@8 0000000180052460     _nodert_generated.obj
 0003:000034a0       ??_R0?AV<lambda_4531d86c204c1c2cbe2cef4be8195a23>@@@8 00000001800524a0     _nodert_generated.obj
 0003:000034e0       ??_R0?AV<lambda_ac0fbf381b812e535c5187d22631972a>@@@8 00000001800524e0     _nodert_generated.obj
 0003:00003520       ??_R0?AV<lambda_5cd250c4e6f910ea43081ee63870250a>@@@8 0000000180052520     _nodert_generated.obj
 0003:00003560       ??_R0?AV<lambda_fcddfbb588d6d178324b6e9cbb1f8253>@@@8 0000000180052560     _nodert_generated.obj
 0003:000035a0       ??_R0?AV<lambda_34316d8807e26dc07711d920bbc983e2>@@@8 00000001800525a0     _nodert_generated.obj
 0003:000035e0       ??_R0?AV<lambda_252a23a4c4e06e57aa01918ce60919db>@@@8 00000001800525e0     _nodert_generated.obj
 0003:00003620       ??_R0?AV<lambda_9933a21befe6e47ae479e016e2f1250c>@@@8 0000000180052620     _nodert_generated.obj
 0003:00003660       ??_R0?AV<lambda_621e08f071ba6e5d5373417c49677dca>@@@8 0000000180052660     _nodert_generated.obj
 0003:000036a0       ??_R0?AV<lambda_790fb16f6c871e6c2624916e0240bd11>@@@8 00000001800526a0     _nodert_generated.obj
 0003:000036e0       ??_R0PEAX@8                00000001800526e0     _nodert_generated.obj
 0003:00003700       ??_R0?AV<lambda_713d43ab4c57f2fa914cada6953956e0>@@@8 0000000180052700     _nodert_generated.obj
 0003:00003740       ??_R0?AV<lambda_2ade840f8176aa66a6fbfe3c3eead4f6>@@@8 0000000180052740     _nodert_generated.obj
 0003:00003780       ??_R0?AV<lambda_18b2633ead7fc6f6e4469ed3eeb4e6fa>@@@8 0000000180052780     _nodert_generated.obj
 0003:000037c0       ??_R0?AV<lambda_30ce2cebd3e1f6a190e64ff404c2202a>@@@8 00000001800527c0     _nodert_generated.obj
 0003:00003800       ??_R0?AV<lambda_b0e3d2bdc7554e03e713ca9347ec6901>@@@8 0000000180052800     _nodert_generated.obj
 0003:00003840       ??_R0?AV<lambda_bb3ea35c7a129712676a4a6472ecdc6a>@@@8 0000000180052840     _nodert_generated.obj
 0003:00003880       ??_R0?AV<lambda_58626b52514f991d8245102f56304a1b>@@@8 0000000180052880     _nodert_generated.obj
 0003:000038c0       ??_R0?AV<lambda_dcb12585ed824e6d01e61282120cf55e>@@@8 00000001800528c0     _nodert_generated.obj
 0003:00003900       ??_R0?AV<lambda_8215ac15cdc9e56d811858647c76cf66>@@@8 0000000180052900     _nodert_generated.obj
 0003:00003940       ??_R0?AV<lambda_587670df7112283a5c24be1cf3e10d12>@@@8 0000000180052940     _nodert_generated.obj
 0003:00003980       ??_R0?AV<lambda_d3f551485d104f6ae14b804d71843104>@@@8 0000000180052980     _nodert_generated.obj
 0003:000039c0       ??_R0?AV<lambda_824e81c3567191544e8b6219b1196035>@@@8 00000001800529c0     _nodert_generated.obj
 0003:00003a00       ??_R0?AV<lambda_90b09dac011223b89e660207ea92210b>@@@8 0000000180052a00     _nodert_generated.obj
 0003:00003a40       ??_R0?AV<lambda_fc0d6554ea59c755c55dae328d38f34b>@@@8 0000000180052a40     _nodert_generated.obj
 0003:00003a80       ??_R0?AV<lambda_2acd1b0984ddbf84da226d7169f8db72>@@@8 0000000180052a80     _nodert_generated.obj
 0003:00003ac0       ??_R0?AV<lambda_0c35f08fa008bd0bd75f4471027a7740>@@@8 0000000180052ac0     _nodert_generated.obj
 0003:00003b00       ??_R0?AV<lambda_f25c37099038263181b5186a3fa41b37>@@@8 0000000180052b00     _nodert_generated.obj
 0003:00003b40       ??_R0?AV<lambda_763529b0c7473cbc215a52d189ac9b18>@@@8 0000000180052b40     _nodert_generated.obj
 0003:00003b80       ??_R0PE$AAVException@Platform@@@8 0000000180052b80     _nodert_generated.obj
 0003:00003bb0       ??_R0?AV<lambda_7c85cdcc7b722a73124a4747dd95cece>@@@8 0000000180052bb0     _nodert_generated.obj
 0003:00003bf0       ??_R0PE$AAVNullReferenceException@Platform@@@8 0000000180052bf0     _nodert_generated.obj
 0003:00003c30       ??_R0?AV<lambda_f3af825ce7732aca5e01be2fe411dff0>@@@8 0000000180052c30     _nodert_generated.obj
 0003:00003c70       ??_R0?AV<lambda_849986207adba1f7efb90e156e6a7b76>@@@8 0000000180052c70     _nodert_generated.obj
 0003:00003cb0       ??_R0?AV<lambda_b8357930ac6bf88aeb68092f05f6b942>@@@8 0000000180052cb0     _nodert_generated.obj
 0003:00003cf0       ??_R0?AV<lambda_7fe100d452bfc50bc5609b497b51776a>@@@8 0000000180052cf0     _nodert_generated.obj
 0003:00003d30       ??_R0?AV<lambda_5a1c437f17fa466aabaf7b0153a0ecc3>@@@8 0000000180052d30     _nodert_generated.obj
 0003:00003d70       ??_R0?AV<lambda_eb246f27357fe68214346abbac0891b9>@@@8 0000000180052d70     _nodert_generated.obj
 0003:00003db0       ??_R0?AV<lambda_77c2d008ad3a4cbef47859d7b5cd645e>@@@8 0000000180052db0     _nodert_generated.obj
 0003:00003df0       ??_R0?AV<lambda_09e6080208e0b35848a7b34c2a0656fe>@@@8 0000000180052df0     _nodert_generated.obj
 0003:00003e30       ??_R0?AV<lambda_f09785eba58e50f096cc8fed22f3cc63>@@@8 0000000180052e30     _nodert_generated.obj
 0003:00003e70       ??_R0?AV<lambda_9a5068aaf379780d6b6b94ab8a1eb0ff>@@@8 0000000180052e70     _nodert_generated.obj
 0003:00003eb0       ??_R0?AV<lambda_49d40b44faff285b2ab5bf950335b63e>@@@8 0000000180052eb0     _nodert_generated.obj
 0003:00003ef0       ??_R0?AV<lambda_10c4459c2f81eb5b686592d24c9f1c09>@@@8 0000000180052ef0     _nodert_generated.obj
 0003:00003f30       ??_R0?AV<lambda_ee2800ccd2b011420c5de0c63356449b>@@@8 0000000180052f30     _nodert_generated.obj
 0003:00003f70       ??_R0?AV<lambda_09190bd06ab069a832e2523f3781087c>@@@8 0000000180052f70     _nodert_generated.obj
 0003:00003fb0       ??_R0P6AHPEAX@Z@8          0000000180052fb0     _nodert_generated.obj
 0003:00003fd0       ?__abi___threading_model@@3HA 0000000180052fd0     vccorlib:init.obj
 0003:00003fd4       ?bTestedRoReportUnhandledError@@3HA 0000000180052fd4     vccorlib:init.obj
 0003:00003fd8       ?RoReportUnhandledErrorFunc@@3P6AJPEAUIRestrictedErrorInfo@@@ZEA 0000000180052fd8     vccorlib:init.obj
 0003:00003fe0       ?__abi_module@@3PEAU__abi_Module@@EA 0000000180052fe0     vccorlib:init.obj
 0003:00003fe8       ?module_@Details@Platform@@3AEAVInProcModule@12@EA 0000000180052fe8     vccorlib:init.obj
 0003:00003ff0       ?moduleLock_@ModuleBase@Details@WRL@Microsoft@@0PEAXEA 0000000180052ff0     vccorlib:init.obj
 0003:00003ff8       ?objectCount_@ModuleBase@Details@WRL@Microsoft@@1KC 0000000180052ff8     vccorlib:init.obj
 0003:00004000       ?module_@ModuleBase@Details@WRL@Microsoft@@2PEAV1234@EA 0000000180053000     vccorlib:init.obj
 0003:00004008       ?module@?1??Create@?$Module@$00VInProcModule@Details@Platform@@@WRL@Microsoft@@SAAEAVInProcModule@Details@Platform@@XZ@4V567@A 0000000180053008     vccorlib:init.obj
 0003:00004018       ??_B?1??Create@?$Module@$00VInProcModule@Details@Platform@@@WRL@Microsoft@@SAAEAVInProcModule@Details@Platform@@XZ@51 0000000180053018     vccorlib:init.obj
 0003:00004068       __scrt_current_native_startup_state 0000000180053068     MSVCRT:utility.obj
 0003:00004070       __scrt_native_startup_lock 0000000180053070     MSVCRT:utility.obj
 0003:00004624       __scrt_debugger_hook_flag  0000000180053624     MSVCRT:utility_desktop.obj
 0003:00004628       _tls_index                 0000000180053628     MSVCRT:tlssup.obj
 0003:0000462c       __favor                    000000018005362c     MSVCRT:_cpu_disp_.obj
 0003:00004630       ?__type_info_root_node@@3U__type_info_node@@A 0000000180053630     MSVCRT:tncleanup.obj
 0003:00004640       ?_OptionsStorage@?1??__local_stdio_printf_options@@9@4_KA 0000000180053640     MSVCRT:default_local_stdio_options.obj
 0003:00004648       ?_OptionsStorage@?1??__local_stdio_scanf_options@@9@4_KA 0000000180053648     MSVCRT:default_local_stdio_options.obj
 0003:00004650       ?$TSS0@?1??_GetStaticAmbientSchedulerRef@details@Concurrency@@YAAEAV?$shared_ptr@Uscheduler_interface@Concurrency@@@std@@XZ@4HA 0000000180053650     _nodert_generated.obj
 0003:00004654       ?$TSS0@?1??RunOnMain@Async@NodeUtils@@SAXV?$function@$$A6AXXZ@std@@@Z@4HA 0000000180053654     _nodert_generated.obj
 0003:00004658       ?_S_scheduler@?1??_GetStaticAmbientSchedulerRef@details@Concurrency@@YAAEAV?$shared_ptr@Uscheduler_interface@Concurrency@@@std@@XZ@4V45@A 0000000180053658     _nodert_generated.obj
 0003:00004668       ?uvMainThreadId@?1??RunOnMain@Async@NodeUtils@@SAXV?$function@$$A6AXXZ@std@@@Z@4IA 0000000180053668     _nodert_generated.obj
 0003:00004670       ?s_constructorTemplate@?$VectorViewWrapper@PE$AAVString@Platform@@@Collections@NodeRT@@0V?$Persistent@VFunctionTemplate@v8@@V?$NonCopyablePersistentTraits@VFunctionTemplate@v8@@@2@@Nan@@A 0000000180053670     _nodert_generated.obj
 0003:00004680       ?g_keyProp@Collections@NodeRT@@3V?$Persistent@VString@v8@@V?$NonCopyablePersistentTraits@VString@v8@@@2@@Nan@@A 0000000180053680     _nodert_generated.obj
 0003:00004688       ?s_constructorTemplate@GlobalizationPreferences@UserProfile@System@Windows@NodeRT@@0V?$Persistent@VFunctionTemplate@v8@@V?$NonCopyablePersistentTraits@VFunctionTemplate@v8@@@2@@Nan@@A 0000000180053688     _nodert_generated.obj
 0003:00004690       ?s_constructorTemplate@LockScreen@UserProfile@System@Windows@NodeRT@@0V?$Persistent@VFunctionTemplate@v8@@V?$NonCopyablePersistentTraits@VFunctionTemplate@v8@@@2@@Nan@@A 0000000180053690     _nodert_generated.obj
 0003:00004698       ?s_constructorTemplate@AdvertisingManager@UserProfile@System@Windows@NodeRT@@0V?$Persistent@VFunctionTemplate@v8@@V?$NonCopyablePersistentTraits@VFunctionTemplate@v8@@@2@@Nan@@A 0000000180053698     _nodert_generated.obj
 0003:000046a0       ?s_constructorTemplate@FirstSignInSettings@UserProfile@System@Windows@NodeRT@@0V?$Persistent@VFunctionTemplate@v8@@V?$NonCopyablePersistentTraits@VFunctionTemplate@v8@@@2@@Nan@@A 00000001800536a0     _nodert_generated.obj
 0003:000046a8       ?s_constructorTemplate@UserProfilePersonalizationSettings@UserProfile@System@Windows@NodeRT@@0V?$Persistent@VFunctionTemplate@v8@@V?$NonCopyablePersistentTraits@VFunctionTemplate@v8@@@2@@Nan@@A 00000001800536a8     _nodert_generated.obj
 0003:000046b0       ?s_constructorTemplate@UserInformation@UserProfile@System@Windows@NodeRT@@0V?$Persistent@VFunctionTemplate@v8@@V?$NonCopyablePersistentTraits@VFunctionTemplate@v8@@@2@@Nan@@A 00000001800536b0     _nodert_generated.obj
 0003:000046b8       ?s_constructorTemplate@AdvertisingManagerForUser@UserProfile@System@Windows@NodeRT@@0V?$Persistent@VFunctionTemplate@v8@@V?$NonCopyablePersistentTraits@VFunctionTemplate@v8@@@2@@Nan@@A 00000001800536b8     _nodert_generated.obj
 0003:000046c0       ?g_valueProp@Collections@NodeRT@@3V?$Persistent@VString@v8@@V?$NonCopyablePersistentTraits@VString@v8@@@2@@Nan@@A 00000001800536c0     _nodert_generated.obj
 0003:000046c8       ?s_constructorTemplate@OpaqueWrapper@NodeRT@@0V?$Persistent@VFunctionTemplate@v8@@V?$NonCopyablePersistentTraits@VFunctionTemplate@v8@@@2@@Nan@@A 00000001800536c8     OpaqueWrapper.obj
 0003:00004710       ?s_constructorTemplate@?$IteratorWrapper@PE$AAVString@Platform@@@Collections@NodeRT@@0V?$Persistent@VFunctionTemplate@v8@@V?$NonCopyablePersistentTraits@VFunctionTemplate@v8@@@2@@Nan@@A 0000000180053710     _nodert_generated.obj
 0003:00004718       ?s_constructorTemplate@?$KeyValuePairWrapper@PE$AAVString@Platform@@PE$AAVObject@2@@Collections@NodeRT@@0V?$Persistent@VFunctionTemplate@v8@@V?$NonCopyablePersistentTraits@VFunctionTemplate@v8@@@2@@Nan@@A 0000000180053718     _nodert_generated.obj
 0003:00004720       ?s_constructorTemplate@?$MapViewWrapper@PE$AAVString@Platform@@PE$AAVObject@2@@Collections@NodeRT@@0V?$Persistent@VFunctionTemplate@v8@@V?$NonCopyablePersistentTraits@VFunctionTemplate@v8@@@2@@Nan@@A 0000000180053720     _nodert_generated.obj
 0003:00004728       ?s_constructorTemplate@?$IteratorWrapper@PE$AAU?$IKeyValuePair@PE$AAVString@Platform@@PE$AAVObject@2@@Collections@Foundation@Windows@@@Collections@NodeRT@@0V?$Persistent@VFunctionTemplate@v8@@V?$NonCopyablePersistentTraits@VFunctionTemplate@v8@@@2@@Nan@@A 0000000180053728     _nodert_generated.obj
 0003:00004730       __dyn_tls_init_callback    0000000180053730     <common>
 0005:00000000       __pobjectentryfirst        0000000180058000     vccorlib:init.obj
 0005:00000008       __pobjectentrymid          0000000180058008     vccorlib:init.obj
 0005:00000010       __pobjectentrylast         0000000180058010     vccorlib:init.obj
 0007:00000000       _tls_start                 000000018005a000     MSVCRT:tlssup.obj
 0007:00000004       _Init_thread_epoch         000000018005a004     MSVCRT:thread_safe_statics.obj
 0007:00000008       _tls_end                   000000018005a008     MSVCRT:tlssup.obj

 entry point at        0001:0002e94c

 Static symbols

 0000:fffa3000       .debug$S                   0000000180000000     vccorlib:vccorlib140.DLL
 0000:fffa3000       .debug$S                   0000000180000000     ucrt:api-ms-win-crt-runtime-l1-1-0.dll
 0000:fffa3000       .debug$S                   0000000180000000     ucrt:api-ms-win-crt-runtime-l1-1-0.dll
 0000:fffa3000       .debug$S                   0000000180000000     ucrt:api-ms-win-crt-runtime-l1-1-0.dll
 0000:fffa3000       .debug$S                   0000000180000000     ucrt:api-ms-win-crt-runtime-l1-1-0.dll
 0000:fffa3000       .debug$S                   0000000180000000     ucrt:api-ms-win-crt-runtime-l1-1-0.dll
 0000:fffa3000       .debug$S                   0000000180000000     ucrt:api-ms-win-crt-runtime-l1-1-0.dll
 0000:fffa3000       .debug$S                   0000000180000000     ucrt:api-ms-win-crt-runtime-l1-1-0.dll
 0000:fffa3000       .debug$S                   0000000180000000     ucrt:api-ms-win-crt-runtime-l1-1-0.dll
 0000:fffa3000       .debug$S                   0000000180000000     ucrt:api-ms-win-crt-runtime-l1-1-0.dll
 0000:fffa3000       .debug$S                   0000000180000000     ucrt:api-ms-win-crt-runtime-l1-1-0.dll
 0000:fffa3000       .debug$S                   0000000180000000     ucrt:api-ms-win-crt-runtime-l1-1-0.dll
 0000:fffa3000       .debug$S                   0000000180000000     ucrt:api-ms-win-crt-runtime-l1-1-0.dll
 0000:fffa3000       .debug$S                   0000000180000000     ucrt:api-ms-win-crt-runtime-l1-1-0.dll
 0000:fffa3000       .debug$S                   0000000180000000     ucrt:api-ms-win-crt-string-l1-1-0.dll
 0000:fffa3000       .debug$S                   0000000180000000     ucrt:api-ms-win-crt-string-l1-1-0.dll
 0000:fffa3000       .debug$S                   0000000180000000     ucrt:api-ms-win-crt-string-l1-1-0.dll
